

Microchip MPLAB XC8 Assembler V2.46 build 20240104201356 
                                                                                               Sun Jun 09 16:59:59 2024

Microchip MPLAB XC8 C Compiler v2.46 (Free license) build 20240104201356 Og1 
     1                           	processor	16F877A
     2                           	pagewidth 120
     3                           	opt	flic
     4                           	psect	idataBANK3,global,class=CODE,delta=2,noexec
     5                           	psect	strings,global,class=STRING,delta=2,noexec
     6                           	psect	cinit,global,class=CODE,merge=1,delta=2
     7                           	psect	bssCOMMON,global,class=COMMON,space=1,delta=1,noexec
     8                           	psect	bssBANK1,global,class=BANK1,space=1,delta=1,noexec
     9                           	psect	bssBANK3,global,class=BANK3,space=1,delta=1,noexec
    10                           	psect	dataBANK3,global,class=BANK3,space=1,delta=1,noexec
    11                           	psect	bssBANK2,global,class=BANK2,space=1,delta=1,noexec
    12                           	psect	clrtext,global,class=CODE,delta=2
    13                           	psect	cstackBANK3,global,class=BANK3,space=1,delta=1,noexec
    14                           	psect	cstackBANK1,global,class=BANK1,space=1,delta=1,noexec
    15                           	psect	cstackCOMMON,global,class=COMMON,space=1,delta=1,noexec
    16                           	psect	cstackBANK0,global,class=BANK0,space=1,delta=1,noexec
    17                           	psect	maintext,global,class=CODE,split=1,delta=2
    18                           	psect	text1,local,class=CODE,merge=1,delta=2,group=3
    19                           	psect	text2,local,class=CODE,merge=1,delta=2,group=1
    20                           	psect	text3,local,class=CODE,merge=1,delta=2,group=1
    21                           	psect	text4,local,class=CODE,merge=1,delta=2,group=1
    22                           	psect	text5,local,class=CODE,merge=1,delta=2,group=2
    23                           	psect	text6,local,class=CODE,merge=1,delta=2,group=1
    24                           	psect	text7,local,class=CODE,merge=1,delta=2,group=3
    25                           	psect	text8,local,class=CODE,merge=1,delta=2,group=1
    26                           	psect	text9,local,class=CODE,merge=1,delta=2,group=3
    27                           	psect	text10,local,class=CODE,merge=1,delta=2,group=3
    28                           	psect	text11,local,class=CODE,merge=1,delta=2,group=3
    29                           	psect	text12,local,class=CODE,merge=1,delta=2,group=3
    30                           	psect	text13,local,class=CODE,merge=1,delta=2,group=3
    31                           	psect	text14,local,class=CODE,merge=1,delta=2,group=3
    32                           	psect	text15,local,class=CODE,merge=1,delta=2,group=3
    33                           	psect	text16,local,class=CODE,merge=1,delta=2,group=2
    34                           	psect	text17,local,class=CODE,merge=1,delta=2,group=2
    35                           	psect	text18,local,class=CODE,merge=1,delta=2,group=2
    36                           	psect	text19,local,class=CODE,merge=1,delta=2,group=2
    37                           	psect	text20,local,class=CODE,merge=1,delta=2,group=2
    38                           	psect	text21,local,class=CODE,merge=1,delta=2,group=2
    39                           	psect	text22,local,class=CODE,merge=1,delta=2,group=2
    40                           	psect	text23,local,class=CODE,merge=1,delta=2,group=2
    41                           	psect	text24,local,class=CODE,merge=1,delta=2,group=2
    42                           	psect	text25,local,class=CODE,merge=1,delta=2
    43                           	psect	text26,local,class=CODE,merge=1,delta=2
    44                           	psect	text27,local,class=CODE,merge=1,delta=2
    45                           	psect	text28,local,class=CODE,merge=1,delta=2
    46                           	psect	text29,local,class=CODE,merge=1,delta=2,group=2
    47                           	psect	text30,local,class=CODE,merge=1,delta=2
    48                           	psect	text31,local,class=CODE,merge=1,delta=2
    49                           	psect	text32,local,class=CODE,merge=1,delta=2
    50                           	psect	text33,local,class=CODE,merge=1,delta=2
    51                           	psect	text34,local,class=CODE,merge=1,delta=2
    52                           	psect	text35,local,class=CODE,merge=1,delta=2
    53                           	psect	intentry,global,class=CODE,delta=2
    54                           	psect	config,global,abs,ovrld,class=CONFIG,space=4,delta=2,noexec
    55                           	psect	text6_split_1,local,class=CODE,merge=1,delta=2
    56                           	dabs	1,0x7E,2
    57     0000                     
    58                           ; Generated 12/10/2023 GMT
    59                           ; 
    60                           ; Copyright © 2023, Microchip Technology Inc. and its subsidiaries ("Microchip")
    61                           ; All rights reserved.
    62                           ; 
    63                           ; This software is developed by Microchip Technology Inc. and its subsidiaries ("Microch
      +                          ip").
    64                           ; 
    65                           ; Redistribution and use in source and binary forms, with or without modification, are
    66                           ; permitted provided that the following conditions are met:
    67                           ; 
    68                           ;     1. Redistributions of source code must retain the above copyright notice, this lis
      +                          t of
    69                           ;        conditions and the following disclaimer.
    70                           ; 
    71                           ;     2. Redistributions in binary form must reproduce the above copyright notice, this 
      +                          list
    72                           ;        of conditions and the following disclaimer in the documentation and/or other
    73                           ;        materials provided with the distribution. Publication is not required when
    74                           ;        this file is used in an embedded application.
    75                           ; 
    76                           ;     3. Microchip's name may not be used to endorse or promote products derived from th
      +                          is
    77                           ;        software without specific prior written permission.
    78                           ; 
    79                           ; THIS SOFTWARE IS PROVIDED BY MICROCHIP "AS IS" AND ANY EXPRESS OR IMPLIED WARRANTIES,
    80                           ; INCLUDING, BUT NOT LIMITED TO, THE IMPLIED WARRANTIES OF MERCHANTABILITY AND FITNESS F
      +                          OR
    81                           ; PURPOSE ARE DISCLAIMED.  IN NO EVENT SHALL MICROCHIP BE LIABLE FOR ANY DIRECT, INDIREC
      +                          T,
    82                           ; INCIDENTAL, SPECIAL, EXEMPLARY, OR CONSEQUENTIAL DAMAGES (INCLUDING BUT NOT LIMITED TO
    83                           ; PROCUREMENT OF SUBSTITUTE GOODS OR SERVICES; LOSS OF USE, DATA OR PROFITS; OR BUSINESS
    84                           ; INTERRUPTION) HOWSOEVER CAUSED AND ON ANY THEORY OF LIABILITY, WHETHER IN CONTRACT, ST
      +                          RICT
    85                           ; LIABILITY, OR TORT (INCLUDING NEGLIGENCE OR OTHERWISE) ARISING IN ANY WAY OUT OF THE U
      +                          SE OF
    86                           ; THIS SOFTWARE, EVEN IF ADVISED OF THE POSSIBILITY OF SUCH DAMAGE.
    87                           ; 
    88                           ; 
    89                           ; Code-generator required, PIC16F877A Definitions
    90                           ; 
    91                           ; SFR Addresses
    92     0000                     	;# 
    93     0001                     	;# 
    94     0002                     	;# 
    95     0003                     	;# 
    96     0004                     	;# 
    97     0005                     	;# 
    98     0006                     	;# 
    99     0007                     	;# 
   100     0008                     	;# 
   101     0009                     	;# 
   102     000A                     	;# 
   103     000B                     	;# 
   104     000C                     	;# 
   105     000D                     	;# 
   106     000E                     	;# 
   107     000E                     	;# 
   108     000F                     	;# 
   109     0010                     	;# 
   110     0011                     	;# 
   111     0012                     	;# 
   112     0013                     	;# 
   113     0014                     	;# 
   114     0015                     	;# 
   115     0015                     	;# 
   116     0016                     	;# 
   117     0017                     	;# 
   118     0018                     	;# 
   119     0019                     	;# 
   120     001A                     	;# 
   121     001B                     	;# 
   122     001B                     	;# 
   123     001C                     	;# 
   124     001D                     	;# 
   125     001E                     	;# 
   126     001F                     	;# 
   127     0081                     	;# 
   128     0085                     	;# 
   129     0086                     	;# 
   130     0087                     	;# 
   131     0088                     	;# 
   132     0089                     	;# 
   133     008C                     	;# 
   134     008D                     	;# 
   135     008E                     	;# 
   136     0091                     	;# 
   137     0092                     	;# 
   138     0093                     	;# 
   139     0094                     	;# 
   140     0098                     	;# 
   141     0099                     	;# 
   142     009C                     	;# 
   143     009D                     	;# 
   144     009E                     	;# 
   145     009F                     	;# 
   146     010C                     	;# 
   147     010D                     	;# 
   148     010E                     	;# 
   149     010F                     	;# 
   150     018C                     	;# 
   151     018D                     	;# 
   152     0000                     	;# 
   153     0001                     	;# 
   154     0002                     	;# 
   155     0003                     	;# 
   156     0004                     	;# 
   157     0005                     	;# 
   158     0006                     	;# 
   159     0007                     	;# 
   160     0008                     	;# 
   161     0009                     	;# 
   162     000A                     	;# 
   163     000B                     	;# 
   164     000C                     	;# 
   165     000D                     	;# 
   166     000E                     	;# 
   167     000E                     	;# 
   168     000F                     	;# 
   169     0010                     	;# 
   170     0011                     	;# 
   171     0012                     	;# 
   172     0013                     	;# 
   173     0014                     	;# 
   174     0015                     	;# 
   175     0015                     	;# 
   176     0016                     	;# 
   177     0017                     	;# 
   178     0018                     	;# 
   179     0019                     	;# 
   180     001A                     	;# 
   181     001B                     	;# 
   182     001B                     	;# 
   183     001C                     	;# 
   184     001D                     	;# 
   185     001E                     	;# 
   186     001F                     	;# 
   187     0081                     	;# 
   188     0085                     	;# 
   189     0086                     	;# 
   190     0087                     	;# 
   191     0088                     	;# 
   192     0089                     	;# 
   193     008C                     	;# 
   194     008D                     	;# 
   195     008E                     	;# 
   196     0091                     	;# 
   197     0092                     	;# 
   198     0093                     	;# 
   199     0094                     	;# 
   200     0098                     	;# 
   201     0099                     	;# 
   202     009C                     	;# 
   203     009D                     	;# 
   204     009E                     	;# 
   205     009F                     	;# 
   206     010C                     	;# 
   207     010D                     	;# 
   208     010E                     	;# 
   209     010F                     	;# 
   210     018C                     	;# 
   211     018D                     	;# 
   212     0000                     	;# 
   213     0001                     	;# 
   214     0002                     	;# 
   215     0003                     	;# 
   216     0004                     	;# 
   217     0005                     	;# 
   218     0006                     	;# 
   219     0007                     	;# 
   220     0008                     	;# 
   221     0009                     	;# 
   222     000A                     	;# 
   223     000B                     	;# 
   224     000C                     	;# 
   225     000D                     	;# 
   226     000E                     	;# 
   227     000E                     	;# 
   228     000F                     	;# 
   229     0010                     	;# 
   230     0011                     	;# 
   231     0012                     	;# 
   232     0013                     	;# 
   233     0014                     	;# 
   234     0015                     	;# 
   235     0015                     	;# 
   236     0016                     	;# 
   237     0017                     	;# 
   238     0018                     	;# 
   239     0019                     	;# 
   240     001A                     	;# 
   241     001B                     	;# 
   242     001B                     	;# 
   243     001C                     	;# 
   244     001D                     	;# 
   245     001E                     	;# 
   246     001F                     	;# 
   247     0081                     	;# 
   248     0085                     	;# 
   249     0086                     	;# 
   250     0087                     	;# 
   251     0088                     	;# 
   252     0089                     	;# 
   253     008C                     	;# 
   254     008D                     	;# 
   255     008E                     	;# 
   256     0091                     	;# 
   257     0092                     	;# 
   258     0093                     	;# 
   259     0094                     	;# 
   260     0098                     	;# 
   261     0099                     	;# 
   262     009C                     	;# 
   263     009D                     	;# 
   264     009E                     	;# 
   265     009F                     	;# 
   266     010C                     	;# 
   267     010D                     	;# 
   268     010E                     	;# 
   269     010F                     	;# 
   270     018C                     	;# 
   271     018D                     	;# 
   272                           
   273                           	psect	idataBANK3
   274     07FA                     __pidataBANK3:
   275                           
   276                           ;initializer for main@F1360
   277     07FA  3408               	retlw	8
   278     07FB  3400               	retlw	0
   279     07FC  341A               	retlw	26
   280     07FD  342C               	retlw	44
   281     07FE  343E               	retlw	62
   282     000C                     _PIR1bits	set	12
   283     000F                     _TMR1H	set	15
   284     000E                     _TMR1L	set	14
   285     0010                     _T1CONbits	set	16
   286     000B                     _INTCONbits	set	11
   287     001E                     _ADRESH	set	30
   288     001F                     _ADCON0bits	set	31
   289     001F                     _ADCON0	set	31
   290     0009                     _PORTE	set	9
   291     0007                     _PORTC	set	7
   292     0006                     _PORTB	set	6
   293     0005                     _PORTA	set	5
   294     0008                     _PORTD	set	8
   295     003B                     _RC3	set	59
   296     003C                     _RC4	set	60
   297     008C                     _PIE1bits	set	140
   298     0081                     _OPTION_REGbits	set	129
   299     009E                     _ADRESL	set	158
   300     009F                     _ADCON1	set	159
   301     0089                     _TRISE	set	137
   302     0088                     _TRISD	set	136
   303     0087                     _TRISC	set	135
   304     0086                     _TRISB	set	134
   305     0085                     _TRISA	set	133
   306                           
   307                           	psect	strings
   308     07BC                     __pstrings:
   309     07BC                     stringtab:
   310     07BC                     __stringtab:
   311                           
   312                           ;	String table - string pointers are 1 byte each
   313     07BC  1BFF               	btfsc	btemp+1,7
   314     07BD  2FC6               	ljmp	stringcode
   315     07BE  1383               	bcf	3,7
   316     07BF  187F               	btfsc	btemp+1,0
   317     07C0  1783               	bsf	3,7
   318     07C1  0800               	movf	0,w
   319     07C2  0A84               	incf	4,f
   320     07C3  1903               	skipnz
   321     07C4  0AFF               	incf	btemp+1,f
   322     07C5  0008               	return
   323     07C6                     stringcode:
   324     07C6                     stringdir:
   325     07C6  3007               	movlw	high stringdir
   326     07C7  008A               	movwf	10
   327     07C8  0804               	movf	4,w
   328     07C9  0A84               	incf	4,f
   329     07CA  0782               	addwf	2,f
   330     07CB                     __stringbase:
   331     07CB  3400               	retlw	0
   332     07CC                     __end_of__stringtab:
   333     07CC                     STR_1:
   334     07CC  3441               	retlw	65	;'A'
   335     07CD  3463               	retlw	99	;'c'
   336     07CE  3465               	retlw	101	;'e'
   337     07CF  346C               	retlw	108	;'l'
   338     07D0  343A               	retlw	58	;':'
   339     07D1  3420               	retlw	32	;' '
   340     07D2  3425               	retlw	37	;'%'
   341     07D3  342E               	retlw	46	;'.'
   342     07D4  3431               	retlw	49	;'1'
   343     07D5  3466               	retlw	102	;'f'
   344     07D6  3425               	retlw	37	;'%'
   345     07D7  3425               	retlw	37	;'%'
   346     07D8  3400               	retlw	0
   347     07D9                     STR_2:
   348     07D9  344D               	retlw	77	;'M'
   349     07DA  346F               	retlw	111	;'o'
   350     07DB  3464               	retlw	100	;'d'
   351     07DC  346F               	retlw	111	;'o'
   352     07DD  343A               	retlw	58	;':'
   353     07DE  3420               	retlw	32	;' '
   354     07DF  344E               	retlw	78	;'N'
   355     07E0  346F               	retlw	111	;'o'
   356     07E1  3472               	retlw	114	;'r'
   357     07E2  346D               	retlw	109	;'m'
   358     07E3  3461               	retlw	97	;'a'
   359     07E4  346C               	retlw	108	;'l'
   360     07E5  3400               	retlw	0
   361     07E6                     STR_3:
   362     07E6  344D               	retlw	77	;'M'
   363     07E7  346F               	retlw	111	;'o'
   364     07E8  3464               	retlw	100	;'d'
   365     07E9  346F               	retlw	111	;'o'
   366     07EA  343A               	retlw	58	;':'
   367     07EB  3420               	retlw	32	;' '
   368     07EC  3454               	retlw	84	;'T'
   369     07ED  3475               	retlw	117	;'u'
   370     07EE  3472               	retlw	114	;'r'
   371     07EF  3462               	retlw	98	;'b'
   372     07F0  346F               	retlw	111	;'o'
   373     07F1  3400               	retlw	0
   374     07F2                     STR_4:
   375     07F2  3469               	retlw	105	;'i'
   376     07F3  346E               	retlw	110	;'n'
   377     07F4  3466               	retlw	102	;'f'
   378     07F5  3400               	retlw	0
   379     07F6                     STR_7:
   380     07F6  346E               	retlw	110	;'n'
   381     07F7  3461               	retlw	97	;'a'
   382     07F8  346E               	retlw	110	;'n'
   383     07F9  3400               	retlw	0
   384     07F2                     
   385                           	psect	cinit
   386     000F                     start_initialization:	
   387                           ; #config settings
   388                           
   389     000F                     __initialization:
   390                           
   391                           ; Initialize objects allocated to BANK3
   392     000F  1683               	bsf	3,5	;RP0=1, select bank3
   393     0010  1703               	bsf	3,6	;RP1=1, select bank3
   394     0011  120A  118A  27FA  120A  118A  	fcall	__pidataBANK3	;fetch initializer
   395     0016  00CB               	movwf	__pdataBANK3& (0+127)
   396     0017  120A  118A  27FB  120A  118A  	fcall	__pidataBANK3+1	;fetch initializer
   397     001C  00CC               	movwf	(__pdataBANK3+1)& (0+127)
   398     001D  120A  118A  27FC  120A  118A  	fcall	__pidataBANK3+2	;fetch initializer
   399     0022  00CD               	movwf	(__pdataBANK3+2)& (0+127)
   400     0023  120A  118A  27FD  120A  118A  	fcall	__pidataBANK3+3	;fetch initializer
   401     0028  00CE               	movwf	(__pdataBANK3+3)& (0+127)
   402     0029  120A  118A  27FE  120A  118A  	fcall	__pidataBANK3+4	;fetch initializer
   403     002E  00CF               	movwf	(__pdataBANK3+4)& (0+127)
   404                           
   405                           ; Clear objects allocated to BANK3
   406     002F  1783               	bsf	3,7	;select IRP bank2
   407     0030  30B7               	movlw	low __pbssBANK3
   408     0031  0084               	movwf	4
   409     0032  30CB               	movlw	low (__pbssBANK3+20)
   410     0033  160A  158A  21D8  120A  118A  	fcall	clear_ram0
   411                           
   412                           ; Clear objects allocated to BANK2
   413     0038  3010               	movlw	low __pbssBANK2
   414     0039  0084               	movwf	4
   415     003A  3060               	movlw	low (__pbssBANK2+80)
   416     003B  160A  158A  21D8  120A  118A  	fcall	clear_ram0
   417                           
   418                           ; Clear objects allocated to BANK1
   419     0040  1683               	bsf	3,5	;RP0=1, select bank1
   420     0041  1303               	bcf	3,6	;RP1=0, select bank1
   421     0042  01E9               	clrf	__pbssBANK1& (0+127)
   422     0043  01EA               	clrf	(__pbssBANK1+1)& (0+127)
   423     0044  01EB               	clrf	(__pbssBANK1+2)& (0+127)
   424     0045  01EC               	clrf	(__pbssBANK1+3)& (0+127)
   425     0046  01ED               	clrf	(__pbssBANK1+4)& (0+127)
   426                           
   427                           ; Clear objects allocated to COMMON
   428     0047  01F0               	clrf	__pbssCOMMON& (0+127)
   429     0048  01F1               	clrf	(__pbssCOMMON+1)& (0+127)
   430     0049  01F2               	clrf	(__pbssCOMMON+2)& (0+127)
   431     004A  01F3               	clrf	(__pbssCOMMON+3)& (0+127)
   432     004B  01F4               	clrf	(__pbssCOMMON+4)& (0+127)
   433     004C                     end_of_initialization:	
   434                           ;End of C runtime variable initialization code
   435                           
   436     004C                     __end_of__initialization:
   437     004C  0183               	clrf	3
   438     004D  160A  118A  2DC3   	ljmp	_main	;jump to C main() function
   439                           
   440                           	psect	bssCOMMON
   441     0070                     __pbssCOMMON:
   442     0070                     _lcd:
   443     0070                     	ds	5
   444                           
   445                           	psect	bssBANK1
   446     00E9                     __pbssBANK1:
   447     00E9                     _width:
   448     00E9                     	ds	2
   449     00EB                     _prec:
   450     00EB                     	ds	2
   451     00ED                     _flags:
   452     00ED                     	ds	1
   453                           
   454                           	psect	bssBANK3
   455     01B7                     __pbssBANK3:
   456     01B7                     floorf@F521:
   457     01B7                     	ds	4
   458     01BB                     ___fpclassifyf@F465:
   459     01BB                     	ds	4
   460     01BF                     _acel_percent:
   461     01BF                     	ds	4
   462     01C3                     _turbo_timer:
   463     01C3                     	ds	4
   464     01C7                     _timer_counter:
   465     01C7                     	ds	2
   466     01C9                     _turbo_active:
   467     01C9                     	ds	1
   468     01CA                     _mode:
   469     01CA                     	ds	1
   470                           
   471                           	psect	dataBANK3
   472     01CB                     __pdataBANK3:
   473     01CB                     main@F1360:
   474     01CB                     	ds	5
   475                           
   476                           	psect	bssBANK2
   477     0110                     __pbssBANK2:
   478     0110                     _dbuf:
   479     0110                     	ds	80
   480                           
   481                           	psect	clrtext
   482     19D8                     clear_ram0:	
   483                           ;	Called with FSR containing the base address, and
   484                           ;	W with the last address+1
   485                           
   486     19D8  0064               	clrwdt	;clear the watchdog before getting into this loop
   487     19D9                     clrloop0:
   488     19D9  0180               	clrf	0	;clear RAM location pointed to by FSR
   489     19DA  0A84               	incf	4,f	;increment pointer
   490     19DB  0604               	xorwf	4,w	;XOR with final address
   491     19DC  1903               	btfsc	3,2	;have we reached the end yet?
   492     19DD  3400               	retlw	0	;all done for this memory range, return
   493     19DE  0604               	xorwf	4,w	;XOR again to restore value
   494     19DF  29D9               	goto	clrloop0	;do the next byte
   495                           
   496                           	psect	cstackBANK3
   497     0190                     __pcstackBANK3:
   498     0190                     sprintf@s:
   499                           
   500                           ; 1 bytes @ 0x0
   501     0190                     	ds	1
   502     0191                     sprintf@ap:
   503                           
   504                           ; 1 bytes @ 0x1
   505     0191                     	ds	1
   506     0192                     sprintf@f:
   507                           
   508                           ; 11 bytes @ 0x2
   509     0192                     	ds	11
   510     019D                     ??_main:
   511                           
   512                           ; 1 bytes @ 0xD
   513     019D                     	ds	3
   514     01A0                     main@buffer:
   515                           
   516                           ; 16 bytes @ 0x10
   517     01A0                     	ds	16
   518     01B0                     main@lcd:
   519                           
   520                           ; 5 bytes @ 0x20
   521     01B0                     	ds	5
   522     01B5                     main@adc_value:
   523                           
   524                           ; 2 bytes @ 0x25
   525     01B5                     	ds	2
   526                           
   527                           	psect	cstackBANK1
   528     00A0                     __pcstackBANK1:
   529     00A0                     ?_efgtoa:
   530     00A0                     efgtoa@f:	
   531                           ; 1 bytes @ 0x0
   532                           
   533                           
   534                           ; 4 bytes @ 0x0
   535     00A0                     	ds	4
   536     00A4                     efgtoa@c:
   537                           
   538                           ; 1 bytes @ 0x4
   539     00A4                     	ds	1
   540     00A5                     ??_efgtoa:
   541                           
   542                           ; 1 bytes @ 0x5
   543     00A5                     	ds	4
   544     00A9                     efgtoa@ne:
   545                           
   546                           ; 2 bytes @ 0x9
   547     00A9                     	ds	2
   548     00AB                     efgtoa@p:
   549                           
   550                           ; 2 bytes @ 0xB
   551     00AB                     	ds	2
   552     00AD                     efgtoa@t:
   553                           
   554                           ; 2 bytes @ 0xD
   555     00AD                     	ds	2
   556     00AF                     _efgtoa$921:
   557                           
   558                           ; 2 bytes @ 0xF
   559     00AF                     	ds	2
   560     00B1                     efgtoa@pp:
   561                           
   562                           ; 1 bytes @ 0x11
   563     00B1                     	ds	1
   564     00B2                     efgtoa@mode:
   565                           
   566                           ; 1 bytes @ 0x12
   567     00B2                     	ds	1
   568     00B3                     efgtoa@nmode:
   569                           
   570                           ; 1 bytes @ 0x13
   571     00B3                     	ds	1
   572     00B4                     efgtoa@d:
   573                           
   574                           ; 2 bytes @ 0x14
   575     00B4                     	ds	2
   576     00B6                     efgtoa@m:
   577                           
   578                           ; 2 bytes @ 0x16
   579     00B6                     	ds	2
   580     00B8                     efgtoa@fp:
   581                           
   582                           ; 1 bytes @ 0x18
   583     00B8                     	ds	1
   584     00B9                     efgtoa@e:
   585                           
   586                           ; 2 bytes @ 0x19
   587     00B9                     	ds	2
   588     00BB                     efgtoa@w:
   589                           
   590                           ; 2 bytes @ 0x1B
   591     00BB                     	ds	2
   592     00BD                     efgtoa@ou:
   593                           
   594                           ; 4 bytes @ 0x1D
   595     00BD                     	ds	4
   596     00C1                     efgtoa@i:
   597                           
   598                           ; 2 bytes @ 0x21
   599     00C1                     	ds	2
   600     00C3                     efgtoa@h:
   601                           
   602                           ; 4 bytes @ 0x23
   603     00C3                     	ds	4
   604     00C7                     efgtoa@l:
   605                           
   606                           ; 4 bytes @ 0x27
   607     00C7                     	ds	4
   608     00CB                     efgtoa@sign:
   609                           
   610                           ; 1 bytes @ 0x2B
   611     00CB                     	ds	1
   612     00CC                     efgtoa@g:
   613                           
   614                           ; 4 bytes @ 0x2C
   615     00CC                     	ds	4
   616     00D0                     efgtoa@n:
   617                           
   618                           ; 2 bytes @ 0x30
   619     00D0                     	ds	2
   620     00D2                     efgtoa@u:
   621                           
   622                           ; 4 bytes @ 0x32
   623     00D2                     	ds	4
   624     00D6                     ?_vfpfcnvrt:
   625     00D6                     vfpfcnvrt@fmt:	
   626                           ; 1 bytes @ 0x36
   627                           
   628                           
   629                           ; 1 bytes @ 0x36
   630     00D6                     	ds	1
   631     00D7                     vfpfcnvrt@ap:
   632                           
   633                           ; 1 bytes @ 0x37
   634     00D7                     	ds	1
   635     00D8                     vfpfcnvrt@convarg:
   636                           
   637                           ; 4 bytes @ 0x38
   638     00D8                     	ds	4
   639     00DC                     vfpfcnvrt@c:
   640                           
   641                           ; 1 bytes @ 0x3C
   642     00DC                     	ds	1
   643     00DD                     vfpfcnvrt@fp:
   644                           
   645                           ; 1 bytes @ 0x3D
   646     00DD                     	ds	1
   647     00DE                     vfpfcnvrt@cp:
   648                           
   649                           ; 1 bytes @ 0x3E
   650     00DE                     	ds	1
   651     00DF                     ?_vfprintf:
   652     00DF                     vfprintf@fmt:	
   653                           ; 2 bytes @ 0x3F
   654                           
   655                           
   656                           ; 1 bytes @ 0x3F
   657     00DF                     	ds	1
   658     00E0                     vfprintf@ap:
   659                           
   660                           ; 1 bytes @ 0x40
   661     00E0                     	ds	1
   662     00E1                     vfprintf@fp:
   663                           
   664                           ; 1 bytes @ 0x41
   665     00E1                     	ds	1
   666     00E2                     vfprintf@cfmt:
   667                           
   668                           ; 1 bytes @ 0x42
   669     00E2                     	ds	1
   670     00E3                     ?_sprintf:
   671     00E3                     sprintf@fmt:	
   672                           ; 2 bytes @ 0x43
   673                           
   674                           
   675                           ; 1 bytes @ 0x43
   676     00E3                     	ds	5
   677     00E8                     ??_sprintf:
   678                           
   679                           ; 1 bytes @ 0x48
   680     00E8                     	ds	1
   681                           
   682                           	psect	cstackCOMMON
   683     0075                     __pcstackCOMMON:
   684     0075                     ?_putch:
   685     0075                     ?_LCD_Out:	
   686                           ; 1 bytes @ 0x0
   687                           
   688     0075                     ?_LCD_Write:	
   689                           ; 1 bytes @ 0x0
   690                           
   691     0075                     ?_LCD_putc:	
   692                           ; 1 bytes @ 0x0
   693                           
   694     0075                     ?_init_ADC:	
   695                           ; 1 bytes @ 0x0
   696                           
   697     0075                     ?_init_interrupt:	
   698                           ; 1 bytes @ 0x0
   699                           
   700     0075                     ?_init_timer:	
   701                           ; 1 bytes @ 0x0
   702                           
   703     0075                     ?_ISR:	
   704                           ; 1 bytes @ 0x0
   705                           
   706     0075                     ??_ISR:	
   707                           ; 1 bytes @ 0x0
   708                           
   709     0075                     ?_main:	
   710                           ; 1 bytes @ 0x0
   711                           
   712     0075                     putch@c:	
   713                           ; 2 bytes @ 0x0
   714                           
   715                           
   716                           ; 1 bytes @ 0x0
   717     0075                     	ds	5
   718                           
   719                           	psect	cstackBANK0
   720     0020                     __pcstackBANK0:
   721     0020                     ?___fleq:
   722     0020                     ?_strcpy:	
   723                           ; 1 bit 
   724                           
   725     0020                     ?_memcpy:	
   726                           ; 1 bytes @ 0x0
   727                           
   728     0020                     ??_putch:	
   729                           ; 1 bytes @ 0x0
   730                           
   731     0020                     ??_LCD_Out:	
   732                           ; 1 bytes @ 0x0
   733                           
   734     0020                     ??_init_ADC:	
   735                           ; 1 bytes @ 0x0
   736                           
   737     0020                     ??_init_interrupt:	
   738                           ; 1 bytes @ 0x0
   739                           
   740     0020                     ??_init_timer:	
   741                           ; 1 bytes @ 0x0
   742                           
   743     0020                     ?__Umul8_16:	
   744                           ; 1 bytes @ 0x0
   745                           
   746     0020                     ?_fputc:	
   747                           ; 2 bytes @ 0x0
   748                           
   749     0020                     ?___fpclassifyf:	
   750                           ; 2 bytes @ 0x0
   751                           
   752     0020                     ?_read_ADC:	
   753                           ; 2 bytes @ 0x0
   754                           
   755     0020                     ?___wmul:	
   756                           ; 2 bytes @ 0x0
   757                           
   758     0020                     ?_labs:	
   759                           ; 2 bytes @ 0x0
   760                           
   761     0020                     ?___flneg:	
   762                           ; 4 bytes @ 0x0
   763                           
   764     0020                     ?___fltol:	
   765                           ; 4 bytes @ 0x0
   766                           
   767     0020                     ?___fladd:	
   768                           ; 4 bytes @ 0x0
   769                           
   770     0020                     ?___xxtofl:	
   771                           ; 4 bytes @ 0x0
   772                           
   773     0020                     __Umul8_16@multiplicand:	
   774                           ; 4 bytes @ 0x0
   775                           
   776     0020                     memcpy@s1:	
   777                           ; 1 bytes @ 0x0
   778                           
   779     0020                     strcpy@src:	
   780                           ; 1 bytes @ 0x0
   781                           
   782     0020                     ___wmul@multiplier:	
   783                           ; 1 bytes @ 0x0
   784                           
   785     0020                     fputc@c:	
   786                           ; 2 bytes @ 0x0
   787                           
   788     0020                     ___fleq@ff1:	
   789                           ; 2 bytes @ 0x0
   790                           
   791     0020                     ___flneg@f1:	
   792                           ; 4 bytes @ 0x0
   793                           
   794     0020                     ___fltol@f1:	
   795                           ; 4 bytes @ 0x0
   796                           
   797     0020                     ___fladd@b:	
   798                           ; 4 bytes @ 0x0
   799                           
   800     0020                     ___xxtofl@val:	
   801                           ; 4 bytes @ 0x0
   802                           
   803     0020                     ___fpclassifyf@x:	
   804                           ; 4 bytes @ 0x0
   805                           
   806     0020                     labs@a:	
   807                           ; 4 bytes @ 0x0
   808                           
   809                           
   810                           ; 4 bytes @ 0x0
   811     0020                     	ds	1
   812     0021                     ??_strcpy:
   813     0021                     strcpy@d:	
   814                           ; 1 bytes @ 0x1
   815                           
   816     0021                     memcpy@n:	
   817                           ; 1 bytes @ 0x1
   818                           
   819                           
   820                           ; 2 bytes @ 0x1
   821     0021                     	ds	1
   822     0022                     ??__Umul8_16:
   823     0022                     ??_read_ADC:	
   824                           ; 1 bytes @ 0x2
   825                           
   826     0022                     LCD_Out@c:	
   827                           ; 1 bytes @ 0x2
   828                           
   829     0022                     fputc@fp:	
   830                           ; 1 bytes @ 0x2
   831                           
   832     0022                     strcpy@dest:	
   833                           ; 1 bytes @ 0x2
   834                           
   835     0022                     ___wmul@multiplicand:	
   836                           ; 1 bytes @ 0x2
   837                           
   838                           
   839                           ; 2 bytes @ 0x2
   840     0022                     	ds	1
   841     0023                     ??_fputc:
   842     0023                     ??_memcpy:	
   843                           ; 1 bytes @ 0x3
   844                           
   845     0023                     ??_LCD_Write:	
   846                           ; 1 bytes @ 0x3
   847                           
   848     0023                     ??_LCD_putc:	
   849                           ; 1 bytes @ 0x3
   850                           
   851     0023                     memcpy@tmp:	
   852                           ; 1 bytes @ 0x3
   853                           
   854                           
   855                           ; 1 bytes @ 0x3
   856     0023                     	ds	1
   857     0024                     ??___fpclassifyf:
   858     0024                     ??_labs:	
   859                           ; 1 bytes @ 0x4
   860                           
   861     0024                     ??___wmul:	
   862                           ; 1 bytes @ 0x4
   863                           
   864     0024                     ??___flneg:	
   865                           ; 1 bytes @ 0x4
   866                           
   867     0024                     ??___fltol:	
   868                           ; 1 bytes @ 0x4
   869                           
   870     0024                     ??___xxtofl:	
   871                           ; 1 bytes @ 0x4
   872                           
   873     0024                     memcpy@d1:	
   874                           ; 1 bytes @ 0x4
   875                           
   876     0024                     ___wmul@product:	
   877                           ; 1 bytes @ 0x4
   878                           
   879     0024                     __Umul8_16@product:	
   880                           ; 2 bytes @ 0x4
   881                           
   882     0024                     ___fleq@ff2:	
   883                           ; 2 bytes @ 0x4
   884                           
   885     0024                     ___fladd@a:	
   886                           ; 4 bytes @ 0x4
   887                           
   888                           
   889                           ; 4 bytes @ 0x4
   890     0024                     	ds	1
   891     0025                     LCD_Write@c:
   892     0025                     LCD_putc@c:	
   893                           ; 1 bytes @ 0x5
   894                           
   895     0025                     memcpy@d:	
   896                           ; 1 bytes @ 0x5
   897                           
   898                           
   899                           ; 1 bytes @ 0x5
   900     0025                     	ds	1
   901     0026                     ?_LCD_Init:
   902     0026                     ?_LCD_putrs:	
   903                           ; 1 bytes @ 0x6
   904                           
   905     0026                     ?_read_prec_or_width:	
   906                           ; 1 bytes @ 0x6
   907                           
   908     0026                     read_prec_or_width@ap:	
   909                           ; 2 bytes @ 0x6
   910                           
   911     0026                     memcpy@s:	
   912                           ; 1 bytes @ 0x6
   913                           
   914     0026                     LCD_putrs@a:	
   915                           ; 1 bytes @ 0x6
   916                           
   917     0026                     __Umul8_16@word_mpld:	
   918                           ; 2 bytes @ 0x6
   919                           
   920     0026                     LCD_Init@display:	
   921                           ; 2 bytes @ 0x6
   922                           
   923                           
   924                           ; 5 bytes @ 0x6
   925     0026                     	ds	2
   926     0028                     ??_LCD_putrs:
   927     0028                     ??___fleq:	
   928                           ; 1 bytes @ 0x8
   929                           
   930     0028                     ??___fladd:	
   931                           ; 1 bytes @ 0x8
   932                           
   933     0028                     ??_read_prec_or_width:	
   934                           ; 1 bytes @ 0x8
   935                           
   936     0028                     ?_fputs:	
   937                           ; 1 bytes @ 0x8
   938                           
   939     0028                     ___fltol@sign1:	
   940                           ; 2 bytes @ 0x8
   941                           
   942     0028                     __Umul8_16@multiplier:	
   943                           ; 1 bytes @ 0x8
   944                           
   945     0028                     ___xxtofl@sign:	
   946                           ; 1 bytes @ 0x8
   947                           
   948     0028                     read_prec_or_width@c:	
   949                           ; 1 bytes @ 0x8
   950                           
   951     0028                     fputs@fp:	
   952                           ; 1 bytes @ 0x8
   953                           
   954                           
   955                           ; 1 bytes @ 0x8
   956     0028                     	ds	1
   957     0029                     ??_fputs:
   958     0029                     ___fltol@exp1:	
   959                           ; 1 bytes @ 0x9
   960                           
   961     0029                     ___xxtofl@exp:	
   962                           ; 1 bytes @ 0x9
   963                           
   964     0029                     read_prec_or_width@n:	
   965                           ; 1 bytes @ 0x9
   966                           
   967                           
   968                           ; 2 bytes @ 0x9
   969     0029                     	ds	1
   970     002A                     ___fpclassifyf@e:
   971     002A                     ___xxtofl@arg:	
   972                           ; 2 bytes @ 0xA
   973                           
   974                           
   975                           ; 4 bytes @ 0xA
   976     002A                     	ds	1
   977     002B                     ??_LCD_Init:
   978     002B                     read_prec_or_width@fmt:	
   979                           ; 1 bytes @ 0xB
   980                           
   981     002B                     fputs@s:	
   982                           ; 1 bytes @ 0xB
   983                           
   984     002B                     LCD_putrs@i:	
   985                           ; 1 bytes @ 0xB
   986                           
   987                           
   988                           ; 2 bytes @ 0xB
   989     002B                     	ds	1
   990     002C                     fputs@c:
   991     002C                     ___fpclassifyf@u:	
   992                           ; 1 bytes @ 0xC
   993                           
   994                           
   995                           ; 4 bytes @ 0xC
   996     002C                     	ds	1
   997     002D                     LCD_Init@cmd:
   998     002D                     fputs@i:	
   999                           ; 1 bytes @ 0xD
  1000                           
  1001                           
  1002                           ; 2 bytes @ 0xD
  1003     002D                     	ds	1
  1004     002E                     ?___fldiv:
  1005     002E                     ___fldiv@a:	
  1006                           ; 4 bytes @ 0xE
  1007                           
  1008                           
  1009                           ; 4 bytes @ 0xE
  1010     002E                     	ds	1
  1011     002F                     ?_pad:
  1012     002F                     pad@buf:	
  1013                           ; 1 bytes @ 0xF
  1014                           
  1015                           
  1016                           ; 1 bytes @ 0xF
  1017     002F                     	ds	1
  1018     0030                     ___fladd@signs:
  1019     0030                     pad@p:	
  1020                           ; 1 bytes @ 0x10
  1021                           
  1022                           
  1023                           ; 2 bytes @ 0x10
  1024     0030                     	ds	1
  1025     0031                     ___fladd@aexp:
  1026                           
  1027                           ; 1 bytes @ 0x11
  1028     0031                     	ds	1
  1029     0032                     ??_pad:
  1030     0032                     ___fladd@bexp:	
  1031                           ; 1 bytes @ 0x12
  1032                           
  1033     0032                     ___fldiv@b:	
  1034                           ; 1 bytes @ 0x12
  1035                           
  1036                           
  1037                           ; 4 bytes @ 0x12
  1038     0032                     	ds	1
  1039     0033                     ___fladd@grs:
  1040     0033                     pad@i:	
  1041                           ; 1 bytes @ 0x13
  1042                           
  1043                           
  1044                           ; 2 bytes @ 0x13
  1045     0033                     	ds	2
  1046     0035                     pad@fp:
  1047                           
  1048                           ; 1 bytes @ 0x15
  1049     0035                     	ds	1
  1050     0036                     ??___fldiv:
  1051                           
  1052                           ; 1 bytes @ 0x16
  1053     0036                     	ds	5
  1054     003B                     ___fldiv@rem:
  1055                           
  1056                           ; 4 bytes @ 0x1B
  1057     003B                     	ds	4
  1058     003F                     ___fldiv@sign:
  1059                           
  1060                           ; 1 bytes @ 0x1F
  1061     003F                     	ds	1
  1062     0040                     ___fldiv@new_exp:
  1063                           
  1064                           ; 2 bytes @ 0x20
  1065     0040                     	ds	2
  1066     0042                     ___fldiv@grs:
  1067                           
  1068                           ; 4 bytes @ 0x22
  1069     0042                     	ds	4
  1070     0046                     ___fldiv@bexp:
  1071                           
  1072                           ; 1 bytes @ 0x26
  1073     0046                     	ds	1
  1074     0047                     ___fldiv@aexp:
  1075                           
  1076                           ; 1 bytes @ 0x27
  1077     0047                     	ds	1
  1078     0048                     ?_floorf:
  1079     0048                     ?___flmul:	
  1080                           ; 4 bytes @ 0x28
  1081                           
  1082     0048                     ___flmul@b:	
  1083                           ; 4 bytes @ 0x28
  1084                           
  1085     0048                     floorf@x:	
  1086                           ; 4 bytes @ 0x28
  1087                           
  1088                           
  1089                           ; 4 bytes @ 0x28
  1090     0048                     	ds	4
  1091     004C                     ??_floorf:
  1092     004C                     ___flmul@a:	
  1093                           ; 1 bytes @ 0x2C
  1094                           
  1095                           
  1096                           ; 4 bytes @ 0x2C
  1097     004C                     	ds	4
  1098     0050                     ??___flmul:
  1099                           
  1100                           ; 1 bytes @ 0x30
  1101     0050                     	ds	2
  1102     0052                     floorf@m:
  1103                           
  1104                           ; 4 bytes @ 0x32
  1105     0052                     	ds	3
  1106     0055                     ___flmul@sign:
  1107                           
  1108                           ; 1 bytes @ 0x35
  1109     0055                     	ds	1
  1110     0056                     ___flmul@aexp:
  1111     0056                     floorf@e:	
  1112                           ; 1 bytes @ 0x36
  1113                           
  1114                           
  1115                           ; 2 bytes @ 0x36
  1116     0056                     	ds	1
  1117     0057                     ___flmul@grs:
  1118                           
  1119                           ; 4 bytes @ 0x37
  1120     0057                     	ds	1
  1121     0058                     floorf@u:
  1122                           
  1123                           ; 4 bytes @ 0x38
  1124     0058                     	ds	3
  1125     005B                     ___flmul@bexp:
  1126                           
  1127                           ; 1 bytes @ 0x3B
  1128     005B                     	ds	1
  1129     005C                     ___flmul@prod:
  1130                           
  1131                           ; 4 bytes @ 0x3C
  1132     005C                     	ds	4
  1133     0060                     ___flmul@temp:
  1134                           
  1135                           ; 2 bytes @ 0x40
  1136     0060                     	ds	2
  1137     0062                     ?___flge:
  1138     0062                     ?___flsub:	
  1139                           ; 1 bit 
  1140                           
  1141     0062                     ___flge@ff1:	
  1142                           ; 4 bytes @ 0x42
  1143                           
  1144     0062                     ___flsub@a:	
  1145                           ; 4 bytes @ 0x42
  1146                           
  1147                           
  1148                           ; 4 bytes @ 0x42
  1149     0062                     	ds	4
  1150     0066                     ___flge@ff2:
  1151     0066                     ___flsub@b:	
  1152                           ; 4 bytes @ 0x46
  1153                           
  1154                           
  1155                           ; 4 bytes @ 0x46
  1156     0066                     	ds	4
  1157     006A                     ??___flge:
  1158     006A                     ??___flsub:	
  1159                           ; 1 bytes @ 0x4A
  1160                           
  1161                           
  1162                           ; 1 bytes @ 0x4A
  1163     006A                     	ds	4
  1164     006E                     ??_vfpfcnvrt:
  1165                           
  1166                           ; 1 bytes @ 0x4E
  1167     006E                     	ds	2
  1168     0070                     ??_vfprintf:
  1169                           
  1170                           	psect	maintext
  1171     15C3                     __pmaintext:	
  1172                           ; 1 bytes @ 0x50
  1173 ;;
  1174 ;;Main: autosize = 0, tempsize = 3, incstack = 0, save=0
  1175 ;;
  1176 ;; *************** function _main *****************
  1177 ;; Defined at:
  1178 ;;		line 102 in file "ECU.c"
  1179 ;; Parameters:    Size  Location     Type
  1180 ;;		None
  1181 ;; Auto vars:     Size  Location     Type
  1182 ;;  adc_value       2   37[BANK3 ] unsigned int 
  1183 ;;  buffer         16   16[BANK3 ] unsigned char [16]
  1184 ;;  lcd             5   32[BANK3 ] struct .
  1185 ;; Return value:  Size  Location     Type
  1186 ;;                  2  162[None  ] int 
  1187 ;; Registers used:
  1188 ;;		wreg, fsr0l, fsr0h, status,2, status,0, btemp+1, pclath, cstack
  1189 ;; Tracked objects:
  1190 ;;		On entry : B00/0
  1191 ;;		On exit  : 0/0
  1192 ;;		Unchanged: 0/0
  1193 ;; Data sizes:     COMMON   BANK0   BANK1   BANK3   BANK2
  1194 ;;      Params:         0       0       0       0       0
  1195 ;;      Locals:         0       0       0      23       0
  1196 ;;      Temps:          0       0       0       3       0
  1197 ;;      Totals:         0       0       0      26       0
  1198 ;;Total ram usage:       26 bytes
  1199 ;; Hardware stack levels required when called: 9
  1200 ;; This function calls:
  1201 ;;		_LCD_Init
  1202 ;;		_LCD_Write
  1203 ;;		_LCD_putrs
  1204 ;;		___fldiv
  1205 ;;		___fleq
  1206 ;;		___flge
  1207 ;;		___flmul
  1208 ;;		___xxtofl
  1209 ;;		_init_ADC
  1210 ;;		_init_interrupt
  1211 ;;		_init_timer
  1212 ;;		_read_ADC
  1213 ;;		_sprintf
  1214 ;; This function is called by:
  1215 ;;		Startup code after reset
  1216 ;; This function uses a non-reentrant model
  1217 ;;
  1218                           
  1219     15C3                     _main:	
  1220                           ;psect for function _main
  1221                           
  1222     15C3                     l4577:	
  1223                           ;incstack = 0
  1224 ;; hardware stack exceeded
  1225                           ; Regs used in _main: [wreg-fsr0h+status,2+status,0+btemp+1+pclath+cstack]
  1226                           
  1227                           
  1228                           ;ECU.c: 103:     TRISC = 0x00;
  1229     15C3  1683               	bsf	3,5	;RP0=1, select bank1
  1230     15C4  1303               	bcf	3,6	;RP1=0, select bank1
  1231     15C5  0187               	clrf	7	;volatile
  1232     15C6                     l4579:
  1233                           
  1234                           ;ECU.c: 104:     RC3 = 1;
  1235     15C6  1283               	bcf	3,5	;RP0=0, select bank0
  1236     15C7  1303               	bcf	3,6	;RP1=0, select bank0
  1237     15C8  1587               	bsf	7,3	;volatile
  1238     15C9                     l4581:
  1239                           
  1240                           ;ECU.c: 107:     LCD lcd = { &PORTD, 2, 3, 4, 5, 6, 7 };
  1241     15C9  30B0               	movlw	main@lcd& (0+255)
  1242     15CA  0084               	movwf	4
  1243     15CB  1683               	bsf	3,5	;RP0=1, select bank3
  1244     15CC  1703               	bsf	3,6	;RP1=1, select bank3
  1245     15CD  084B               	movf	main@F1360^(0+384),w
  1246     15CE  1783               	bsf	3,7	;select IRP bank3
  1247     15CF  0080               	movwf	0
  1248     15D0  0A84               	incf	4,f
  1249     15D1  084C               	movf	(main@F1360^(0+384)+1),w
  1250     15D2  0080               	movwf	0
  1251     15D3  0A84               	incf	4,f
  1252     15D4  084D               	movf	(main@F1360^(0+384)+2),w
  1253     15D5  0080               	movwf	0
  1254     15D6  0A84               	incf	4,f
  1255     15D7  084E               	movf	(main@F1360^(0+384)+3),w
  1256     15D8  0080               	movwf	0
  1257     15D9  0A84               	incf	4,f
  1258     15DA  084F               	movf	(main@F1360^(0+384)+4),w
  1259     15DB  0080               	movwf	0
  1260     15DC                     l4583:
  1261                           
  1262                           ;ECU.c: 108:     LCD_Init(lcd);
  1263     15DC  3026               	movlw	LCD_Init@display& (0+255)
  1264     15DD  0084               	movwf	4
  1265     15DE  0830               	movf	main@lcd^(0+384),w
  1266     15DF  1383               	bcf	3,7	;select IRP bank0
  1267     15E0  0080               	movwf	0
  1268     15E1  0A84               	incf	4,f
  1269     15E2  0831               	movf	(main@lcd^(0+384)+1),w
  1270     15E3  0080               	movwf	0
  1271     15E4  0A84               	incf	4,f
  1272     15E5  0832               	movf	(main@lcd^(0+384)+2),w
  1273     15E6  0080               	movwf	0
  1274     15E7  0A84               	incf	4,f
  1275     15E8  0833               	movf	(main@lcd^(0+384)+3),w
  1276     15E9  0080               	movwf	0
  1277     15EA  0A84               	incf	4,f
  1278     15EB  0834               	movf	(main@lcd^(0+384)+4),w
  1279     15EC  0080               	movwf	0
  1280     15ED  160A  118A  215E  160A  118A  	fcall	_LCD_Init
  1281     15F2                     l4585:
  1282                           
  1283                           ;ECU.c: 109:     init_interrupt();
  1284     15F2  160A  158A  21D0  160A  118A  	fcall	_init_interrupt
  1285     15F7                     l4587:
  1286                           
  1287                           ;ECU.c: 110:     init_ADC();
  1288     15F7  160A  118A  2000  160A  118A  	fcall	_init_ADC
  1289     15FC                     l4589:
  1290                           
  1291                           ;ECU.c: 111:     init_timer();
  1292     15FC  160A  158A  21E0  160A  118A  	fcall	_init_timer
  1293     1601                     l4591:
  1294                           
  1295                           ;ECU.c: 116:         unsigned int adc_value = read_ADC();
  1296     1601  160A  158A  21F8  160A  118A  	fcall	_read_ADC
  1297     1606  1283               	bcf	3,5	;RP0=0, select bank0
  1298     1607  1303               	bcf	3,6	;RP1=0, select bank0
  1299     1608  0821               	movf	?_read_ADC+1,w
  1300     1609  1683               	bsf	3,5	;RP0=1, select bank3
  1301     160A  1703               	bsf	3,6	;RP1=1, select bank3
  1302     160B  00B6               	movwf	(main@adc_value+1)^(0+384)
  1303     160C  1283               	bcf	3,5	;RP0=0, select bank0
  1304     160D  1303               	bcf	3,6	;RP1=0, select bank0
  1305     160E  0820               	movf	?_read_ADC,w
  1306     160F  1683               	bsf	3,5	;RP0=1, select bank3
  1307     1610  1703               	bsf	3,6	;RP1=1, select bank3
  1308     1611  00B5               	movwf	main@adc_value^(0+384)
  1309     1612                     l4593:
  1310                           
  1311                           ;ECU.c: 118:         if (mode == 0) {
  1312     1612  084A               	movf	_mode^(0+384),w	;volatile
  1313     1613  1D03               	btfss	3,2
  1314     1614  2E16               	goto	u7571
  1315     1615  2E17               	goto	u7570
  1316     1616                     u7571:
  1317     1616  2EAB               	goto	l166
  1318     1617                     u7570:
  1319     1617                     l4595:
  1320                           
  1321                           ;ECU.c: 119:             RC3 = 1;
  1322     1617  1283               	bcf	3,5	;RP0=0, select bank0
  1323     1618  1303               	bcf	3,6	;RP1=0, select bank0
  1324     1619  1587               	bsf	7,3	;volatile
  1325                           
  1326                           ;ECU.c: 120:             RC4 = 0;
  1327     161A  1207               	bcf	7,4	;volatile
  1328     161B                     l4597:
  1329                           
  1330                           ;ECU.c: 121:             acel_percent = (adc_value / 889.56f) * 100;
  1331     161B  3042               	movlw	66
  1332     161C  00CB               	movwf	___flmul@b+3
  1333     161D  30C8               	movlw	200
  1334     161E  00CA               	movwf	___flmul@b+2
  1335     161F  3000               	movlw	0
  1336     1620  00C9               	movwf	___flmul@b+1
  1337     1621  3000               	movlw	0
  1338     1622  00C8               	movwf	___flmul@b
  1339     1623  3044               	movlw	68
  1340     1624  00B1               	movwf	___fldiv@a+3
  1341     1625  305E               	movlw	94
  1342     1626  00B0               	movwf	___fldiv@a+2
  1343     1627  3063               	movlw	99
  1344     1628  00AF               	movwf	___fldiv@a+1
  1345     1629  30D7               	movlw	215
  1346     162A  00AE               	movwf	___fldiv@a
  1347     162B  1683               	bsf	3,5	;RP0=1, select bank3
  1348     162C  1703               	bsf	3,6	;RP1=1, select bank3
  1349     162D  0835               	movf	main@adc_value^(0+384),w
  1350     162E  1283               	bcf	3,5	;RP0=0, select bank0
  1351     162F  1303               	bcf	3,6	;RP1=0, select bank0
  1352     1630  00A0               	movwf	___xxtofl@val
  1353     1631  1683               	bsf	3,5	;RP0=1, select bank3
  1354     1632  1703               	bsf	3,6	;RP1=1, select bank3
  1355     1633  0836               	movf	(main@adc_value+1)^(0+384),w
  1356     1634  1283               	bcf	3,5	;RP0=0, select bank0
  1357     1635  1303               	bcf	3,6	;RP1=0, select bank0
  1358     1636  00A1               	movwf	___xxtofl@val+1
  1359     1637  01A2               	clrf	___xxtofl@val+2
  1360     1638  01A3               	clrf	___xxtofl@val+3
  1361     1639  3000               	movlw	0
  1362     163A  160A  158A  2746  160A  118A  	fcall	___xxtofl
  1363     163F  1283               	bcf	3,5	;RP0=0, select bank0
  1364     1640  1303               	bcf	3,6	;RP1=0, select bank0
  1365     1641  0823               	movf	?___xxtofl+3,w
  1366     1642  00B5               	movwf	___fldiv@b+3
  1367     1643  0822               	movf	?___xxtofl+2,w
  1368     1644  00B4               	movwf	___fldiv@b+2
  1369     1645  0821               	movf	?___xxtofl+1,w
  1370     1646  00B3               	movwf	___fldiv@b+1
  1371     1647  0820               	movf	?___xxtofl,w
  1372     1648  00B2               	movwf	___fldiv@b
  1373     1649  120A  118A  25ED  160A  118A  	fcall	___fldiv
  1374     164E  1283               	bcf	3,5	;RP0=0, select bank0
  1375     164F  1303               	bcf	3,6	;RP1=0, select bank0
  1376     1650  0831               	movf	?___fldiv+3,w
  1377     1651  00CF               	movwf	___flmul@a+3
  1378     1652  0830               	movf	?___fldiv+2,w
  1379     1653  00CE               	movwf	___flmul@a+2
  1380     1654  082F               	movf	?___fldiv+1,w
  1381     1655  00CD               	movwf	___flmul@a+1
  1382     1656  082E               	movf	?___fldiv,w
  1383     1657  00CC               	movwf	___flmul@a
  1384     1658  120A  118A  2050  160A  118A  	fcall	___flmul
  1385     165D  1283               	bcf	3,5	;RP0=0, select bank0
  1386     165E  1303               	bcf	3,6	;RP1=0, select bank0
  1387     165F  084B               	movf	?___flmul+3,w
  1388     1660  1683               	bsf	3,5	;RP0=1, select bank3
  1389     1661  1703               	bsf	3,6	;RP1=1, select bank3
  1390     1662  00C2               	movwf	(_acel_percent+3)^(0+384)	;volatile
  1391     1663  1283               	bcf	3,5	;RP0=0, select bank0
  1392     1664  1303               	bcf	3,6	;RP1=0, select bank0
  1393     1665  084A               	movf	?___flmul+2,w
  1394     1666  1683               	bsf	3,5	;RP0=1, select bank3
  1395     1667  1703               	bsf	3,6	;RP1=1, select bank3
  1396     1668  00C1               	movwf	(_acel_percent+2)^(0+384)	;volatile
  1397     1669  1283               	bcf	3,5	;RP0=0, select bank0
  1398     166A  1303               	bcf	3,6	;RP1=0, select bank0
  1399     166B  0849               	movf	?___flmul+1,w
  1400     166C  1683               	bsf	3,5	;RP0=1, select bank3
  1401     166D  1703               	bsf	3,6	;RP1=1, select bank3
  1402     166E  00C0               	movwf	(_acel_percent+1)^(0+384)	;volatile
  1403     166F  1283               	bcf	3,5	;RP0=0, select bank0
  1404     1670  1303               	bcf	3,6	;RP1=0, select bank0
  1405     1671  0848               	movf	?___flmul,w
  1406     1672  1683               	bsf	3,5	;RP0=1, select bank3
  1407     1673  1703               	bsf	3,6	;RP1=1, select bank3
  1408     1674  00BF               	movwf	_acel_percent^(0+384)	;volatile
  1409     1675                     l4599:
  1410                           
  1411                           ;ECU.c: 122:             if (acel_percent > 100) acel_percent = 100;
  1412     1675  3042               	movlw	66
  1413     1676  1283               	bcf	3,5	;RP0=0, select bank0
  1414     1677  1303               	bcf	3,6	;RP1=0, select bank0
  1415     1678  00E5               	movwf	___flge@ff1+3
  1416     1679  30C8               	movlw	200
  1417     167A  00E4               	movwf	___flge@ff1+2
  1418     167B  3000               	movlw	0
  1419     167C  00E3               	movwf	___flge@ff1+1
  1420     167D  3000               	movlw	0
  1421     167E  00E2               	movwf	___flge@ff1
  1422     167F  1683               	bsf	3,5	;RP0=1, select bank3
  1423     1680  1703               	bsf	3,6	;RP1=1, select bank3
  1424     1681  0842               	movf	(_acel_percent+3)^(0+384),w	;volatile
  1425     1682  1283               	bcf	3,5	;RP0=0, select bank0
  1426     1683  1303               	bcf	3,6	;RP1=0, select bank0
  1427     1684  00E9               	movwf	___flge@ff2+3
  1428     1685  1683               	bsf	3,5	;RP0=1, select bank3
  1429     1686  1703               	bsf	3,6	;RP1=1, select bank3
  1430     1687  0841               	movf	(_acel_percent+2)^(0+384),w	;volatile
  1431     1688  1283               	bcf	3,5	;RP0=0, select bank0
  1432     1689  1303               	bcf	3,6	;RP1=0, select bank0
  1433     168A  00E8               	movwf	___flge@ff2+2
  1434     168B  1683               	bsf	3,5	;RP0=1, select bank3
  1435     168C  1703               	bsf	3,6	;RP1=1, select bank3
  1436     168D  0840               	movf	(_acel_percent+1)^(0+384),w	;volatile
  1437     168E  1283               	bcf	3,5	;RP0=0, select bank0
  1438     168F  1303               	bcf	3,6	;RP1=0, select bank0
  1439     1690  00E7               	movwf	___flge@ff2+1
  1440     1691  1683               	bsf	3,5	;RP0=1, select bank3
  1441     1692  1703               	bsf	3,6	;RP1=1, select bank3
  1442     1693  083F               	movf	_acel_percent^(0+384),w	;volatile
  1443     1694  1283               	bcf	3,5	;RP0=0, select bank0
  1444     1695  1303               	bcf	3,6	;RP1=0, select bank0
  1445     1696  00E6               	movwf	___flge@ff2
  1446     1697  160A  158A  26A2  160A  118A  	fcall	___flge
  1447     169C  1803               	btfsc	3,0
  1448     169D  2E9F               	goto	u7581
  1449     169E  2EA0               	goto	u7580
  1450     169F                     u7581:
  1451     169F  2F7E               	goto	l4617
  1452     16A0                     u7580:
  1453     16A0                     l4601:
  1454     16A0  3042               	movlw	66
  1455     16A1  1683               	bsf	3,5	;RP0=1, select bank3
  1456     16A2  1703               	bsf	3,6	;RP1=1, select bank3
  1457     16A3  00C2               	movwf	(_acel_percent+3)^(0+384)	;volatile
  1458     16A4  30C8               	movlw	200
  1459     16A5  00C1               	movwf	(_acel_percent+2)^(0+384)	;volatile
  1460     16A6  3000               	movlw	0
  1461     16A7  00C0               	movwf	(_acel_percent+1)^(0+384)	;volatile
  1462     16A8  3000               	movlw	0
  1463     16A9  00BF               	movwf	_acel_percent^(0+384)	;volatile
  1464     16AA  2F7E               	goto	l4617
  1465     16AB                     l166:
  1466                           
  1467                           ;ECU.c: 125:             RC4 = 1;
  1468     16AB  1283               	bcf	3,5	;RP0=0, select bank0
  1469     16AC  1303               	bcf	3,6	;RP1=0, select bank0
  1470     16AD  1607               	bsf	7,4	;volatile
  1471                           
  1472                           ;ECU.c: 126:             RC3 = 0;
  1473     16AE  1187               	bcf	7,3	;volatile
  1474     16AF                     l4603:
  1475                           
  1476                           ;ECU.c: 127:             acel_percent = (adc_value / 1023.0f) * 115;
  1477     16AF  3042               	movlw	66
  1478     16B0  00CB               	movwf	___flmul@b+3
  1479     16B1  30E6               	movlw	230
  1480     16B2  00CA               	movwf	___flmul@b+2
  1481     16B3  3000               	movlw	0
  1482     16B4  00C9               	movwf	___flmul@b+1
  1483     16B5  3000               	movlw	0
  1484     16B6  00C8               	movwf	___flmul@b
  1485     16B7  3044               	movlw	68
  1486     16B8  00B1               	movwf	___fldiv@a+3
  1487     16B9  307F               	movlw	127
  1488     16BA  00B0               	movwf	___fldiv@a+2
  1489     16BB  30C0               	movlw	192
  1490     16BC  00AF               	movwf	___fldiv@a+1
  1491     16BD  3000               	movlw	0
  1492     16BE  00AE               	movwf	___fldiv@a
  1493     16BF  1683               	bsf	3,5	;RP0=1, select bank3
  1494     16C0  1703               	bsf	3,6	;RP1=1, select bank3
  1495     16C1  0835               	movf	main@adc_value^(0+384),w
  1496     16C2  1283               	bcf	3,5	;RP0=0, select bank0
  1497     16C3  1303               	bcf	3,6	;RP1=0, select bank0
  1498     16C4  00A0               	movwf	___xxtofl@val
  1499     16C5  1683               	bsf	3,5	;RP0=1, select bank3
  1500     16C6  1703               	bsf	3,6	;RP1=1, select bank3
  1501     16C7  0836               	movf	(main@adc_value+1)^(0+384),w
  1502     16C8  1283               	bcf	3,5	;RP0=0, select bank0
  1503     16C9  1303               	bcf	3,6	;RP1=0, select bank0
  1504     16CA  00A1               	movwf	___xxtofl@val+1
  1505     16CB  01A2               	clrf	___xxtofl@val+2
  1506     16CC  01A3               	clrf	___xxtofl@val+3
  1507     16CD  3000               	movlw	0
  1508     16CE  160A  158A  2746  160A  118A  	fcall	___xxtofl
  1509     16D3  1283               	bcf	3,5	;RP0=0, select bank0
  1510     16D4  1303               	bcf	3,6	;RP1=0, select bank0
  1511     16D5  0823               	movf	?___xxtofl+3,w
  1512     16D6  00B5               	movwf	___fldiv@b+3
  1513     16D7  0822               	movf	?___xxtofl+2,w
  1514     16D8  00B4               	movwf	___fldiv@b+2
  1515     16D9  0821               	movf	?___xxtofl+1,w
  1516     16DA  00B3               	movwf	___fldiv@b+1
  1517     16DB  0820               	movf	?___xxtofl,w
  1518     16DC  00B2               	movwf	___fldiv@b
  1519     16DD  120A  118A  25ED  160A  118A  	fcall	___fldiv
  1520     16E2  1283               	bcf	3,5	;RP0=0, select bank0
  1521     16E3  1303               	bcf	3,6	;RP1=0, select bank0
  1522     16E4  0831               	movf	?___fldiv+3,w
  1523     16E5  00CF               	movwf	___flmul@a+3
  1524     16E6  0830               	movf	?___fldiv+2,w
  1525     16E7  00CE               	movwf	___flmul@a+2
  1526     16E8  082F               	movf	?___fldiv+1,w
  1527     16E9  00CD               	movwf	___flmul@a+1
  1528     16EA  082E               	movf	?___fldiv,w
  1529     16EB  00CC               	movwf	___flmul@a
  1530     16EC  120A  118A  2050  160A  118A  	fcall	___flmul
  1531     16F1  1283               	bcf	3,5	;RP0=0, select bank0
  1532     16F2  1303               	bcf	3,6	;RP1=0, select bank0
  1533     16F3  084B               	movf	?___flmul+3,w
  1534     16F4  1683               	bsf	3,5	;RP0=1, select bank3
  1535     16F5  1703               	bsf	3,6	;RP1=1, select bank3
  1536     16F6  00C2               	movwf	(_acel_percent+3)^(0+384)	;volatile
  1537     16F7  1283               	bcf	3,5	;RP0=0, select bank0
  1538     16F8  1303               	bcf	3,6	;RP1=0, select bank0
  1539     16F9  084A               	movf	?___flmul+2,w
  1540     16FA  1683               	bsf	3,5	;RP0=1, select bank3
  1541     16FB  1703               	bsf	3,6	;RP1=1, select bank3
  1542     16FC  00C1               	movwf	(_acel_percent+2)^(0+384)	;volatile
  1543     16FD  1283               	bcf	3,5	;RP0=0, select bank0
  1544     16FE  1303               	bcf	3,6	;RP1=0, select bank0
  1545     16FF  0849               	movf	?___flmul+1,w
  1546     1700  1683               	bsf	3,5	;RP0=1, select bank3
  1547     1701  1703               	bsf	3,6	;RP1=1, select bank3
  1548     1702  00C0               	movwf	(_acel_percent+1)^(0+384)	;volatile
  1549     1703  1283               	bcf	3,5	;RP0=0, select bank0
  1550     1704  1303               	bcf	3,6	;RP1=0, select bank0
  1551     1705  0848               	movf	?___flmul,w
  1552     1706  1683               	bsf	3,5	;RP0=1, select bank3
  1553     1707  1703               	bsf	3,6	;RP1=1, select bank3
  1554     1708  00BF               	movwf	_acel_percent^(0+384)	;volatile
  1555     1709                     l4605:
  1556                           
  1557                           ;ECU.c: 128:             if (acel_percent > 115) acel_percent = 115;
  1558     1709  3042               	movlw	66
  1559     170A  1283               	bcf	3,5	;RP0=0, select bank0
  1560     170B  1303               	bcf	3,6	;RP1=0, select bank0
  1561     170C  00E5               	movwf	___flge@ff1+3
  1562     170D  30E6               	movlw	230
  1563     170E  00E4               	movwf	___flge@ff1+2
  1564     170F  3000               	movlw	0
  1565     1710  00E3               	movwf	___flge@ff1+1
  1566     1711  3000               	movlw	0
  1567     1712  00E2               	movwf	___flge@ff1
  1568     1713  1683               	bsf	3,5	;RP0=1, select bank3
  1569     1714  1703               	bsf	3,6	;RP1=1, select bank3
  1570     1715  0842               	movf	(_acel_percent+3)^(0+384),w	;volatile
  1571     1716  1283               	bcf	3,5	;RP0=0, select bank0
  1572     1717  1303               	bcf	3,6	;RP1=0, select bank0
  1573     1718  00E9               	movwf	___flge@ff2+3
  1574     1719  1683               	bsf	3,5	;RP0=1, select bank3
  1575     171A  1703               	bsf	3,6	;RP1=1, select bank3
  1576     171B  0841               	movf	(_acel_percent+2)^(0+384),w	;volatile
  1577     171C  1283               	bcf	3,5	;RP0=0, select bank0
  1578     171D  1303               	bcf	3,6	;RP1=0, select bank0
  1579     171E  00E8               	movwf	___flge@ff2+2
  1580     171F  1683               	bsf	3,5	;RP0=1, select bank3
  1581     1720  1703               	bsf	3,6	;RP1=1, select bank3
  1582     1721  0840               	movf	(_acel_percent+1)^(0+384),w	;volatile
  1583     1722  1283               	bcf	3,5	;RP0=0, select bank0
  1584     1723  1303               	bcf	3,6	;RP1=0, select bank0
  1585     1724  00E7               	movwf	___flge@ff2+1
  1586     1725  1683               	bsf	3,5	;RP0=1, select bank3
  1587     1726  1703               	bsf	3,6	;RP1=1, select bank3
  1588     1727  083F               	movf	_acel_percent^(0+384),w	;volatile
  1589     1728  1283               	bcf	3,5	;RP0=0, select bank0
  1590     1729  1303               	bcf	3,6	;RP1=0, select bank0
  1591     172A  00E6               	movwf	___flge@ff2
  1592     172B  160A  158A  26A2  160A  118A  	fcall	___flge
  1593     1730  1803               	btfsc	3,0
  1594     1731  2F33               	goto	u7591
  1595     1732  2F34               	goto	u7590
  1596     1733                     u7591:
  1597     1733  2F3E               	goto	l4609
  1598     1734                     u7590:
  1599     1734                     l4607:
  1600     1734  3042               	movlw	66
  1601     1735  1683               	bsf	3,5	;RP0=1, select bank3
  1602     1736  1703               	bsf	3,6	;RP1=1, select bank3
  1603     1737  00C2               	movwf	(_acel_percent+3)^(0+384)	;volatile
  1604     1738  30E6               	movlw	230
  1605     1739  00C1               	movwf	(_acel_percent+2)^(0+384)	;volatile
  1606     173A  3000               	movlw	0
  1607     173B  00C0               	movwf	(_acel_percent+1)^(0+384)	;volatile
  1608     173C  3000               	movlw	0
  1609     173D  00BF               	movwf	_acel_percent^(0+384)	;volatile
  1610     173E                     l4609:
  1611                           
  1612                           ;ECU.c: 129:             if (acel_percent == 115 && !turbo_active && timer_counter == 0)
      +                           {
  1613     173E  1683               	bsf	3,5	;RP0=1, select bank3
  1614     173F  1703               	bsf	3,6	;RP1=1, select bank3
  1615     1740  0842               	movf	(_acel_percent+3)^(0+384),w	;volatile
  1616     1741  1283               	bcf	3,5	;RP0=0, select bank0
  1617     1742  1303               	bcf	3,6	;RP1=0, select bank0
  1618     1743  00A3               	movwf	___fleq@ff1+3
  1619     1744  1683               	bsf	3,5	;RP0=1, select bank3
  1620     1745  1703               	bsf	3,6	;RP1=1, select bank3
  1621     1746  0841               	movf	(_acel_percent+2)^(0+384),w	;volatile
  1622     1747  1283               	bcf	3,5	;RP0=0, select bank0
  1623     1748  1303               	bcf	3,6	;RP1=0, select bank0
  1624     1749  00A2               	movwf	___fleq@ff1+2
  1625     174A  1683               	bsf	3,5	;RP0=1, select bank3
  1626     174B  1703               	bsf	3,6	;RP1=1, select bank3
  1627     174C  0840               	movf	(_acel_percent+1)^(0+384),w	;volatile
  1628     174D  1283               	bcf	3,5	;RP0=0, select bank0
  1629     174E  1303               	bcf	3,6	;RP1=0, select bank0
  1630     174F  00A1               	movwf	___fleq@ff1+1
  1631     1750  1683               	bsf	3,5	;RP0=1, select bank3
  1632     1751  1703               	bsf	3,6	;RP1=1, select bank3
  1633     1752  083F               	movf	_acel_percent^(0+384),w	;volatile
  1634     1753  1283               	bcf	3,5	;RP0=0, select bank0
  1635     1754  1303               	bcf	3,6	;RP1=0, select bank0
  1636     1755  00A0               	movwf	___fleq@ff1
  1637     1756  3042               	movlw	66
  1638     1757  00A7               	movwf	___fleq@ff2+3
  1639     1758  30E6               	movlw	230
  1640     1759  00A6               	movwf	___fleq@ff2+2
  1641     175A  3000               	movlw	0
  1642     175B  00A5               	movwf	___fleq@ff2+1
  1643     175C  3000               	movlw	0
  1644     175D  00A4               	movwf	___fleq@ff2
  1645     175E  160A  158A  23A3  160A  118A  	fcall	___fleq
  1646     1763  1C03               	btfss	3,0
  1647     1764  2F66               	goto	u7601
  1648     1765  2F67               	goto	u7600
  1649     1766                     u7601:
  1650     1766  2F7E               	goto	l4617
  1651     1767                     u7600:
  1652     1767                     l4611:
  1653     1767  1683               	bsf	3,5	;RP0=1, select bank3
  1654     1768  1703               	bsf	3,6	;RP1=1, select bank3
  1655     1769  0849               	movf	_turbo_active^(0+384),w	;volatile
  1656     176A  1D03               	btfss	3,2
  1657     176B  2F6D               	goto	u7611
  1658     176C  2F6E               	goto	u7610
  1659     176D                     u7611:
  1660     176D  2F7E               	goto	l4617
  1661     176E                     u7610:
  1662     176E                     l4613:
  1663     176E  0847               	movf	_timer_counter^(0+384),w	;volatile
  1664     176F  0448               	iorwf	(_timer_counter+1)^(0+384),w	;volatile
  1665     1770  1D03               	btfss	3,2
  1666     1771  2F73               	goto	u7621
  1667     1772  2F74               	goto	u7620
  1668     1773                     u7621:
  1669     1773  2F7E               	goto	l4617
  1670     1774                     u7620:
  1671     1774                     l4615:
  1672                           
  1673                           ;ECU.c: 130:                 turbo_active = 1;
  1674     1774  3001               	movlw	1
  1675     1775  00C9               	movwf	_turbo_active^(0+384)	;volatile
  1676                           
  1677                           ;ECU.c: 131:                 turbo_timer = 0;
  1678     1776  3000               	movlw	0
  1679     1777  00C6               	movwf	(_turbo_timer+3)^(0+384)	;volatile
  1680     1778  3000               	movlw	0
  1681     1779  00C5               	movwf	(_turbo_timer+2)^(0+384)	;volatile
  1682     177A  3000               	movlw	0
  1683     177B  00C4               	movwf	(_turbo_timer+1)^(0+384)	;volatile
  1684     177C  3000               	movlw	0
  1685     177D  00C3               	movwf	_turbo_timer^(0+384)	;volatile
  1686     177E                     l4617:
  1687     177E  3000               	movlw	0
  1688     177F  160A  158A  244D  160A  118A  	fcall	_LCD_Write
  1689     1784                     l4619:
  1690     1784  3001               	movlw	1
  1691     1785  160A  158A  244D  160A  118A  	fcall	_LCD_Write
  1692     178A                     l4621:
  1693     178A  3008               	movlw	8
  1694     178B  160A  158A  244D  160A  118A  	fcall	_LCD_Write
  1695     1790                     l4623:
  1696     1790  3000               	movlw	0
  1697     1791  160A  158A  244D  160A  118A  	fcall	_LCD_Write
  1698     1796                     l189:
  1699                           
  1700                           ;ECU.c: 138:         sprintf(buffer, "Acel: %.1f%%", acel_percent);
  1701     1796  3001               	movlw	(low ((STR_1-__stringbase)| (0+32768)))& (0+255)
  1702     1797  1683               	bsf	3,5	;RP0=1, select bank1
  1703     1798  1303               	bcf	3,6	;RP1=0, select bank1
  1704     1799  00E3               	movwf	sprintf@fmt^(0+128)
  1705     179A  1683               	bsf	3,5	;RP0=1, select bank3
  1706     179B  1703               	bsf	3,6	;RP1=1, select bank3
  1707     179C  0842               	movf	(_acel_percent+3)^(0+384),w	;volatile
  1708     179D  1683               	bsf	3,5	;RP0=1, select bank1
  1709     179E  1303               	bcf	3,6	;RP1=0, select bank1
  1710     179F  00E7               	movwf	((?_sprintf+3)^(0+128)+1)
  1711     17A0  1683               	bsf	3,5	;RP0=1, select bank3
  1712     17A1  1703               	bsf	3,6	;RP1=1, select bank3
  1713     17A2  0841               	movf	(_acel_percent+2)^(0+384),w	;volatile
  1714     17A3  1683               	bsf	3,5	;RP0=1, select bank1
  1715     17A4  1303               	bcf	3,6	;RP1=0, select bank1
  1716     17A5  00E6               	movwf	((?_sprintf+2)^(0+128)+1)
  1717     17A6  1683               	bsf	3,5	;RP0=1, select bank3
  1718     17A7  1703               	bsf	3,6	;RP1=1, select bank3
  1719     17A8  0840               	movf	(_acel_percent+1)^(0+384),w	;volatile
  1720     17A9  1683               	bsf	3,5	;RP0=1, select bank1
  1721     17AA  1303               	bcf	3,6	;RP1=0, select bank1
  1722     17AB  00E5               	movwf	((?_sprintf+1)^(0+128)+1)
  1723     17AC  1683               	bsf	3,5	;RP0=1, select bank3
  1724     17AD  1703               	bsf	3,6	;RP1=1, select bank3
  1725     17AE  083F               	movf	_acel_percent^(0+384),w	;volatile
  1726     17AF  1683               	bsf	3,5	;RP0=1, select bank1
  1727     17B0  1303               	bcf	3,6	;RP1=0, select bank1
  1728     17B1  00E4               	movwf	(?_sprintf^(0+128)+1)
  1729     17B2  30A0               	movlw	(low (main@buffer| (0+256)))& (0+255)
  1730     17B3  120A  158A  2000  160A  118A  	fcall	_sprintf
  1731                           
  1732                           ;ECU.c: 139:         LCD_putrs(buffer);
  1733     17B8  30A0               	movlw	(low (main@buffer| (0+256)))& (0+255)
  1734     17B9  1283               	bcf	3,5	;RP0=0, select bank0
  1735     17BA  1303               	bcf	3,6	;RP1=0, select bank0
  1736     17BB  00A6               	movwf	LCD_putrs@a
  1737     17BC  3001               	movlw	1
  1738     17BD  00A7               	movwf	LCD_putrs@a+1
  1739     17BE  160A  158A  235D  160A  118A  	fcall	_LCD_putrs
  1740     17C3                     l4633:
  1741     17C3  300C               	movlw	12
  1742     17C4  160A  158A  244D  160A  118A  	fcall	_LCD_Write
  1743     17C9  3000               	movlw	0
  1744     17CA  160A  158A  244D  160A  118A  	fcall	_LCD_Write
  1745     17CF                     l4639:
  1746                           
  1747                           ;ECU.c: 142:         if (mode == 0) {
  1748     17CF  1683               	bsf	3,5	;RP0=1, select bank3
  1749     17D0  1703               	bsf	3,6	;RP1=1, select bank3
  1750     17D1  084A               	movf	_mode^(0+384),w	;volatile
  1751     17D2  1D03               	btfss	3,2
  1752     17D3  2FD5               	goto	u7631
  1753     17D4  2FD6               	goto	u7630
  1754     17D5                     u7631:
  1755     17D5  2FE2               	goto	l4643
  1756     17D6                     u7630:
  1757     17D6                     l4641:
  1758                           
  1759                           ;ECU.c: 143:             LCD_putrs("Modo: Normal");
  1760     17D6  300E               	movlw	(low ((STR_2-__stringbase)| (0+32768)))& (0+255)
  1761     17D7  1283               	bcf	3,5	;RP0=0, select bank0
  1762     17D8  1303               	bcf	3,6	;RP1=0, select bank0
  1763     17D9  00A6               	movwf	LCD_putrs@a
  1764     17DA  3080               	movlw	128
  1765     17DB  00A7               	movwf	LCD_putrs@a+1
  1766     17DC  160A  158A  235D  160A  118A  	fcall	_LCD_putrs
  1767                           
  1768                           ;ECU.c: 144:         } else {
  1769     17E1  2FED               	goto	l4645
  1770     17E2                     l4643:
  1771                           
  1772                           ;ECU.c: 145:             LCD_putrs("Modo: Turbo");
  1773     17E2  301B               	movlw	(low ((STR_3-__stringbase)| (0+32768)))& (0+255)
  1774     17E3  1283               	bcf	3,5	;RP0=0, select bank0
  1775     17E4  1303               	bcf	3,6	;RP1=0, select bank0
  1776     17E5  00A6               	movwf	LCD_putrs@a
  1777     17E6  3080               	movlw	128
  1778     17E7  00A7               	movwf	LCD_putrs@a+1
  1779     17E8  160A  158A  235D  160A  118A  	fcall	_LCD_putrs
  1780     17ED                     l4645:
  1781                           
  1782                           ;ECU.c: 148:         _delay((unsigned long)((200)*(4000000/4000.0)));
  1783     17ED  3002               	movlw	2
  1784     17EE  1683               	bsf	3,5	;RP0=1, select bank3
  1785     17EF  1703               	bsf	3,6	;RP1=1, select bank3
  1786     17F0  009F               	movwf	(??_main^(0+384)+2)
  1787     17F1  3004               	movlw	4
  1788     17F2  009E               	movwf	(??_main^(0+384)+1)
  1789     17F3  30B9               	movlw	185
  1790     17F4  009D               	movwf	??_main^(0+384)
  1791     17F5                     u7647:
  1792     17F5  0B9D               	decfsz	??_main^(0+384),f
  1793     17F6  2FF5               	goto	u7647
  1794     17F7  0B9E               	decfsz	(??_main^(0+384)+1),f
  1795     17F8  2FF5               	goto	u7647
  1796     17F9  0B9F               	decfsz	(??_main^(0+384)+2),f
  1797     17FA  2FF5               	goto	u7647
  1798     17FB  2FFC               	nop2
  1799     17FC  2E01               	goto	l4591
  1800     17FD  120A  118A  280C   	ljmp	start
  1801     1800                     __end_of_main:
  1802                           
  1803                           	psect	text1
  1804     0800                     __ptext1:	
  1805 ;; *************** function _sprintf *****************
  1806 ;; Defined at:
  1807 ;;		line 9 in file "C:\Program Files\Microchip\xc8\v2.46\pic\sources\c99\common\nf_sprintf.c"
  1808 ;; Parameters:    Size  Location     Type
  1809 ;;  s               1    wreg     PTR unsigned char 
  1810 ;;		 -> main@buffer(16), 
  1811 ;;  fmt             1   67[BANK1 ] PTR const unsigned char 
  1812 ;;		 -> STR_1(13), 
  1813 ;; Auto vars:     Size  Location     Type
  1814 ;;  s               1    0[BANK3 ] PTR unsigned char 
  1815 ;;		 -> main@buffer(16), 
  1816 ;;  f              11    2[BANK3 ] struct _IO_FILE
  1817 ;;  ret             2    0        int 
  1818 ;;  ap              1    1[BANK3 ] PTR void [1]
  1819 ;;		 -> ?_sprintf(2), 
  1820 ;; Return value:  Size  Location     Type
  1821 ;;                  2   67[BANK1 ] int 
  1822 ;; Registers used:
  1823 ;;		wreg, fsr0l, fsr0h, status,2, status,0, btemp+1, pclath, cstack
  1824 ;; Tracked objects:
  1825 ;;		On entry : 0/0
  1826 ;;		On exit  : 0/0
  1827 ;;		Unchanged: 0/0
  1828 ;; Data sizes:     COMMON   BANK0   BANK1   BANK3   BANK2
  1829 ;;      Params:         0       0       5       0       0
  1830 ;;      Locals:         0       0       0      13       0
  1831 ;;      Temps:          0       0       1       0       0
  1832 ;;      Totals:         0       0       6      13       0
  1833 ;;Total ram usage:       19 bytes
  1834 ;; Hardware stack levels used: 1
  1835 ;; Hardware stack levels required when called: 8
  1836 ;; This function calls:
  1837 ;;		_vfprintf
  1838 ;; This function is called by:
  1839 ;;		_main
  1840 ;; This function uses a non-reentrant model
  1841 ;;
  1842                           
  1843     0800                     _sprintf:	
  1844                           ;psect for function _sprintf
  1845                           
  1846                           
  1847                           ;incstack = 0
  1848 ;; hardware stack exceeded
  1849                           ; Regs used in _sprintf: [wreg-fsr0h+status,2+status,0+btemp+1+pclath+cstack]
  1850                           ;sprintf@s stored from wreg
  1851     0800  1683               	bsf	3,5	;RP0=1, select bank3
  1852     0801  1703               	bsf	3,6	;RP1=1, select bank3
  1853     0802  0090               	movwf	sprintf@s^(0+384)
  1854     0803                     l4509:
  1855     0803  30E4               	movlw	(low ((?_sprintf| 0+1)))& (0+255)
  1856     0804  0091               	movwf	sprintf@ap^(0+384)
  1857     0805  0810               	movf	sprintf@s^(0+384),w
  1858     0806  0092               	movwf	sprintf@f^(0+384)
  1859     0807                     l4511:
  1860     0807  0194               	clrf	(sprintf@f^(0+384)+2)
  1861     0808  0195               	clrf	((sprintf@f+1)^(0+384)+2)
  1862     0809                     l4513:
  1863     0809  019B               	clrf	(sprintf@f^(0+384)+9)
  1864     080A  019C               	clrf	((sprintf@f+1)^(0+384)+9)
  1865     080B                     l4515:
  1866     080B  1683               	bsf	3,5	;RP0=1, select bank1
  1867     080C  1303               	bcf	3,6	;RP1=0, select bank1
  1868     080D  0863               	movf	sprintf@fmt^(0+128),w
  1869     080E  00DF               	movwf	vfprintf@fmt^(0+128)
  1870     080F  3091               	movlw	(low (sprintf@ap| (0+256)))& (0+255)
  1871     0810  00E0               	movwf	vfprintf@ap^(0+128)
  1872     0811  3092               	movlw	(low (sprintf@f| (0+256)))& (0+255)
  1873     0812  160A  158A  223C  120A  158A  	fcall	_vfprintf
  1874     0817                     l4517:
  1875     0817  1683               	bsf	3,5	;RP0=1, select bank3
  1876     0818  1703               	bsf	3,6	;RP1=1, select bank3
  1877     0819  0814               	movf	(sprintf@f^(0+384)+2),w
  1878     081A  0710               	addwf	sprintf@s^(0+384),w
  1879     081B  1683               	bsf	3,5	;RP0=1, select bank1
  1880     081C  1303               	bcf	3,6	;RP1=0, select bank1
  1881     081D  00E8               	movwf	??_sprintf^(0+128)
  1882     081E  0868               	movf	??_sprintf^(0+128),w
  1883     081F  0084               	movwf	4
  1884     0820  1783               	bsf	3,7	;select IRP bank2
  1885     0821  0180               	clrf	0
  1886     0822                     l760:
  1887     0822  0008               	return
  1888     0823                     __end_of_sprintf:
  1889                           
  1890                           	psect	text2
  1891     1A3C                     __ptext2:	
  1892 ;; *************** function _vfprintf *****************
  1893 ;; Defined at:
  1894 ;;		line 1817 in file "C:\Program Files\Microchip\xc8\v2.46\pic\sources\c99\common\doprnt.c"
  1895 ;; Parameters:    Size  Location     Type
  1896 ;;  fp              1    wreg     PTR struct _IO_FILE
  1897 ;;		 -> sprintf@f(11), 
  1898 ;;  fmt             1   63[BANK1 ] PTR const unsigned char 
  1899 ;;		 -> STR_1(13), 
  1900 ;;  ap              1   64[BANK1 ] PTR PTR void 
  1901 ;;		 -> sprintf@ap(1), 
  1902 ;; Auto vars:     Size  Location     Type
  1903 ;;  fp              1   65[BANK1 ] PTR struct _IO_FILE
  1904 ;;		 -> sprintf@f(11), 
  1905 ;;  cfmt            1   66[BANK1 ] PTR unsigned char 
  1906 ;;		 -> STR_1(13), 
  1907 ;; Return value:  Size  Location     Type
  1908 ;;                  2   63[BANK1 ] int 
  1909 ;; Registers used:
  1910 ;;		wreg, fsr0l, fsr0h, status,2, status,0, btemp+1, pclath, cstack
  1911 ;; Tracked objects:
  1912 ;;		On entry : 0/0
  1913 ;;		On exit  : 0/0
  1914 ;;		Unchanged: 0/0
  1915 ;; Data sizes:     COMMON   BANK0   BANK1   BANK3   BANK2
  1916 ;;      Params:         0       0       2       0       0
  1917 ;;      Locals:         0       0       2       0       0
  1918 ;;      Temps:          0       0       0       0       0
  1919 ;;      Totals:         0       0       4       0       0
  1920 ;;Total ram usage:        4 bytes
  1921 ;; Hardware stack levels used: 1
  1922 ;; Hardware stack levels required when called: 7
  1923 ;; This function calls:
  1924 ;;		_vfpfcnvrt
  1925 ;; This function is called by:
  1926 ;;		_sprintf
  1927 ;; This function uses a non-reentrant model
  1928 ;;
  1929                           
  1930     1A3C                     _vfprintf:	
  1931                           ;psect for function _vfprintf
  1932                           
  1933                           
  1934                           ;incstack = 0
  1935 ;; hardware stack exceeded
  1936                           ; Regs used in _vfprintf: [wreg-fsr0h+status,2+status,0+btemp+1+pclath+cstack]
  1937                           ;vfprintf@fp stored from wreg
  1938     1A3C  1683               	bsf	3,5	;RP0=1, select bank1
  1939     1A3D  1303               	bcf	3,6	;RP1=0, select bank1
  1940     1A3E  00E1               	movwf	vfprintf@fp^(0+128)
  1941     1A3F                     l4421:
  1942                           
  1943                           ;C:\Program Files\Microchip\xc8\v2.46\pic\sources\c99\common\doprnt.c: 1817: int vfprint
      +                          f(FILE *fp, const char *fmt, va_list ap);C:\Program Files\Microchip\xc8\v2.46\pic\source
      +                          s\c99\common\doprnt.c: 1818: {;C:\Program Files\Microchip\xc8\v2.46\pic\sources\c99\comm
      +                          on\doprnt.c: 1820:     char *cfmt;;C:\Program Files\Microchip\xc8\v2.46\pic\sources\c99\
      +                          common\doprnt.c: 1822:     cfmt = (char *)fmt;
  1944     1A3F  085F               	movf	vfprintf@fmt^(0+128),w
  1945     1A40  00E2               	movwf	vfprintf@cfmt^(0+128)
  1946                           
  1947                           ;C:\Program Files\Microchip\xc8\v2.46\pic\sources\c99\common\doprnt.c: 1826:     while (
      +                          *cfmt) {
  1948     1A41  2A4C               	goto	l4425
  1949     1A42                     l4423:
  1950                           
  1951                           ;C:\Program Files\Microchip\xc8\v2.46\pic\sources\c99\common\doprnt.c: 1830:    vfpfcnvr
      +                          t(fp, &cfmt, ap);
  1952     1A42  30E2               	movlw	(low (vfprintf@cfmt| 0))& (0+255)
  1953     1A43  00D6               	movwf	vfpfcnvrt@fmt^(0+128)
  1954     1A44  0860               	movf	vfprintf@ap^(0+128),w
  1955     1A45  00D7               	movwf	vfpfcnvrt@ap^(0+128)
  1956     1A46  0861               	movf	vfprintf@fp^(0+128),w
  1957     1A47  160A  118A  233D  160A  158A  	fcall	_vfpfcnvrt
  1958     1A4C                     l4425:
  1959                           
  1960                           ;C:\Program Files\Microchip\xc8\v2.46\pic\sources\c99\common\doprnt.c: 1826:     while (
      +                          *cfmt) {
  1961     1A4C  1683               	bsf	3,5	;RP0=1, select bank1
  1962     1A4D  1303               	bcf	3,6	;RP1=0, select bank1
  1963     1A4E  0862               	movf	vfprintf@cfmt^(0+128),w
  1964     1A4F  0084               	movwf	4
  1965     1A50  120A  118A  27C6  160A  158A  	fcall	stringdir
  1966     1A55  3A00               	xorlw	0
  1967     1A56  1D03               	skipz
  1968     1A57  2A59               	goto	u7311
  1969     1A58  2A5A               	goto	u7310
  1970     1A59                     u7311:
  1971     1A59  2A42               	goto	l4423
  1972     1A5A                     u7310:
  1973     1A5A                     l4427:
  1974                           
  1975                           ;C:\Program Files\Microchip\xc8\v2.46\pic\sources\c99\common\doprnt.c: 1835:  return 0;
  1976     1A5A  01DF               	clrf	?_vfprintf^(0+128)
  1977     1A5B  01E0               	clrf	(?_vfprintf+1)^(0+128)
  1978     1A5C                     l879:
  1979     1A5C  0008               	return
  1980     1A5D                     __end_of_vfprintf:
  1981                           
  1982                           	psect	text3
  1983     133D                     __ptext3:	
  1984 ;; *************** function _vfpfcnvrt *****************
  1985 ;; Defined at:
  1986 ;;		line 1177 in file "C:\Program Files\Microchip\xc8\v2.46\pic\sources\c99\common\doprnt.c"
  1987 ;; Parameters:    Size  Location     Type
  1988 ;;  fp              1    wreg     PTR struct _IO_FILE
  1989 ;;		 -> sprintf@f(11), 
  1990 ;;  fmt             1   54[BANK1 ] PTR PTR unsigned char 
  1991 ;;		 -> vfprintf@cfmt(1), 
  1992 ;;  ap              1   55[BANK1 ] PTR PTR void 
  1993 ;;		 -> sprintf@ap(1), 
  1994 ;; Auto vars:     Size  Location     Type
  1995 ;;  fp              1   61[BANK1 ] PTR struct _IO_FILE
  1996 ;;		 -> sprintf@f(11), 
  1997 ;;  convarg         4   56[BANK1 ] struct .
  1998 ;;  cp              1   62[BANK1 ] PTR unsigned char 
  1999 ;;		 -> STR_1(13), 
  2000 ;;  c               1   60[BANK1 ] unsigned char 
  2001 ;;  done            1    0        _Bool 
  2002 ;; Return value:  Size  Location     Type
  2003 ;;                  1    wreg      void 
  2004 ;; Registers used:
  2005 ;;		wreg, fsr0l, fsr0h, status,2, status,0, btemp+1, pclath, cstack
  2006 ;; Tracked objects:
  2007 ;;		On entry : 0/0
  2008 ;;		On exit  : 0/0
  2009 ;;		Unchanged: 0/0
  2010 ;; Data sizes:     COMMON   BANK0   BANK1   BANK3   BANK2
  2011 ;;      Params:         0       0       2       0       0
  2012 ;;      Locals:         0       0       7       0       0
  2013 ;;      Temps:          0       2       0       0       0
  2014 ;;      Totals:         0       2       9       0       0
  2015 ;;Total ram usage:       11 bytes
  2016 ;; Hardware stack levels used: 1
  2017 ;; Hardware stack levels required when called: 6
  2018 ;; This function calls:
  2019 ;;		_efgtoa
  2020 ;;		_fputc
  2021 ;;		_read_prec_or_width
  2022 ;; This function is called by:
  2023 ;;		_vfprintf
  2024 ;; This function uses a non-reentrant model
  2025 ;;
  2026                           
  2027     133D                     _vfpfcnvrt:	
  2028                           ;psect for function _vfpfcnvrt
  2029                           
  2030                           
  2031                           ;incstack = 0
  2032 ;; hardware stack exceeded
  2033                           ; Regs used in _vfpfcnvrt: [wreg-fsr0h+status,2+status,0+btemp+1+pclath+cstack]
  2034                           ;vfpfcnvrt@fp stored from wreg
  2035     133D  1683               	bsf	3,5	;RP0=1, select bank1
  2036     133E  1303               	bcf	3,6	;RP1=0, select bank1
  2037     133F  00DD               	movwf	vfpfcnvrt@fp^(0+128)
  2038     1340                     l4329:
  2039                           
  2040                           ;C:\Program Files\Microchip\xc8\v2.46\pic\sources\c99\common\doprnt.c: 1177: vfpfcnvrt(F
      +                          ILE *fp, char *fmt[], va_list ap);C:\Program Files\Microchip\xc8\v2.46\pic\sources\c99\c
      +                          ommon\doprnt.c: 1178: {;C:\Program Files\Microchip\xc8\v2.46\pic\sources\c99\common\dopr
      +                          nt.c: 1179:     char c, *cp;;C:\Program Files\Microchip\xc8\v2.46\pic\sources\c99\common
      +                          \doprnt.c: 1180:     _Bool done;;C:\Program Files\Microchip\xc8\v2.46\pic\sources\c99\co
      +                          mmon\doprnt.c: 1188:  } convarg;;C:\Program Files\Microchip\xc8\v2.46\pic\sources\c99\co
      +                          mmon\doprnt.c: 1201:     if ((*fmt)[0] == '%') {
  2041     1340  0856               	movf	vfpfcnvrt@fmt^(0+128),w
  2042     1341  0084               	movwf	4
  2043     1342  1383               	bcf	3,7	;select IRP bank0
  2044     1343  0800               	movf	0,w
  2045     1344  0084               	movwf	4
  2046     1345  120A  118A  27C6  160A  118A  	fcall	stringdir
  2047     134A  3A25               	xorlw	37
  2048     134B  1D03               	skipz
  2049     134C  2B4E               	goto	u7181
  2050     134D  2B4F               	goto	u7180
  2051     134E                     u7181:
  2052     134E  2C48               	goto	l4389
  2053     134F                     u7180:
  2054     134F                     l4331:
  2055                           
  2056                           ;C:\Program Files\Microchip\xc8\v2.46\pic\sources\c99\common\doprnt.c: 1202:         ++*
      +                          fmt;
  2057     134F  3001               	movlw	1
  2058     1350  00FF               	movwf	btemp+1
  2059     1351  0856               	movf	vfpfcnvrt@fmt^(0+128),w
  2060     1352  0084               	movwf	4
  2061     1353  087F               	movf	btemp+1,w
  2062     1354  0780               	addwf	0,f
  2063     1355                     l4333:
  2064                           
  2065                           ;C:\Program Files\Microchip\xc8\v2.46\pic\sources\c99\common\doprnt.c: 1204:         fla
      +                          gs = width = 0;
  2066     1355  01E9               	clrf	_width^(0+128)
  2067     1356  01EA               	clrf	(_width+1)^(0+128)
  2068     1357  1003               	clrc
  2069     1358  3000               	movlw	0
  2070     1359  1803               	btfsc	3,0
  2071     135A  3001               	movlw	1
  2072     135B  00ED               	movwf	_flags^(0+128)
  2073     135C                     l4335:
  2074                           
  2075                           ;C:\Program Files\Microchip\xc8\v2.46\pic\sources\c99\common\doprnt.c: 1205:         pre
      +                          c = -1;
  2076     135C  30FF               	movlw	255
  2077     135D  00EB               	movwf	_prec^(0+128)
  2078     135E  30FF               	movlw	255
  2079     135F  00EC               	movwf	(_prec^(0+128)+1)
  2080     1360                     l4337:
  2081                           
  2082                           ;C:\Program Files\Microchip\xc8\v2.46\pic\sources\c99\common\doprnt.c: 1265:         if 
      +                          ((*fmt)[0] == '.') {
  2083     1360  0856               	movf	vfpfcnvrt@fmt^(0+128),w
  2084     1361  0084               	movwf	4
  2085     1362  0800               	movf	0,w
  2086     1363  0084               	movwf	4
  2087     1364  120A  118A  27C6  160A  118A  	fcall	stringdir
  2088     1369  3A2E               	xorlw	46
  2089     136A  1D03               	skipz
  2090     136B  2B6D               	goto	u7191
  2091     136C  2B6E               	goto	u7190
  2092     136D                     u7191:
  2093     136D  2B8C               	goto	l4343
  2094     136E                     u7190:
  2095     136E                     l4339:
  2096                           
  2097                           ;C:\Program Files\Microchip\xc8\v2.46\pic\sources\c99\common\doprnt.c: 1266:            
      +                           ++*fmt;
  2098     136E  3001               	movlw	1
  2099     136F  00FF               	movwf	btemp+1
  2100     1370  0856               	movf	vfpfcnvrt@fmt^(0+128),w
  2101     1371  0084               	movwf	4
  2102     1372  087F               	movf	btemp+1,w
  2103     1373  0780               	addwf	0,f
  2104     1374                     l4341:
  2105                           
  2106                           ;C:\Program Files\Microchip\xc8\v2.46\pic\sources\c99\common\doprnt.c: 1267:    prec = r
      +                          ead_prec_or_width(fmt, ap);
  2107     1374  0857               	movf	vfpfcnvrt@ap^(0+128),w
  2108     1375  1283               	bcf	3,5	;RP0=0, select bank0
  2109     1376  1303               	bcf	3,6	;RP1=0, select bank0
  2110     1377  00A6               	movwf	read_prec_or_width@ap
  2111     1378  1683               	bsf	3,5	;RP0=1, select bank1
  2112     1379  1303               	bcf	3,6	;RP1=0, select bank1
  2113     137A  0856               	movf	vfpfcnvrt@fmt^(0+128),w
  2114     137B  160A  158A  24A9  160A  118A  	fcall	_read_prec_or_width
  2115     1380  1283               	bcf	3,5	;RP0=0, select bank0
  2116     1381  1303               	bcf	3,6	;RP1=0, select bank0
  2117     1382  0827               	movf	?_read_prec_or_width+1,w
  2118     1383  1683               	bsf	3,5	;RP0=1, select bank1
  2119     1384  1303               	bcf	3,6	;RP1=0, select bank1
  2120     1385  00EC               	movwf	(_prec+1)^(0+128)
  2121     1386  1283               	bcf	3,5	;RP0=0, select bank0
  2122     1387  1303               	bcf	3,6	;RP1=0, select bank0
  2123     1388  0826               	movf	?_read_prec_or_width,w
  2124     1389  1683               	bsf	3,5	;RP0=1, select bank1
  2125     138A  1303               	bcf	3,6	;RP1=0, select bank1
  2126     138B  00EB               	movwf	_prec^(0+128)
  2127     138C                     l4343:
  2128                           
  2129                           ;C:\Program Files\Microchip\xc8\v2.46\pic\sources\c99\common\doprnt.c: 1689:   cp = *fmt
      +                          ;
  2130     138C  0856               	movf	vfpfcnvrt@fmt^(0+128),w
  2131     138D  0084               	movwf	4
  2132     138E  1383               	bcf	3,7	;select IRP bank0
  2133     138F  0800               	movf	0,w
  2134     1390  00DE               	movwf	vfpfcnvrt@cp^(0+128)
  2135     1391                     l4345:
  2136                           
  2137                           ;C:\Program Files\Microchip\xc8\v2.46\pic\sources\c99\common\doprnt.c: 1690:   c = *cp;
  2138     1391  085E               	movf	vfpfcnvrt@cp^(0+128),w
  2139     1392  0084               	movwf	4
  2140     1393  120A  118A  27C6  160A  118A  	fcall	stringdir
  2141     1398  00DC               	movwf	vfpfcnvrt@c^(0+128)
  2142                           
  2143                           ;C:\Program Files\Microchip\xc8\v2.46\pic\sources\c99\common\doprnt.c: 1691:   switch(c)
      +                           {
  2144     1399  2BA4               	goto	l4355
  2145     139A                     l4347:
  2146                           
  2147                           ;C:\Program Files\Microchip\xc8\v2.46\pic\sources\c99\common\doprnt.c: 1695:     cp++;
  2148     139A  3001               	movlw	1
  2149     139B  00FF               	movwf	btemp+1
  2150     139C  087F               	movf	btemp+1,w
  2151     139D  07DE               	addwf	vfpfcnvrt@cp^(0+128),f
  2152                           
  2153                           ;C:\Program Files\Microchip\xc8\v2.46\pic\sources\c99\common\doprnt.c: 1696:     break;
  2154     139E  2BAF               	goto	l4357
  2155     139F                     l4349:
  2156                           
  2157                           ;C:\Program Files\Microchip\xc8\v2.46\pic\sources\c99\common\doprnt.c: 1721:     c = 'l'
      +                          ;
  2158     139F  306C               	movlw	108
  2159     13A0  00DC               	movwf	vfpfcnvrt@c^(0+128)
  2160                           
  2161                           ;C:\Program Files\Microchip\xc8\v2.46\pic\sources\c99\common\doprnt.c: 1722:     break;
  2162     13A1  2BAF               	goto	l4357
  2163     13A2                     l4351:
  2164                           
  2165                           ;C:\Program Files\Microchip\xc8\v2.46\pic\sources\c99\common\doprnt.c: 1724:     c = 0;
  2166     13A2  01DC               	clrf	vfpfcnvrt@c^(0+128)
  2167                           
  2168                           ;C:\Program Files\Microchip\xc8\v2.46\pic\sources\c99\common\doprnt.c: 1725:     break;
  2169     13A3  2BAF               	goto	l4357
  2170     13A4                     l4355:
  2171     13A4  085C               	movf	vfpfcnvrt@c^(0+128),w
  2172                           
  2173                           ; Switch size 1, requested type "simple"
  2174                           ; Number of cases is 3, Range of values is 76 to 108
  2175                           ; switch strategies available:
  2176                           ; Name         Instructions Cycles
  2177                           ; simple_byte           10     6 (average)
  2178                           ; direct_byte          110    11 (fixed)
  2179                           ; jumptable            263     9 (fixed)
  2180                           ;	Chosen strategy is simple_byte
  2181     13A5  3A4C               	xorlw	76	; case 76
  2182     13A6  1903               	skipnz
  2183     13A7  2B9A               	goto	l4347
  2184     13A8  3A2A               	xorlw	42	; case 102
  2185     13A9  1903               	skipnz
  2186     13AA  2B9F               	goto	l4349
  2187     13AB  3A0A               	xorlw	10	; case 108
  2188     13AC  1903               	skipnz
  2189     13AD  2B9A               	goto	l4347
  2190     13AE  2BA2               	goto	l4351
  2191     13AF                     l4357:
  2192     13AF  085E               	movf	vfpfcnvrt@cp^(0+128),w
  2193     13B0  0084               	movwf	4
  2194     13B1  120A  118A  27C6  160A  118A  	fcall	stringdir
  2195     13B6  3A66               	xorlw	102
  2196     13B7  1D03               	skipz
  2197     13B8  2BBA               	goto	u7201
  2198     13B9  2BBB               	goto	u7200
  2199     13BA                     u7201:
  2200     13BA  2C18               	goto	l4377
  2201     13BB                     u7200:
  2202     13BB  2BE8               	goto	l4365
  2203     13BC                     l4359:
  2204                           
  2205                           ;C:\Program Files\Microchip\xc8\v2.46\pic\sources\c99\common\doprnt.c: 1756:      convar
      +                          g.f = (long double)(*(double *)__va_arg(*(double **)ap, (double)0));
  2206     13BC  0857               	movf	vfpfcnvrt@ap^(0+128),w
  2207     13BD  0084               	movwf	4
  2208     13BE  1783               	bsf	3,7	;select IRP bank2
  2209     13BF  0800               	movf	0,w
  2210     13C0  00FF               	movwf	btemp+1
  2211     13C1  3004               	movlw	4
  2212     13C2  0780               	addwf	0,f
  2213     13C3  087F               	movf	btemp+1,w
  2214     13C4  0084               	movwf	4
  2215     13C5  1383               	bcf	3,7	;select IRP bank0
  2216     13C6  0800               	movf	0,w
  2217     13C7  00D8               	movwf	vfpfcnvrt@convarg^(0+128)
  2218     13C8  0A84               	incf	4,f
  2219     13C9  0800               	movf	0,w
  2220     13CA  00D9               	movwf	(vfpfcnvrt@convarg+1)^(0+128)
  2221     13CB  0A84               	incf	4,f
  2222     13CC  0800               	movf	0,w
  2223     13CD  00DA               	movwf	(vfpfcnvrt@convarg+2)^(0+128)
  2224     13CE  0A84               	incf	4,f
  2225     13CF  0800               	movf	0,w
  2226     13D0  00DB               	movwf	(vfpfcnvrt@convarg+3)^(0+128)
  2227                           
  2228                           ;C:\Program Files\Microchip\xc8\v2.46\pic\sources\c99\common\doprnt.c: 1757:      break;
  2229     13D1  2BF0               	goto	l4367
  2230     13D2                     l4361:
  2231                           
  2232                           ;C:\Program Files\Microchip\xc8\v2.46\pic\sources\c99\common\doprnt.c: 1759:      convar
      +                          g.f = (long double)(*(long double *)__va_arg(*(long double **)ap, (long double)0));
  2233     13D2  0857               	movf	vfpfcnvrt@ap^(0+128),w
  2234     13D3  0084               	movwf	4
  2235     13D4  1783               	bsf	3,7	;select IRP bank2
  2236     13D5  0800               	movf	0,w
  2237     13D6  00FF               	movwf	btemp+1
  2238     13D7  3004               	movlw	4
  2239     13D8  0780               	addwf	0,f
  2240     13D9  087F               	movf	btemp+1,w
  2241     13DA  0084               	movwf	4
  2242     13DB  1383               	bcf	3,7	;select IRP bank0
  2243     13DC  0800               	movf	0,w
  2244     13DD  00D8               	movwf	vfpfcnvrt@convarg^(0+128)
  2245     13DE  0A84               	incf	4,f
  2246     13DF  0800               	movf	0,w
  2247     13E0  00D9               	movwf	(vfpfcnvrt@convarg+1)^(0+128)
  2248     13E1  0A84               	incf	4,f
  2249     13E2  0800               	movf	0,w
  2250     13E3  00DA               	movwf	(vfpfcnvrt@convarg+2)^(0+128)
  2251     13E4  0A84               	incf	4,f
  2252     13E5  0800               	movf	0,w
  2253     13E6  00DB               	movwf	(vfpfcnvrt@convarg+3)^(0+128)
  2254                           
  2255                           ;C:\Program Files\Microchip\xc8\v2.46\pic\sources\c99\common\doprnt.c: 1760:      break;
  2256     13E7  2BF0               	goto	l4367
  2257     13E8                     l4365:
  2258     13E8  085C               	movf	vfpfcnvrt@c^(0+128),w
  2259                           
  2260                           ; Switch size 1, requested type "simple"
  2261                           ; Number of cases is 2, Range of values is 76 to 108
  2262                           ; switch strategies available:
  2263                           ; Name         Instructions Cycles
  2264                           ; simple_byte            7     4 (average)
  2265                           ; direct_byte          110    11 (fixed)
  2266                           ; jumptable            263     9 (fixed)
  2267                           ;	Chosen strategy is simple_byte
  2268     13E9  3A4C               	xorlw	76	; case 76
  2269     13EA  1903               	skipnz
  2270     13EB  2BD2               	goto	l4361
  2271     13EC  3A20               	xorlw	32	; case 108
  2272     13ED  1903               	skipnz
  2273     13EE  2BBC               	goto	l4359
  2274     13EF  2BF0               	goto	l4367
  2275     13F0                     l4367:
  2276                           
  2277                           ;C:\Program Files\Microchip\xc8\v2.46\pic\sources\c99\common\doprnt.c: 1762:    *fmt = c
      +                          p+1;
  2278     13F0  0856               	movf	vfpfcnvrt@fmt^(0+128),w
  2279     13F1  0084               	movwf	4
  2280     13F2  085E               	movf	vfpfcnvrt@cp^(0+128),w
  2281     13F3  3E01               	addlw	1
  2282     13F4  0080               	movwf	0
  2283                           
  2284                           ;C:\Program Files\Microchip\xc8\v2.46\pic\sources\c99\common\doprnt.c: 1763:    switch (
      +                          *cp) {
  2285     13F5  2C0D               	goto	l4375
  2286     13F6                     l4369:
  2287                           
  2288                           ;C:\Program Files\Microchip\xc8\v2.46\pic\sources\c99\common\doprnt.c: 1790:      return
      +                           (void) efgtoa(fp, convarg.f, *cp);;	Return value of _vfpfcnvrt is never used
  2289     13F6  085B               	movf	(vfpfcnvrt@convarg+3)^(0+128),w
  2290     13F7  00A3               	movwf	(efgtoa@f+3)^(0+128)
  2291     13F8  085A               	movf	(vfpfcnvrt@convarg+2)^(0+128),w
  2292     13F9  00A2               	movwf	(efgtoa@f+2)^(0+128)
  2293     13FA  0859               	movf	(vfpfcnvrt@convarg+1)^(0+128),w
  2294     13FB  00A1               	movwf	(efgtoa@f+1)^(0+128)
  2295     13FC  0858               	movf	vfpfcnvrt@convarg^(0+128),w
  2296     13FD  00A0               	movwf	efgtoa@f^(0+128)
  2297     13FE  085E               	movf	vfpfcnvrt@cp^(0+128),w
  2298     13FF  0084               	movwf	4
  2299     1400  120A  118A  27C6  160A  118A  	fcall	stringdir
  2300     1405  00A4               	movwf	efgtoa@c^(0+128)
  2301     1406  085D               	movf	vfpfcnvrt@fp^(0+128),w
  2302     1407  160A  118A  2466  160A  118A  	fcall	_efgtoa
  2303     140C  2C65               	goto	l871
  2304     140D                     l4375:
  2305     140D  085E               	movf	vfpfcnvrt@cp^(0+128),w
  2306     140E  0084               	movwf	4
  2307     140F  120A  118A  27C6  160A  118A  	fcall	stringdir
  2308                           
  2309                           ; Switch size 1, requested type "simple"
  2310                           ; Number of cases is 1, Range of values is 102 to 102
  2311                           ; switch strategies available:
  2312                           ; Name         Instructions Cycles
  2313                           ; simple_byte            4     3 (average)
  2314                           ; direct_byte           14    11 (fixed)
  2315                           ; jumptable            263     9 (fixed)
  2316                           ;	Chosen strategy is simple_byte
  2317     1414  3A66               	xorlw	102	; case 102
  2318     1415  1903               	skipnz
  2319     1416  2BF6               	goto	l4369
  2320     1417  2C18               	goto	l4377
  2321     1418                     l4377:
  2322                           
  2323                           ;C:\Program Files\Microchip\xc8\v2.46\pic\sources\c99\common\doprnt.c: 1798:         if 
      +                          ((*fmt)[0] == '%') {
  2324     1418  0856               	movf	vfpfcnvrt@fmt^(0+128),w
  2325     1419  0084               	movwf	4
  2326     141A  0800               	movf	0,w
  2327     141B  0084               	movwf	4
  2328     141C  120A  118A  27C6  160A  118A  	fcall	stringdir
  2329     1421  3A25               	xorlw	37
  2330     1422  1D03               	skipz
  2331     1423  2C25               	goto	u7211
  2332     1424  2C26               	goto	u7210
  2333     1425                     u7211:
  2334     1425  2C3E               	goto	l4385
  2335     1426                     u7210:
  2336     1426                     l4379:
  2337                           
  2338                           ;C:\Program Files\Microchip\xc8\v2.46\pic\sources\c99\common\doprnt.c: 1799:            
      +                           ++*fmt;
  2339     1426  3001               	movlw	1
  2340     1427  00FF               	movwf	btemp+1
  2341     1428  0856               	movf	vfpfcnvrt@fmt^(0+128),w
  2342     1429  0084               	movwf	4
  2343     142A  087F               	movf	btemp+1,w
  2344     142B  0780               	addwf	0,f
  2345     142C                     l4381:
  2346                           
  2347                           ;C:\Program Files\Microchip\xc8\v2.46\pic\sources\c99\common\doprnt.c: 1800:            
      +                           fputc((int)'%', fp);
  2348     142C  3025               	movlw	37
  2349     142D  1283               	bcf	3,5	;RP0=0, select bank0
  2350     142E  1303               	bcf	3,6	;RP1=0, select bank0
  2351     142F  00A0               	movwf	fputc@c
  2352     1430  3000               	movlw	0
  2353     1431  00A1               	movwf	fputc@c+1
  2354     1432  1683               	bsf	3,5	;RP0=1, select bank1
  2355     1433  1303               	bcf	3,6	;RP1=0, select bank1
  2356     1434  085D               	movf	vfpfcnvrt@fp^(0+128),w
  2357     1435  1283               	bcf	3,5	;RP0=0, select bank0
  2358     1436  1303               	bcf	3,6	;RP1=0, select bank0
  2359     1437  00A2               	movwf	fputc@fp
  2360     1438  160A  158A  23F3  160A  118A  	fcall	_fputc
  2361     143D  2C65               	goto	l871
  2362     143E                     l4385:
  2363                           
  2364                           ;C:\Program Files\Microchip\xc8\v2.46\pic\sources\c99\common\doprnt.c: 1806:         ++*
      +                          fmt;
  2365     143E  3001               	movlw	1
  2366     143F  00FF               	movwf	btemp+1
  2367     1440  1683               	bsf	3,5	;RP0=1, select bank1
  2368     1441  1303               	bcf	3,6	;RP1=0, select bank1
  2369     1442  0856               	movf	vfpfcnvrt@fmt^(0+128),w
  2370     1443  0084               	movwf	4
  2371     1444  087F               	movf	btemp+1,w
  2372     1445  1383               	bcf	3,7	;select IRP bank0
  2373     1446  0780               	addwf	0,f
  2374     1447  2C65               	goto	l871
  2375     1448                     l4389:
  2376                           
  2377                           ;C:\Program Files\Microchip\xc8\v2.46\pic\sources\c99\common\doprnt.c: 1811:     fputc((
      +                          int)(*fmt)[0], fp);
  2378     1448  0856               	movf	vfpfcnvrt@fmt^(0+128),w
  2379     1449  0084               	movwf	4
  2380     144A  0800               	movf	0,w
  2381     144B  0084               	movwf	4
  2382     144C  120A  118A  27C6  160A  118A  	fcall	stringdir
  2383     1451  1283               	bcf	3,5	;RP0=0, select bank0
  2384     1452  1303               	bcf	3,6	;RP1=0, select bank0
  2385     1453  00EE               	movwf	??_vfpfcnvrt
  2386     1454  01EF               	clrf	??_vfpfcnvrt+1
  2387     1455  086E               	movf	??_vfpfcnvrt,w
  2388     1456  00A0               	movwf	fputc@c
  2389     1457  086F               	movf	??_vfpfcnvrt+1,w
  2390     1458  00A1               	movwf	fputc@c+1
  2391     1459  1683               	bsf	3,5	;RP0=1, select bank1
  2392     145A  1303               	bcf	3,6	;RP1=0, select bank1
  2393     145B  085D               	movf	vfpfcnvrt@fp^(0+128),w
  2394     145C  1283               	bcf	3,5	;RP0=0, select bank0
  2395     145D  1303               	bcf	3,6	;RP1=0, select bank0
  2396     145E  00A2               	movwf	fputc@fp
  2397     145F  160A  158A  23F3  160A  118A  	fcall	_fputc
  2398     1464  2C3E               	goto	l4385
  2399     1465                     l871:
  2400     1465  0008               	return
  2401     1466                     __end_of_vfpfcnvrt:
  2402                           
  2403                           	psect	text4
  2404     1CA9                     __ptext4:	
  2405 ;; *************** function _read_prec_or_width *****************
  2406 ;; Defined at:
  2407 ;;		line 1158 in file "C:\Program Files\Microchip\xc8\v2.46\pic\sources\c99\common\doprnt.c"
  2408 ;; Parameters:    Size  Location     Type
  2409 ;;  fmt             1    wreg     PTR PTR const unsigned c
  2410 ;;		 -> vfprintf@cfmt(1), 
  2411 ;;  ap              1    6[BANK0 ] PTR PTR void [1]
  2412 ;;		 -> sprintf@ap(1), 
  2413 ;; Auto vars:     Size  Location     Type
  2414 ;;  fmt             1   11[BANK0 ] PTR PTR const unsigned c
  2415 ;;		 -> vfprintf@cfmt(1), 
  2416 ;;  c               1    8[BANK0 ] unsigned char 
  2417 ;;  n               2    9[BANK0 ] int 
  2418 ;; Return value:  Size  Location     Type
  2419 ;;                  2    6[BANK0 ] int 
  2420 ;; Registers used:
  2421 ;;		wreg, fsr0l, fsr0h, status,2, status,0, btemp+1, pclath, cstack
  2422 ;; Tracked objects:
  2423 ;;		On entry : 0/0
  2424 ;;		On exit  : 0/0
  2425 ;;		Unchanged: 0/0
  2426 ;; Data sizes:     COMMON   BANK0   BANK1   BANK3   BANK2
  2427 ;;      Params:         0       2       0       0       0
  2428 ;;      Locals:         0       4       0       0       0
  2429 ;;      Temps:          0       0       0       0       0
  2430 ;;      Totals:         0       6       0       0       0
  2431 ;;Total ram usage:        6 bytes
  2432 ;; Hardware stack levels used: 1
  2433 ;; Hardware stack levels required when called: 2
  2434 ;; This function calls:
  2435 ;;		___wmul
  2436 ;; This function is called by:
  2437 ;;		_vfpfcnvrt
  2438 ;; This function uses a non-reentrant model
  2439 ;;
  2440                           
  2441     1CA9                     _read_prec_or_width:	
  2442                           ;psect for function _read_prec_or_width
  2443                           
  2444                           
  2445                           ;incstack = 0
  2446                           ; Regs used in _read_prec_or_width: [wreg-fsr0h+status,2+status,0+btemp+1+pclath+cstack]
  2447                           ;read_prec_or_width@fmt stored from wreg
  2448     1CA9  1283               	bcf	3,5	;RP0=0, select bank0
  2449     1CAA  1303               	bcf	3,6	;RP1=0, select bank0
  2450     1CAB  00AB               	movwf	read_prec_or_width@fmt
  2451     1CAC                     l4289:
  2452                           
  2453                           ;C:\Program Files\Microchip\xc8\v2.46\pic\sources\c99\common\doprnt.c: 1159:     int n =
      +                           0;
  2454     1CAC  01A9               	clrf	read_prec_or_width@n
  2455     1CAD  01AA               	clrf	read_prec_or_width@n+1
  2456     1CAE                     l4291:
  2457                           
  2458                           ;C:\Program Files\Microchip\xc8\v2.46\pic\sources\c99\common\doprnt.c: 1160:     if ((*f
      +                          mt)[0] == '*') {
  2459     1CAE  082B               	movf	read_prec_or_width@fmt,w
  2460     1CAF  0084               	movwf	4
  2461     1CB0  1383               	bcf	3,7	;select IRP bank0
  2462     1CB1  0800               	movf	0,w
  2463     1CB2  0084               	movwf	4
  2464     1CB3  120A  118A  27C6  160A  158A  	fcall	stringdir
  2465     1CB8  3A2A               	xorlw	42
  2466     1CB9  1D03               	skipz
  2467     1CBA  2CBC               	goto	u7041
  2468     1CBB  2CBD               	goto	u7040
  2469     1CBC                     u7041:
  2470     1CBC  2CF1               	goto	l4299
  2471     1CBD                     u7040:
  2472     1CBD                     l4293:
  2473                           
  2474                           ;C:\Program Files\Microchip\xc8\v2.46\pic\sources\c99\common\doprnt.c: 1161:         ++*
      +                          fmt;
  2475     1CBD  3001               	movlw	1
  2476     1CBE  00FF               	movwf	btemp+1
  2477     1CBF  082B               	movf	read_prec_or_width@fmt,w
  2478     1CC0  0084               	movwf	4
  2479     1CC1  087F               	movf	btemp+1,w
  2480     1CC2  0780               	addwf	0,f
  2481                           
  2482                           ;C:\Program Files\Microchip\xc8\v2.46\pic\sources\c99\common\doprnt.c: 1162:         n =
      +                           (*(int *)__va_arg(*(int **)*ap, (int)0));
  2483     1CC3  0826               	movf	read_prec_or_width@ap,w
  2484     1CC4  0084               	movwf	4
  2485     1CC5  1783               	bsf	3,7	;select IRP bank2
  2486     1CC6  0800               	movf	0,w
  2487     1CC7  00FF               	movwf	btemp+1
  2488     1CC8  3002               	movlw	2
  2489     1CC9  0780               	addwf	0,f
  2490     1CCA  087F               	movf	btemp+1,w
  2491     1CCB  0084               	movwf	4
  2492     1CCC  1383               	bcf	3,7	;select IRP bank0
  2493     1CCD  0800               	movf	0,w
  2494     1CCE  00A9               	movwf	read_prec_or_width@n
  2495     1CCF  0A84               	incf	4,f
  2496     1CD0  0800               	movf	0,w
  2497     1CD1  00AA               	movwf	read_prec_or_width@n+1
  2498                           
  2499                           ;C:\Program Files\Microchip\xc8\v2.46\pic\sources\c99\common\doprnt.c: 1163:     } else 
      +                          {
  2500     1CD2  2D02               	goto	l4301
  2501     1CD3                     l4295:
  2502                           
  2503                           ;C:\Program Files\Microchip\xc8\v2.46\pic\sources\c99\common\doprnt.c: 1166:            
      +                           n = n * 10 + c;
  2504     1CD3  082A               	movf	read_prec_or_width@n+1,w
  2505     1CD4  00A1               	movwf	___wmul@multiplier+1
  2506     1CD5  0829               	movf	read_prec_or_width@n,w
  2507     1CD6  00A0               	movwf	___wmul@multiplier
  2508     1CD7  300A               	movlw	10
  2509     1CD8  00A2               	movwf	___wmul@multiplicand
  2510     1CD9  3000               	movlw	0
  2511     1CDA  00A3               	movwf	___wmul@multiplicand+1
  2512     1CDB  160A  158A  2281  160A  158A  	fcall	___wmul
  2513     1CE0  1283               	bcf	3,5	;RP0=0, select bank0
  2514     1CE1  1303               	bcf	3,6	;RP1=0, select bank0
  2515     1CE2  0828               	movf	read_prec_or_width@c,w
  2516     1CE3  0720               	addwf	?___wmul,w
  2517     1CE4  00A9               	movwf	read_prec_or_width@n
  2518     1CE5  3000               	movlw	0
  2519     1CE6  1803               	skipnc
  2520     1CE7  3001               	movlw	1
  2521     1CE8  0721               	addwf	?___wmul+1,w
  2522     1CE9  00AA               	movwf	read_prec_or_width@n+1
  2523     1CEA                     l4297:
  2524                           
  2525                           ;C:\Program Files\Microchip\xc8\v2.46\pic\sources\c99\common\doprnt.c: 1167:            
      +                           ++*fmt;
  2526     1CEA  3001               	movlw	1
  2527     1CEB  00FF               	movwf	btemp+1
  2528     1CEC  082B               	movf	read_prec_or_width@fmt,w
  2529     1CED  0084               	movwf	4
  2530     1CEE  087F               	movf	btemp+1,w
  2531     1CEF  1383               	bcf	3,7	;select IRP bank0
  2532     1CF0  0780               	addwf	0,f
  2533     1CF1                     l4299:
  2534                           
  2535                           ;C:\Program Files\Microchip\xc8\v2.46\pic\sources\c99\common\doprnt.c: 1165:         whi
      +                          le ((c = ((unsigned)(*fmt)[0]) - '0') < 10) {
  2536     1CF1  082B               	movf	read_prec_or_width@fmt,w
  2537     1CF2  0084               	movwf	4
  2538     1CF3  0800               	movf	0,w
  2539     1CF4  0084               	movwf	4
  2540     1CF5  120A  118A  27C6  160A  158A  	fcall	stringdir
  2541     1CFA  3ED0               	addlw	208
  2542     1CFB  00A8               	movwf	read_prec_or_width@c
  2543     1CFC  300A               	movlw	10
  2544     1CFD  0228               	subwf	read_prec_or_width@c,w
  2545     1CFE  1C03               	skipc
  2546     1CFF  2D01               	goto	u7051
  2547     1D00  2D02               	goto	u7050
  2548     1D01                     u7051:
  2549     1D01  2CD3               	goto	l4295
  2550     1D02                     u7050:
  2551     1D02                     l4301:
  2552                           
  2553                           ;C:\Program Files\Microchip\xc8\v2.46\pic\sources\c99\common\doprnt.c: 1170:     return 
      +                          n;
  2554     1D02  082A               	movf	read_prec_or_width@n+1,w
  2555     1D03  00A7               	movwf	?_read_prec_or_width+1
  2556     1D04  0829               	movf	read_prec_or_width@n,w
  2557     1D05  00A6               	movwf	?_read_prec_or_width
  2558     1D06                     l851:
  2559     1D06  0008               	return
  2560     1D07                     __end_of_read_prec_or_width:
  2561                           
  2562                           	psect	text5
  2563     1A81                     __ptext5:	
  2564 ;; *************** function ___wmul *****************
  2565 ;; Defined at:
  2566 ;;		line 15 in file "C:\Program Files\Microchip\xc8\v2.46\pic\sources\c99\common\Umul16.c"
  2567 ;; Parameters:    Size  Location     Type
  2568 ;;  multiplier      2    0[BANK0 ] unsigned int 
  2569 ;;  multiplicand    2    2[BANK0 ] unsigned int 
  2570 ;; Auto vars:     Size  Location     Type
  2571 ;;  product         2    4[BANK0 ] unsigned int 
  2572 ;; Return value:  Size  Location     Type
  2573 ;;                  2    0[BANK0 ] unsigned int 
  2574 ;; Registers used:
  2575 ;;		wreg, status,2, status,0
  2576 ;; Tracked objects:
  2577 ;;		On entry : 0/0
  2578 ;;		On exit  : 0/0
  2579 ;;		Unchanged: 0/0
  2580 ;; Data sizes:     COMMON   BANK0   BANK1   BANK3   BANK2
  2581 ;;      Params:         0       4       0       0       0
  2582 ;;      Locals:         0       2       0       0       0
  2583 ;;      Temps:          0       0       0       0       0
  2584 ;;      Totals:         0       6       0       0       0
  2585 ;;Total ram usage:        6 bytes
  2586 ;; Hardware stack levels used: 1
  2587 ;; Hardware stack levels required when called: 1
  2588 ;; This function calls:
  2589 ;;		Nothing
  2590 ;; This function is called by:
  2591 ;;		_read_prec_or_width
  2592 ;; This function uses a non-reentrant model
  2593 ;;
  2594                           
  2595     1A81                     ___wmul:	
  2596                           ;psect for function ___wmul
  2597                           
  2598     1A81                     l3803:	
  2599                           ;incstack = 0
  2600                           ; Regs used in ___wmul: [wreg+status,2+status,0]
  2601                           
  2602     1A81  1283               	bcf	3,5	;RP0=0, select bank0
  2603     1A82  1303               	bcf	3,6	;RP1=0, select bank0
  2604     1A83  01A4               	clrf	___wmul@product
  2605     1A84  01A5               	clrf	___wmul@product+1
  2606     1A85                     l3805:
  2607     1A85  1C20               	btfss	___wmul@multiplier,0
  2608     1A86  2A88               	goto	u6011
  2609     1A87  2A89               	goto	u6010
  2610     1A88                     u6011:
  2611     1A88  2A8F               	goto	l297
  2612     1A89                     u6010:
  2613     1A89                     l3807:
  2614     1A89  0822               	movf	___wmul@multiplicand,w
  2615     1A8A  07A4               	addwf	___wmul@product,f
  2616     1A8B  1803               	skipnc
  2617     1A8C  0AA5               	incf	___wmul@product+1,f
  2618     1A8D  0823               	movf	___wmul@multiplicand+1,w
  2619     1A8E  07A5               	addwf	___wmul@product+1,f
  2620     1A8F                     l297:
  2621     1A8F  3001               	movlw	1
  2622     1A90                     u6025:
  2623     1A90  1003               	clrc
  2624     1A91  0DA2               	rlf	___wmul@multiplicand,f
  2625     1A92  0DA3               	rlf	___wmul@multiplicand+1,f
  2626     1A93  3EFF               	addlw	-1
  2627     1A94  1D03               	skipz
  2628     1A95  2A90               	goto	u6025
  2629     1A96                     l3809:
  2630     1A96  3001               	movlw	1
  2631     1A97                     u6035:
  2632     1A97  1003               	clrc
  2633     1A98  0CA1               	rrf	___wmul@multiplier+1,f
  2634     1A99  0CA0               	rrf	___wmul@multiplier,f
  2635     1A9A  3EFF               	addlw	-1
  2636     1A9B  1D03               	skipz
  2637     1A9C  2A97               	goto	u6035
  2638     1A9D                     l3811:
  2639     1A9D  0820               	movf	___wmul@multiplier,w
  2640     1A9E  0421               	iorwf	___wmul@multiplier+1,w
  2641     1A9F  1D03               	btfss	3,2
  2642     1AA0  2AA2               	goto	u6041
  2643     1AA1  2AA3               	goto	u6040
  2644     1AA2                     u6041:
  2645     1AA2  2A85               	goto	l3805
  2646     1AA3                     u6040:
  2647     1AA3                     l3813:
  2648     1AA3  0825               	movf	___wmul@product+1,w
  2649     1AA4  00A1               	movwf	?___wmul+1
  2650     1AA5  0824               	movf	___wmul@product,w
  2651     1AA6  00A0               	movwf	?___wmul
  2652     1AA7                     l299:
  2653     1AA7  0008               	return
  2654     1AA8                     __end_of___wmul:
  2655                           
  2656                           	psect	text6
  2657     1466                     __ptext6:	
  2658 ;; *************** function _efgtoa *****************
  2659 ;; Defined at:
  2660 ;;		line 587 in file "C:\Program Files\Microchip\xc8\v2.46\pic\sources\c99\common\doprnt.c"
  2661 ;; Parameters:    Size  Location     Type
  2662 ;;  fp              1    wreg     PTR struct _IO_FILE
  2663 ;;		 -> sprintf@f(11), 
  2664 ;;  f               4    0[BANK1 ] PTR struct _IO_FILE
  2665 ;;  c               1    4[BANK1 ] unsigned char 
  2666 ;; Auto vars:     Size  Location     Type
  2667 ;;  fp              1   24[BANK1 ] PTR struct _IO_FILE
  2668 ;;		 -> sprintf@f(11), 
  2669 ;;  u               4   50[BANK1 ] struct flui
  2670 ;;  g               4   44[BANK1 ] struct flui
  2671 ;;  l               4   39[BANK1 ] struct flui
  2672 ;;  h               4   35[BANK1 ] struct flui
  2673 ;;  ou              4   29[BANK1 ] struct flui
  2674 ;;  n               2   48[BANK1 ] int 
  2675 ;;  i               2   33[BANK1 ] int 
  2676 ;;  w               2   27[BANK1 ] int 
  2677 ;;  e               2   25[BANK1 ] int 
  2678 ;;  m               2   22[BANK1 ] int 
  2679 ;;  d               2   20[BANK1 ] int 
  2680 ;;  t               2   13[BANK1 ] int 
  2681 ;;  p               2   11[BANK1 ] int 
  2682 ;;  ne              2    9[BANK1 ] int 
  2683 ;;  sign            1   43[BANK1 ] unsigned char 
  2684 ;;  nmode           1   19[BANK1 ] unsigned char 
  2685 ;;  mode            1   18[BANK1 ] unsigned char 
  2686 ;;  pp              1   17[BANK1 ] unsigned char 
  2687 ;;  esign           1    0        unsigned char 
  2688 ;; Return value:  Size  Location     Type
  2689 ;;                  1    wreg      void 
  2690 ;; Registers used:
  2691 ;;		wreg, fsr0l, fsr0h, status,2, status,0, btemp+1, pclath, cstack
  2692 ;; Tracked objects:
  2693 ;;		On entry : 0/0
  2694 ;;		On exit  : 0/0
  2695 ;;		Unchanged: 0/0
  2696 ;; Data sizes:     COMMON   BANK0   BANK1   BANK3   BANK2
  2697 ;;      Params:         0       0       5       0       0
  2698 ;;      Locals:         0       0      45       0       0
  2699 ;;      Temps:          0       0       4       0       0
  2700 ;;      Totals:         0       0      54       0       0
  2701 ;;Total ram usage:       54 bytes
  2702 ;; Hardware stack levels used: 1
  2703 ;; Hardware stack levels required when called: 5
  2704 ;; This function calls:
  2705 ;;		___fladd
  2706 ;;		___fldiv
  2707 ;;		___fleq
  2708 ;;		___flge
  2709 ;;		___flmul
  2710 ;;		___flneg
  2711 ;;		___flsub
  2712 ;;		___fltol
  2713 ;;		___fpclassifyf
  2714 ;;		_floorf
  2715 ;;		_labs
  2716 ;;		_memcpy
  2717 ;;		_pad
  2718 ;;		_strcpy
  2719 ;; This function is called by:
  2720 ;;		_vfpfcnvrt
  2721 ;; This function uses a non-reentrant model
  2722 ;;
  2723                           
  2724     1466                     _efgtoa:	
  2725                           ;psect for function _efgtoa
  2726                           
  2727                           
  2728                           ;incstack = 0
  2729 ;; hardware stack exceeded
  2730                           ; Regs used in _efgtoa: [wreg-fsr0h+status,2+status,0+btemp+1+pclath+cstack]
  2731                           ;efgtoa@fp stored from wreg
  2732     1466  1683               	bsf	3,5	;RP0=1, select bank1
  2733     1467  1303               	bcf	3,6	;RP1=0, select bank1
  2734     1468  00B8               	movwf	efgtoa@fp^(0+128)
  2735     1469                     l4081:
  2736                           
  2737                           ;C:\Program Files\Microchip\xc8\v2.46\pic\sources\c99\common\doprnt.c: 587: static void 
      +                          efgtoa(FILE *fp, long double f, char c);C:\Program Files\Microchip\xc8\v2.46\pic\sources
      +                          \c99\common\doprnt.c: 588: {;C:\Program Files\Microchip\xc8\v2.46\pic\sources\c99\common
      +                          \doprnt.c: 589:     char mode, nmode, pp, sign, esign;;C:\Program Files\Microchip\xc8\v2
      +                          .46\pic\sources\c99\common\doprnt.c: 590:     int d, e, i, m, n, ne, p, t, w;;C:\Program
      +                           Files\Microchip\xc8\v2.46\pic\sources\c99\common\doprnt.c: 591:     long double h, l;
  2738     1469  01CB               	clrf	efgtoa@sign^(0+128)
  2739     146A                     l4083:
  2740                           
  2741                           ;C:\Program Files\Microchip\xc8\v2.46\pic\sources\c99\common\doprnt.c: 596:     g.f = f;
  2742     146A  0823               	movf	(efgtoa@f+3)^(0+128),w
  2743     146B  00CF               	movwf	(efgtoa@g+3)^(0+128)
  2744     146C  0822               	movf	(efgtoa@f+2)^(0+128),w
  2745     146D  00CE               	movwf	(efgtoa@g+2)^(0+128)
  2746     146E  0821               	movf	(efgtoa@f+1)^(0+128),w
  2747     146F  00CD               	movwf	(efgtoa@g+1)^(0+128)
  2748     1470  0820               	movf	efgtoa@f^(0+128),w
  2749     1471  00CC               	movwf	efgtoa@g^(0+128)
  2750     1472                     l4085:
  2751                           
  2752                           ;C:\Program Files\Microchip\xc8\v2.46\pic\sources\c99\common\doprnt.c: 597:     if (g.f 
      +                          < 0.0) {
  2753     1472  084F               	movf	(efgtoa@g+3)^(0+128),w
  2754     1473  1283               	bcf	3,5	;RP0=0, select bank0
  2755     1474  1303               	bcf	3,6	;RP1=0, select bank0
  2756     1475  00E5               	movwf	___flge@ff1+3
  2757     1476  1683               	bsf	3,5	;RP0=1, select bank1
  2758     1477  1303               	bcf	3,6	;RP1=0, select bank1
  2759     1478  084E               	movf	(efgtoa@g+2)^(0+128),w
  2760     1479  1283               	bcf	3,5	;RP0=0, select bank0
  2761     147A  1303               	bcf	3,6	;RP1=0, select bank0
  2762     147B  00E4               	movwf	___flge@ff1+2
  2763     147C  1683               	bsf	3,5	;RP0=1, select bank1
  2764     147D  1303               	bcf	3,6	;RP1=0, select bank1
  2765     147E  084D               	movf	(efgtoa@g+1)^(0+128),w
  2766     147F  1283               	bcf	3,5	;RP0=0, select bank0
  2767     1480  1303               	bcf	3,6	;RP1=0, select bank0
  2768     1481  00E3               	movwf	___flge@ff1+1
  2769     1482  1683               	bsf	3,5	;RP0=1, select bank1
  2770     1483  1303               	bcf	3,6	;RP1=0, select bank1
  2771     1484  084C               	movf	efgtoa@g^(0+128),w
  2772     1485  1283               	bcf	3,5	;RP0=0, select bank0
  2773     1486  1303               	bcf	3,6	;RP1=0, select bank0
  2774     1487  00E2               	movwf	___flge@ff1
  2775     1488  3000               	movlw	0
  2776     1489  00E9               	movwf	___flge@ff2+3
  2777     148A  3000               	movlw	0
  2778     148B  00E8               	movwf	___flge@ff2+2
  2779     148C  3000               	movlw	0
  2780     148D  00E7               	movwf	___flge@ff2+1
  2781     148E  3000               	movlw	0
  2782     148F  00E6               	movwf	___flge@ff2
  2783     1490  160A  158A  26A2  160A  118A  	fcall	___flge
  2784     1495  1803               	btfsc	3,0
  2785     1496  2C98               	goto	u6691
  2786     1497  2C99               	goto	u6690
  2787     1498                     u6691:
  2788     1498  2CD0               	goto	l4091
  2789     1499                     u6690:
  2790     1499                     l4087:
  2791                           
  2792                           ;C:\Program Files\Microchip\xc8\v2.46\pic\sources\c99\common\doprnt.c: 598:         sign
      +                           = 1;
  2793     1499  1683               	bsf	3,5	;RP0=1, select bank1
  2794     149A  1303               	bcf	3,6	;RP1=0, select bank1
  2795     149B  01CB               	clrf	efgtoa@sign^(0+128)
  2796     149C  0ACB               	incf	efgtoa@sign^(0+128),f
  2797     149D                     l4089:
  2798                           
  2799                           ;C:\Program Files\Microchip\xc8\v2.46\pic\sources\c99\common\doprnt.c: 599:         g.f 
      +                          = -g.f;
  2800     149D  084F               	movf	(efgtoa@g+3)^(0+128),w
  2801     149E  1283               	bcf	3,5	;RP0=0, select bank0
  2802     149F  1303               	bcf	3,6	;RP1=0, select bank0
  2803     14A0  00A3               	movwf	___flneg@f1+3
  2804     14A1  1683               	bsf	3,5	;RP0=1, select bank1
  2805     14A2  1303               	bcf	3,6	;RP1=0, select bank1
  2806     14A3  084E               	movf	(efgtoa@g+2)^(0+128),w
  2807     14A4  1283               	bcf	3,5	;RP0=0, select bank0
  2808     14A5  1303               	bcf	3,6	;RP1=0, select bank0
  2809     14A6  00A2               	movwf	___flneg@f1+2
  2810     14A7  1683               	bsf	3,5	;RP0=1, select bank1
  2811     14A8  1303               	bcf	3,6	;RP1=0, select bank1
  2812     14A9  084D               	movf	(efgtoa@g+1)^(0+128),w
  2813     14AA  1283               	bcf	3,5	;RP0=0, select bank0
  2814     14AB  1303               	bcf	3,6	;RP1=0, select bank0
  2815     14AC  00A1               	movwf	___flneg@f1+1
  2816     14AD  1683               	bsf	3,5	;RP0=1, select bank1
  2817     14AE  1303               	bcf	3,6	;RP1=0, select bank1
  2818     14AF  084C               	movf	efgtoa@g^(0+128),w
  2819     14B0  1283               	bcf	3,5	;RP0=0, select bank0
  2820     14B1  1303               	bcf	3,6	;RP1=0, select bank0
  2821     14B2  00A0               	movwf	___flneg@f1
  2822     14B3  160A  158A  21EB  160A  118A  	fcall	___flneg
  2823     14B8  1283               	bcf	3,5	;RP0=0, select bank0
  2824     14B9  1303               	bcf	3,6	;RP1=0, select bank0
  2825     14BA  0823               	movf	?___flneg+3,w
  2826     14BB  1683               	bsf	3,5	;RP0=1, select bank1
  2827     14BC  1303               	bcf	3,6	;RP1=0, select bank1
  2828     14BD  00CF               	movwf	(efgtoa@g+3)^(0+128)
  2829     14BE  1283               	bcf	3,5	;RP0=0, select bank0
  2830     14BF  1303               	bcf	3,6	;RP1=0, select bank0
  2831     14C0  0822               	movf	?___flneg+2,w
  2832     14C1  1683               	bsf	3,5	;RP0=1, select bank1
  2833     14C2  1303               	bcf	3,6	;RP1=0, select bank1
  2834     14C3  00CE               	movwf	(efgtoa@g+2)^(0+128)
  2835     14C4  1283               	bcf	3,5	;RP0=0, select bank0
  2836     14C5  1303               	bcf	3,6	;RP1=0, select bank0
  2837     14C6  0821               	movf	?___flneg+1,w
  2838     14C7  1683               	bsf	3,5	;RP0=1, select bank1
  2839     14C8  1303               	bcf	3,6	;RP1=0, select bank1
  2840     14C9  00CD               	movwf	(efgtoa@g+1)^(0+128)
  2841     14CA  1283               	bcf	3,5	;RP0=0, select bank0
  2842     14CB  1303               	bcf	3,6	;RP1=0, select bank0
  2843     14CC  0820               	movf	?___flneg,w
  2844     14CD  1683               	bsf	3,5	;RP0=1, select bank1
  2845     14CE  1303               	bcf	3,6	;RP1=0, select bank1
  2846     14CF  00CC               	movwf	efgtoa@g^(0+128)
  2847     14D0                     l4091:
  2848                           
  2849                           ;C:\Program Files\Microchip\xc8\v2.46\pic\sources\c99\common\doprnt.c: 603:     n = 0;
  2850     14D0  1683               	bsf	3,5	;RP0=1, select bank1
  2851     14D1  1303               	bcf	3,6	;RP1=0, select bank1
  2852     14D2  01D0               	clrf	efgtoa@n^(0+128)
  2853     14D3  01D1               	clrf	(efgtoa@n+1)^(0+128)
  2854     14D4                     l4093:
  2855                           
  2856                           ;C:\Program Files\Microchip\xc8\v2.46\pic\sources\c99\common\doprnt.c: 604:     w = widt
      +                          h;
  2857     14D4  086A               	movf	(_width+1)^(0+128),w
  2858     14D5  00BC               	movwf	(efgtoa@w+1)^(0+128)
  2859     14D6  0869               	movf	_width^(0+128),w
  2860     14D7  00BB               	movwf	efgtoa@w^(0+128)
  2861     14D8                     l4095:
  2862                           
  2863                           ;C:\Program Files\Microchip\xc8\v2.46\pic\sources\c99\common\doprnt.c: 605:     if (sign
  2864     14D8  084B               	movf	efgtoa@sign^(0+128),w
  2865     14D9  1903               	btfsc	3,2
  2866     14DA  2CDC               	goto	u6701
  2867     14DB  2CDD               	goto	u6700
  2868     14DC                     u6701:
  2869     14DC  2CED               	goto	l4103
  2870     14DD                     u6700:
  2871     14DD                     l4097:
  2872                           
  2873                           ;C:\Program Files\Microchip\xc8\v2.46\pic\sources\c99\common\doprnt.c: 609:    ) {;C:\Pr
      +                          ogram Files\Microchip\xc8\v2.46\pic\sources\c99\common\doprnt.c: 610:   sign = sign ? '-
      +                          ' : '+';
  2874     14DD  084B               	movf	efgtoa@sign^(0+128),w
  2875     14DE  1D03               	btfss	3,2
  2876     14DF  2CE1               	goto	u6711
  2877     14E0  2CE2               	goto	u6710
  2878     14E1                     u6711:
  2879     14E1  2CE7               	goto	l4101
  2880     14E2                     u6710:
  2881     14E2                     l4099:
  2882     14E2  302B               	movlw	43
  2883     14E3  00AF               	movwf	_efgtoa$921^(0+128)
  2884     14E4  3000               	movlw	0
  2885     14E5  00B0               	movwf	(_efgtoa$921^(0+128)+1)
  2886     14E6  2CEB               	goto	l799
  2887     14E7                     l4101:
  2888     14E7  302D               	movlw	45
  2889     14E8  00AF               	movwf	_efgtoa$921^(0+128)
  2890     14E9  3000               	movlw	0
  2891     14EA  00B0               	movwf	(_efgtoa$921^(0+128)+1)
  2892     14EB                     l799:
  2893     14EB  082F               	movf	_efgtoa$921^(0+128),w
  2894     14EC  00CB               	movwf	efgtoa@sign^(0+128)
  2895     14ED                     l4103:
  2896                           
  2897                           ;C:\Program Files\Microchip\xc8\v2.46\pic\sources\c99\common\doprnt.c: 619:     if (( __
      +                          fpclassifyf(g.f) == 1 )) {
  2898     14ED  084F               	movf	(efgtoa@g+3)^(0+128),w
  2899     14EE  1283               	bcf	3,5	;RP0=0, select bank0
  2900     14EF  1303               	bcf	3,6	;RP1=0, select bank0
  2901     14F0  00A3               	movwf	___fpclassifyf@x+3
  2902     14F1  1683               	bsf	3,5	;RP0=1, select bank1
  2903     14F2  1303               	bcf	3,6	;RP1=0, select bank1
  2904     14F3  084E               	movf	(efgtoa@g+2)^(0+128),w
  2905     14F4  1283               	bcf	3,5	;RP0=0, select bank0
  2906     14F5  1303               	bcf	3,6	;RP1=0, select bank0
  2907     14F6  00A2               	movwf	___fpclassifyf@x+2
  2908     14F7  1683               	bsf	3,5	;RP0=1, select bank1
  2909     14F8  1303               	bcf	3,6	;RP1=0, select bank1
  2910     14F9  084D               	movf	(efgtoa@g+1)^(0+128),w
  2911     14FA  1283               	bcf	3,5	;RP0=0, select bank0
  2912     14FB  1303               	bcf	3,6	;RP1=0, select bank0
  2913     14FC  00A1               	movwf	___fpclassifyf@x+1
  2914     14FD  1683               	bsf	3,5	;RP0=1, select bank1
  2915     14FE  1303               	bcf	3,6	;RP1=0, select bank1
  2916     14FF  084C               	movf	efgtoa@g^(0+128),w
  2917     1500  1283               	bcf	3,5	;RP0=0, select bank0
  2918     1501  1303               	bcf	3,6	;RP1=0, select bank0
  2919     1502  00A0               	movwf	___fpclassifyf@x
  2920     1503  160A  118A  2009  160A  118A  	fcall	___fpclassifyf
  2921     1508  1283               	bcf	3,5	;RP0=0, select bank0
  2922     1509  1303               	bcf	3,6	;RP1=0, select bank0
  2923     150A  0320               	decf	?___fpclassifyf,w
  2924     150B  0421               	iorwf	?___fpclassifyf+1,w
  2925     150C  1D03               	btfss	3,2
  2926     150D  2D0F               	goto	u6721
  2927     150E  2D10               	goto	u6720
  2928     150F                     u6721:
  2929     150F  2D57               	goto	l4117
  2930     1510                     u6720:
  2931     1510                     l4105:
  2932                           
  2933                           ;C:\Program Files\Microchip\xc8\v2.46\pic\sources\c99\common\doprnt.c: 620:   if (sign) 
      +                          {
  2934     1510  1683               	bsf	3,5	;RP0=1, select bank1
  2935     1511  1303               	bcf	3,6	;RP1=0, select bank1
  2936     1512  084B               	movf	efgtoa@sign^(0+128),w
  2937     1513  1903               	btfsc	3,2
  2938     1514  2D16               	goto	u6731
  2939     1515  2D17               	goto	u6730
  2940     1516                     u6731:
  2941     1516  2D27               	goto	l4109
  2942     1517                     u6730:
  2943     1517                     l4107:
  2944                           
  2945                           ;C:\Program Files\Microchip\xc8\v2.46\pic\sources\c99\common\doprnt.c: 621:    dbuf[0] =
      +                           sign;
  2946     1517  084B               	movf	efgtoa@sign^(0+128),w
  2947     1518  1283               	bcf	3,5	;RP0=0, select bank2
  2948     1519  1703               	bsf	3,6	;RP1=1, select bank2
  2949     151A  0090               	movwf	_dbuf^(0+256)
  2950                           
  2951                           ;C:\Program Files\Microchip\xc8\v2.46\pic\sources\c99\common\doprnt.c: 622:    w--;
  2952     151B  30FF               	movlw	255
  2953     151C  1683               	bsf	3,5	;RP0=1, select bank1
  2954     151D  1303               	bcf	3,6	;RP1=0, select bank1
  2955     151E  07BB               	addwf	efgtoa@w^(0+128),f
  2956     151F  1803               	skipnc
  2957     1520  0ABC               	incf	(efgtoa@w+1)^(0+128),f
  2958     1521  30FF               	movlw	255
  2959     1522  07BC               	addwf	(efgtoa@w+1)^(0+128),f
  2960                           
  2961                           ;C:\Program Files\Microchip\xc8\v2.46\pic\sources\c99\common\doprnt.c: 623:    n = 1;
  2962     1523  3001               	movlw	1
  2963     1524  00D0               	movwf	efgtoa@n^(0+128)
  2964     1525  3000               	movlw	0
  2965     1526  00D1               	movwf	(efgtoa@n^(0+128)+1)
  2966     1527                     l4109:
  2967                           
  2968                           ;C:\Program Files\Microchip\xc8\v2.46\pic\sources\c99\common\doprnt.c: 631:   {;C:\Progr
      +                          am Files\Microchip\xc8\v2.46\pic\sources\c99\common\doprnt.c: 632:             strcpy(&d
      +                          buf[n], "inf");
  2969     1527  3027               	movlw	(low ((STR_4-__stringbase)| (0+32768)))& (0+255)
  2970     1528  1283               	bcf	3,5	;RP0=0, select bank0
  2971     1529  1303               	bcf	3,6	;RP1=0, select bank0
  2972     152A  00A0               	movwf	strcpy@src
  2973     152B  1683               	bsf	3,5	;RP0=1, select bank1
  2974     152C  1303               	bcf	3,6	;RP1=0, select bank1
  2975     152D  0850               	movf	efgtoa@n^(0+128),w
  2976     152E  3E10               	addlw	(low (_dbuf| (0+256)))& (0+255)
  2977     152F  160A  158A  221F  160A  118A  	fcall	_strcpy
  2978     1534                     l4111:
  2979                           
  2980                           ;C:\Program Files\Microchip\xc8\v2.46\pic\sources\c99\common\doprnt.c: 633:         };C:
      +                          \Program Files\Microchip\xc8\v2.46\pic\sources\c99\common\doprnt.c: 634:         w -= ((
      +                          sizeof("inf")/sizeof("inf"[0]))-1);
  2981     1534  30FD               	movlw	253
  2982     1535  1683               	bsf	3,5	;RP0=1, select bank1
  2983     1536  1303               	bcf	3,6	;RP1=0, select bank1
  2984     1537  07BB               	addwf	efgtoa@w^(0+128),f
  2985     1538  1803               	skipnc
  2986     1539  0ABC               	incf	(efgtoa@w+1)^(0+128),f
  2987     153A  30FF               	movlw	255
  2988     153B  07BC               	addwf	(efgtoa@w+1)^(0+128),f
  2989     153C                     l4113:
  2990                           
  2991                           ;C:\Program Files\Microchip\xc8\v2.46\pic\sources\c99\common\doprnt.c: 635:         retu
      +                          rn (void) pad(fp, &dbuf[0], w);
  2992     153C  3010               	movlw	(low (_dbuf| (0+256)))& (0+255)
  2993     153D  1283               	bcf	3,5	;RP0=0, select bank0
  2994     153E  1303               	bcf	3,6	;RP1=0, select bank0
  2995     153F  00AF               	movwf	pad@buf
  2996     1540  1683               	bsf	3,5	;RP0=1, select bank1
  2997     1541  1303               	bcf	3,6	;RP1=0, select bank1
  2998     1542  083C               	movf	(efgtoa@w+1)^(0+128),w
  2999     1543  1283               	bcf	3,5	;RP0=0, select bank0
  3000     1544  1303               	bcf	3,6	;RP1=0, select bank0
  3001     1545  00B1               	movwf	pad@p+1
  3002     1546  1683               	bsf	3,5	;RP0=1, select bank1
  3003     1547  1303               	bcf	3,6	;RP1=0, select bank1
  3004     1548  083B               	movf	efgtoa@w^(0+128),w
  3005     1549  1283               	bcf	3,5	;RP0=0, select bank0
  3006     154A  1303               	bcf	3,6	;RP1=0, select bank0
  3007     154B  00B0               	movwf	pad@p
  3008     154C  1683               	bsf	3,5	;RP0=1, select bank1
  3009     154D  1303               	bcf	3,6	;RP1=0, select bank1
  3010     154E  0838               	movf	efgtoa@fp^(0+128),w
  3011     154F  160A  158A  2323  160A  118A  	fcall	_pad
  3012     1554                     L1:
  3013     1554  120A  158A  2FFF   	goto	l802
  3014     1557                     l4117:
  3015                           
  3016                           ;C:\Program Files\Microchip\xc8\v2.46\pic\sources\c99\common\doprnt.c: 637:     if (( __
      +                          fpclassifyf(g.f) == 0 )) {
  3017     1557  1683               	bsf	3,5	;RP0=1, select bank1
  3018     1558  1303               	bcf	3,6	;RP1=0, select bank1
  3019     1559  084F               	movf	(efgtoa@g+3)^(0+128),w
  3020     155A  1283               	bcf	3,5	;RP0=0, select bank0
  3021     155B  1303               	bcf	3,6	;RP1=0, select bank0
  3022     155C  00A3               	movwf	___fpclassifyf@x+3
  3023     155D  1683               	bsf	3,5	;RP0=1, select bank1
  3024     155E  1303               	bcf	3,6	;RP1=0, select bank1
  3025     155F  084E               	movf	(efgtoa@g+2)^(0+128),w
  3026     1560  1283               	bcf	3,5	;RP0=0, select bank0
  3027     1561  1303               	bcf	3,6	;RP1=0, select bank0
  3028     1562  00A2               	movwf	___fpclassifyf@x+2
  3029     1563  1683               	bsf	3,5	;RP0=1, select bank1
  3030     1564  1303               	bcf	3,6	;RP1=0, select bank1
  3031     1565  084D               	movf	(efgtoa@g+1)^(0+128),w
  3032     1566  1283               	bcf	3,5	;RP0=0, select bank0
  3033     1567  1303               	bcf	3,6	;RP1=0, select bank0
  3034     1568  00A1               	movwf	___fpclassifyf@x+1
  3035     1569  1683               	bsf	3,5	;RP0=1, select bank1
  3036     156A  1303               	bcf	3,6	;RP1=0, select bank1
  3037     156B  084C               	movf	efgtoa@g^(0+128),w
  3038     156C  1283               	bcf	3,5	;RP0=0, select bank0
  3039     156D  1303               	bcf	3,6	;RP1=0, select bank0
  3040     156E  00A0               	movwf	___fpclassifyf@x
  3041     156F  160A  118A  2009  160A  118A  	fcall	___fpclassifyf
  3042     1574  1283               	bcf	3,5	;RP0=0, select bank0
  3043     1575  1303               	bcf	3,6	;RP1=0, select bank0
  3044     1576  0820               	movf	?___fpclassifyf,w
  3045     1577  0421               	iorwf	?___fpclassifyf+1,w
  3046     1578  1D03               	btfss	3,2
  3047     1579  2D7B               	goto	u6741
  3048     157A  2D7E               	goto	u6740
  3049     157B                     u6741:
  3050     157B  120A  158A  2823   	goto	l4131
  3051     157E                     u6740:
  3052     157E                     l4119:
  3053                           
  3054                           ;C:\Program Files\Microchip\xc8\v2.46\pic\sources\c99\common\doprnt.c: 638:   if (sign) 
      +                          {
  3055     157E  1683               	bsf	3,5	;RP0=1, select bank1
  3056     157F  1303               	bcf	3,6	;RP1=0, select bank1
  3057     1580  084B               	movf	efgtoa@sign^(0+128),w
  3058     1581  1903               	btfsc	3,2
  3059     1582  2D84               	goto	u6751
  3060     1583  2D85               	goto	u6750
  3061     1584                     u6751:
  3062     1584  2D95               	goto	l4123
  3063     1585                     u6750:
  3064     1585                     l4121:
  3065                           
  3066                           ;C:\Program Files\Microchip\xc8\v2.46\pic\sources\c99\common\doprnt.c: 639:    dbuf[0] =
      +                           sign;
  3067     1585  084B               	movf	efgtoa@sign^(0+128),w
  3068     1586  1283               	bcf	3,5	;RP0=0, select bank2
  3069     1587  1703               	bsf	3,6	;RP1=1, select bank2
  3070     1588  0090               	movwf	_dbuf^(0+256)
  3071                           
  3072                           ;C:\Program Files\Microchip\xc8\v2.46\pic\sources\c99\common\doprnt.c: 640:    w--;
  3073     1589  30FF               	movlw	255
  3074     158A  1683               	bsf	3,5	;RP0=1, select bank1
  3075     158B  1303               	bcf	3,6	;RP1=0, select bank1
  3076     158C  07BB               	addwf	efgtoa@w^(0+128),f
  3077     158D  1803               	skipnc
  3078     158E  0ABC               	incf	(efgtoa@w+1)^(0+128),f
  3079     158F  30FF               	movlw	255
  3080     1590  07BC               	addwf	(efgtoa@w+1)^(0+128),f
  3081                           
  3082                           ;C:\Program Files\Microchip\xc8\v2.46\pic\sources\c99\common\doprnt.c: 641:    n = 1;
  3083     1591  3001               	movlw	1
  3084     1592  00D0               	movwf	efgtoa@n^(0+128)
  3085     1593  3000               	movlw	0
  3086     1594  00D1               	movwf	(efgtoa@n^(0+128)+1)
  3087     1595                     l4123:
  3088                           
  3089                           ;C:\Program Files\Microchip\xc8\v2.46\pic\sources\c99\common\doprnt.c: 649:   {;C:\Progr
      +                          am Files\Microchip\xc8\v2.46\pic\sources\c99\common\doprnt.c: 650:             strcpy(&d
      +                          buf[n], "nan");
  3090     1595  302B               	movlw	(low ((STR_7-__stringbase)| (0+32768)))& (0+255)
  3091     1596  1283               	bcf	3,5	;RP0=0, select bank0
  3092     1597  1303               	bcf	3,6	;RP1=0, select bank0
  3093     1598  00A0               	movwf	strcpy@src
  3094     1599  1683               	bsf	3,5	;RP0=1, select bank1
  3095     159A  1303               	bcf	3,6	;RP1=0, select bank1
  3096     159B  0850               	movf	efgtoa@n^(0+128),w
  3097     159C  3E10               	addlw	(low (_dbuf| (0+256)))& (0+255)
  3098     159D  160A  158A  221F  160A  118A  	fcall	_strcpy
  3099     15A2                     l4125:
  3100                           
  3101                           ;C:\Program Files\Microchip\xc8\v2.46\pic\sources\c99\common\doprnt.c: 651:         };C:
      +                          \Program Files\Microchip\xc8\v2.46\pic\sources\c99\common\doprnt.c: 652:         w -= ((
      +                          sizeof("nan")/sizeof("nan"[0]))-1);
  3102     15A2  30FD               	movlw	253
  3103     15A3  1683               	bsf	3,5	;RP0=1, select bank1
  3104     15A4  1303               	bcf	3,6	;RP1=0, select bank1
  3105     15A5  07BB               	addwf	efgtoa@w^(0+128),f
  3106     15A6  1803               	skipnc
  3107     15A7  0ABC               	incf	(efgtoa@w+1)^(0+128),f
  3108     15A8  30FF               	movlw	255
  3109     15A9  07BC               	addwf	(efgtoa@w+1)^(0+128),f
  3110     15AA                     l4127:
  3111                           
  3112                           ;C:\Program Files\Microchip\xc8\v2.46\pic\sources\c99\common\doprnt.c: 653:         retu
      +                          rn (void) pad(fp, &dbuf[0], w);
  3113     15AA  3010               	movlw	(low (_dbuf| (0+256)))& (0+255)
  3114     15AB  1283               	bcf	3,5	;RP0=0, select bank0
  3115     15AC  1303               	bcf	3,6	;RP1=0, select bank0
  3116     15AD  00AF               	movwf	pad@buf
  3117     15AE  1683               	bsf	3,5	;RP0=1, select bank1
  3118     15AF  1303               	bcf	3,6	;RP1=0, select bank1
  3119     15B0  083C               	movf	(efgtoa@w+1)^(0+128),w
  3120     15B1  1283               	bcf	3,5	;RP0=0, select bank0
  3121     15B2  1303               	bcf	3,6	;RP1=0, select bank0
  3122     15B3  00B1               	movwf	pad@p+1
  3123     15B4  1683               	bsf	3,5	;RP0=1, select bank1
  3124     15B5  1303               	bcf	3,6	;RP1=0, select bank1
  3125     15B6  083B               	movf	efgtoa@w^(0+128),w
  3126     15B7  1283               	bcf	3,5	;RP0=0, select bank0
  3127     15B8  1303               	bcf	3,6	;RP1=0, select bank0
  3128     15B9  00B0               	movwf	pad@p
  3129     15BA  1683               	bsf	3,5	;RP0=1, select bank1
  3130     15BB  1303               	bcf	3,6	;RP1=0, select bank1
  3131     15BC  0838               	movf	efgtoa@fp^(0+128),w
  3132     15BD  160A  158A  2323  160A  118A  	fcall	_pad
  3133     15C2  2D54               	goto	L1
  3134                           
  3135                           	psect	text7
  3136     1A1F                     __ptext7:	
  3137 ;; *************** function _strcpy *****************
  3138 ;; Defined at:
  3139 ;;		line 3 in file "C:\Program Files\Microchip\xc8\v2.46\pic\sources\c99\common\strcpy.c"
  3140 ;; Parameters:    Size  Location     Type
  3141 ;;  dest            1    wreg     PTR unsigned char 
  3142 ;;		 -> dbuf(80), 
  3143 ;;  src             1    0[BANK0 ] PTR const unsigned char 
  3144 ;;		 -> STR_7(4), STR_4(4), 
  3145 ;; Auto vars:     Size  Location     Type
  3146 ;;  dest            1    2[BANK0 ] PTR unsigned char 
  3147 ;;		 -> dbuf(80), 
  3148 ;;  d               1    1[BANK0 ] PTR unsigned char 
  3149 ;;		 -> dbuf(80), 
  3150 ;; Return value:  Size  Location     Type
  3151 ;;                  1    wreg      PTR unsigned char 
  3152 ;; Registers used:
  3153 ;;		wreg, fsr0l, fsr0h, status,2, status,0, btemp+1, pclath
  3154 ;; Tracked objects:
  3155 ;;		On entry : 0/0
  3156 ;;		On exit  : 0/0
  3157 ;;		Unchanged: 0/0
  3158 ;; Data sizes:     COMMON   BANK0   BANK1   BANK3   BANK2
  3159 ;;      Params:         0       1       0       0       0
  3160 ;;      Locals:         0       2       0       0       0
  3161 ;;      Temps:          0       0       0       0       0
  3162 ;;      Totals:         0       3       0       0       0
  3163 ;;Total ram usage:        3 bytes
  3164 ;; Hardware stack levels used: 2
  3165 ;; Hardware stack levels required when called: 1
  3166 ;; This function calls:
  3167 ;;		Nothing
  3168 ;; This function is called by:
  3169 ;;		_efgtoa
  3170 ;; This function uses a non-reentrant model
  3171 ;;
  3172                           
  3173     1A1F                     _strcpy:	
  3174                           ;psect for function _strcpy
  3175                           
  3176                           
  3177                           ;incstack = 0
  3178                           ; Regs used in _strcpy: [wreg-fsr0h+status,2+status,0+btemp+1+pclath]
  3179                           ;strcpy@dest stored from wreg
  3180     1A1F  1283               	bcf	3,5	;RP0=0, select bank0
  3181     1A20  1303               	bcf	3,6	;RP1=0, select bank0
  3182     1A21  00A2               	movwf	strcpy@dest
  3183     1A22                     l4059:
  3184     1A22  0822               	movf	strcpy@dest,w
  3185     1A23  00A1               	movwf	strcpy@d
  3186     1A24                     l4061:
  3187     1A24  3001               	movlw	1
  3188     1A25  07A0               	addwf	strcpy@src,f
  3189     1A26  30FF               	movlw	-1
  3190     1A27  0720               	addwf	strcpy@src,w
  3191     1A28  0084               	movwf	4
  3192     1A29  120A  118A  27C6  160A  158A  	fcall	stringdir
  3193     1A2E  00FF               	movwf	btemp+1
  3194     1A2F  0821               	movf	strcpy@d,w
  3195     1A30  0084               	movwf	4
  3196     1A31  3001               	movlw	1
  3197     1A32  07A1               	addwf	strcpy@d,f
  3198     1A33  087F               	movf	btemp+1,w
  3199     1A34  1783               	bsf	3,7	;select IRP bank2
  3200     1A35  0080               	movwf	0
  3201     1A36  0800               	movf	0,w
  3202     1A37  1D03               	btfss	3,2
  3203     1A38  2A3A               	goto	u6661
  3204     1A39  2A3B               	goto	u6660
  3205     1A3A                     u6661:
  3206     1A3A  2A24               	goto	l4061
  3207     1A3B                     u6660:
  3208     1A3B                     l945:
  3209     1A3B  0008               	return
  3210     1A3C                     __end_of_strcpy:
  3211                           
  3212                           	psect	text8
  3213     1B23                     __ptext8:	
  3214 ;; *************** function _pad *****************
  3215 ;; Defined at:
  3216 ;;		line 193 in file "C:\Program Files\Microchip\xc8\v2.46\pic\sources\c99\common\doprnt.c"
  3217 ;; Parameters:    Size  Location     Type
  3218 ;;  fp              1    wreg     PTR struct _IO_FILE
  3219 ;;		 -> sprintf@f(11), 
  3220 ;;  buf             1   15[BANK0 ] PTR unsigned char 
  3221 ;;		 -> dbuf(80), 
  3222 ;;  p               2   16[BANK0 ] int 
  3223 ;; Auto vars:     Size  Location     Type
  3224 ;;  fp              1   21[BANK0 ] PTR struct _IO_FILE
  3225 ;;		 -> sprintf@f(11), 
  3226 ;;  i               2   19[BANK0 ] int 
  3227 ;; Return value:  Size  Location     Type
  3228 ;;                  1    wreg      void 
  3229 ;; Registers used:
  3230 ;;		wreg, fsr0l, fsr0h, status,2, status,0, pclath, cstack
  3231 ;; Tracked objects:
  3232 ;;		On entry : 0/0
  3233 ;;		On exit  : 0/0
  3234 ;;		Unchanged: 0/0
  3235 ;; Data sizes:     COMMON   BANK0   BANK1   BANK3   BANK2
  3236 ;;      Params:         0       3       0       0       0
  3237 ;;      Locals:         0       3       0       0       0
  3238 ;;      Temps:          0       1       0       0       0
  3239 ;;      Totals:         0       7       0       0       0
  3240 ;;Total ram usage:        7 bytes
  3241 ;; Hardware stack levels used: 1
  3242 ;; Hardware stack levels required when called: 4
  3243 ;; This function calls:
  3244 ;;		_fputc
  3245 ;;		_fputs
  3246 ;; This function is called by:
  3247 ;;		_efgtoa
  3248 ;; This function uses a non-reentrant model
  3249 ;;
  3250                           
  3251     1B23                     _pad:	
  3252                           ;psect for function _pad
  3253                           
  3254                           
  3255                           ;incstack = 0
  3256 ;; hardware stack exceeded
  3257                           ; Regs used in _pad: [wreg-fsr0h+status,2+status,0+pclath+cstack]
  3258                           ;pad@fp stored from wreg
  3259     1B23  1283               	bcf	3,5	;RP0=0, select bank0
  3260     1B24  1303               	bcf	3,6	;RP1=0, select bank0
  3261     1B25  00B5               	movwf	pad@fp
  3262     1B26                     l4023:
  3263                           
  3264                           ;C:\Program Files\Microchip\xc8\v2.46\pic\sources\c99\common\doprnt.c: 193: static void 
      +                          pad(FILE *fp, char *buf, int p);C:\Program Files\Microchip\xc8\v2.46\pic\sources\c99\com
      +                          mon\doprnt.c: 194: {;C:\Program Files\Microchip\xc8\v2.46\pic\sources\c99\common\doprnt.
      +                          c: 195:     int i;;C:\Program Files\Microchip\xc8\v2.46\pic\sources\c99\common\doprnt.c:
      +                           205:  if (p < 0) {
  3265     1B26  1FB1               	btfss	pad@p+1,7
  3266     1B27  2B29               	goto	u6561
  3267     1B28  2B2A               	goto	u6560
  3268     1B29                     u6561:
  3269     1B29  2B2C               	goto	l787
  3270     1B2A                     u6560:
  3271     1B2A                     l4025:
  3272                           
  3273                           ;C:\Program Files\Microchip\xc8\v2.46\pic\sources\c99\common\doprnt.c: 206:   p = 0;
  3274     1B2A  01B0               	clrf	pad@p
  3275     1B2B  01B1               	clrf	pad@p+1
  3276     1B2C                     l787:	
  3277                           ;C:\Program Files\Microchip\xc8\v2.46\pic\sources\c99\common\doprnt.c: 207:  }
  3278                           
  3279                           
  3280                           ;C:\Program Files\Microchip\xc8\v2.46\pic\sources\c99\common\doprnt.c: 208:     i = 0;
  3281     1B2C  01B3               	clrf	pad@i
  3282     1B2D  01B4               	clrf	pad@i+1
  3283                           
  3284                           ;C:\Program Files\Microchip\xc8\v2.46\pic\sources\c99\common\doprnt.c: 209:     while (i
      +                           < p) {
  3285     1B2E  2B44               	goto	l4031
  3286     1B2F                     l4027:
  3287                           
  3288                           ;C:\Program Files\Microchip\xc8\v2.46\pic\sources\c99\common\doprnt.c: 210:         fput
      +                          c(' ', fp);
  3289     1B2F  3020               	movlw	32
  3290     1B30  1283               	bcf	3,5	;RP0=0, select bank0
  3291     1B31  1303               	bcf	3,6	;RP1=0, select bank0
  3292     1B32  00A0               	movwf	fputc@c
  3293     1B33  3000               	movlw	0
  3294     1B34  00A1               	movwf	fputc@c+1
  3295     1B35  0835               	movf	pad@fp,w
  3296     1B36  00A2               	movwf	fputc@fp
  3297     1B37  160A  158A  23F3  160A  158A  	fcall	_fputc
  3298     1B3C                     l4029:
  3299                           
  3300                           ;C:\Program Files\Microchip\xc8\v2.46\pic\sources\c99\common\doprnt.c: 211:         ++i;
  3301     1B3C  3001               	movlw	1
  3302     1B3D  1283               	bcf	3,5	;RP0=0, select bank0
  3303     1B3E  1303               	bcf	3,6	;RP1=0, select bank0
  3304     1B3F  07B3               	addwf	pad@i,f
  3305     1B40  1803               	skipnc
  3306     1B41  0AB4               	incf	pad@i+1,f
  3307     1B42  3000               	movlw	0
  3308     1B43  07B4               	addwf	pad@i+1,f
  3309     1B44                     l4031:
  3310                           
  3311                           ;C:\Program Files\Microchip\xc8\v2.46\pic\sources\c99\common\doprnt.c: 209:     while (i
      +                           < p) {
  3312     1B44  0834               	movf	pad@i+1,w
  3313     1B45  3A80               	xorlw	128
  3314     1B46  00B2               	movwf	??_pad
  3315     1B47  0831               	movf	pad@p+1,w
  3316     1B48  3A80               	xorlw	128
  3317     1B49  0232               	subwf	??_pad,w
  3318     1B4A  1D03               	skipz
  3319     1B4B  2B4E               	goto	u6575
  3320     1B4C  0830               	movf	pad@p,w
  3321     1B4D  0233               	subwf	pad@i,w
  3322     1B4E                     u6575:
  3323     1B4E  1C03               	skipc
  3324     1B4F  2B51               	goto	u6571
  3325     1B50  2B52               	goto	u6570
  3326     1B51                     u6571:
  3327     1B51  2B2F               	goto	l4027
  3328     1B52                     u6570:
  3329     1B52                     l4033:
  3330                           
  3331                           ;C:\Program Files\Microchip\xc8\v2.46\pic\sources\c99\common\doprnt.c: 218:         fput
      +                          s((const char *)buf, fp);
  3332     1B52  1283               	bcf	3,5	;RP0=0, select bank0
  3333     1B53  1303               	bcf	3,6	;RP1=0, select bank0
  3334     1B54  0835               	movf	pad@fp,w
  3335     1B55  00A8               	movwf	fputs@fp
  3336     1B56  082F               	movf	pad@buf,w
  3337     1B57  160A  158A  22F9  160A  158A  	fcall	_fputs
  3338     1B5C                     l791:
  3339     1B5C  0008               	return
  3340     1B5D                     __end_of_pad:
  3341                           
  3342                           	psect	text9
  3343     1AF9                     __ptext9:	
  3344 ;; *************** function _fputs *****************
  3345 ;; Defined at:
  3346 ;;		line 8 in file "C:\Program Files\Microchip\xc8\v2.46\pic\sources\c99\common\nf_fputs.c"
  3347 ;; Parameters:    Size  Location     Type
  3348 ;;  s               1    wreg     PTR const unsigned char 
  3349 ;;		 -> dbuf(80), 
  3350 ;;  fp              1    8[BANK0 ] PTR struct _IO_FILE
  3351 ;;		 -> sprintf@f(11), 
  3352 ;; Auto vars:     Size  Location     Type
  3353 ;;  s               1   11[BANK0 ] PTR const unsigned char 
  3354 ;;		 -> dbuf(80), 
  3355 ;;  i               2   13[BANK0 ] int 
  3356 ;;  c               1   12[BANK0 ] unsigned char 
  3357 ;; Return value:  Size  Location     Type
  3358 ;;                  2    8[BANK0 ] int 
  3359 ;; Registers used:
  3360 ;;		wreg, fsr0l, fsr0h, status,2, status,0, pclath, cstack
  3361 ;; Tracked objects:
  3362 ;;		On entry : 0/0
  3363 ;;		On exit  : 0/0
  3364 ;;		Unchanged: 0/0
  3365 ;; Data sizes:     COMMON   BANK0   BANK1   BANK3   BANK2
  3366 ;;      Params:         0       1       0       0       0
  3367 ;;      Locals:         0       4       0       0       0
  3368 ;;      Temps:          0       2       0       0       0
  3369 ;;      Totals:         0       7       0       0       0
  3370 ;;Total ram usage:        7 bytes
  3371 ;; Hardware stack levels used: 1
  3372 ;; Hardware stack levels required when called: 3
  3373 ;; This function calls:
  3374 ;;		_fputc
  3375 ;; This function is called by:
  3376 ;;		_pad
  3377 ;; This function uses a non-reentrant model
  3378 ;;
  3379                           
  3380     1AF9                     _fputs:	
  3381                           ;psect for function _fputs
  3382                           
  3383                           
  3384                           ;incstack = 0
  3385 ;; hardware stack exceeded
  3386                           ; Regs used in _fputs: [wreg-fsr0h+status,2+status,0+pclath+cstack]
  3387                           ;fputs@s stored from wreg
  3388     1AF9  1283               	bcf	3,5	;RP0=0, select bank0
  3389     1AFA  1303               	bcf	3,6	;RP1=0, select bank0
  3390     1AFB  00AB               	movwf	fputs@s
  3391     1AFC                     l3795:
  3392     1AFC  01AD               	clrf	fputs@i
  3393     1AFD  01AE               	clrf	fputs@i+1
  3394     1AFE  2B15               	goto	l3801
  3395     1AFF                     l3797:
  3396     1AFF  082C               	movf	fputs@c,w
  3397     1B00  00A9               	movwf	??_fputs
  3398     1B01  01AA               	clrf	??_fputs+1
  3399     1B02  0829               	movf	??_fputs,w
  3400     1B03  00A0               	movwf	fputc@c
  3401     1B04  082A               	movf	??_fputs+1,w
  3402     1B05  00A1               	movwf	fputc@c+1
  3403     1B06  0828               	movf	fputs@fp,w
  3404     1B07  00A2               	movwf	fputc@fp
  3405     1B08  160A  158A  23F3  160A  158A  	fcall	_fputc
  3406     1B0D                     l3799:
  3407     1B0D  3001               	movlw	1
  3408     1B0E  1283               	bcf	3,5	;RP0=0, select bank0
  3409     1B0F  1303               	bcf	3,6	;RP1=0, select bank0
  3410     1B10  07AD               	addwf	fputs@i,f
  3411     1B11  1803               	skipnc
  3412     1B12  0AAE               	incf	fputs@i+1,f
  3413     1B13  3000               	movlw	0
  3414     1B14  07AE               	addwf	fputs@i+1,f
  3415     1B15                     l3801:
  3416     1B15  082D               	movf	fputs@i,w
  3417     1B16  072B               	addwf	fputs@s,w
  3418     1B17  00A9               	movwf	??_fputs
  3419     1B18  0829               	movf	??_fputs,w
  3420     1B19  0084               	movwf	4
  3421     1B1A  1783               	bsf	3,7	;select IRP bank2
  3422     1B1B  0800               	movf	0,w
  3423     1B1C  00AC               	movwf	fputs@c
  3424     1B1D  082C               	movf	fputs@c,w
  3425     1B1E  1D03               	btfss	3,2
  3426     1B1F  2B21               	goto	u6001
  3427     1B20  2B22               	goto	u6000
  3428     1B21                     u6001:
  3429     1B21  2AFF               	goto	l3797
  3430     1B22                     u6000:
  3431     1B22                     l936:
  3432     1B22  0008               	return
  3433     1B23                     __end_of_fputs:
  3434                           
  3435                           	psect	text10
  3436     1BF3                     __ptext10:	
  3437 ;; *************** function _fputc *****************
  3438 ;; Defined at:
  3439 ;;		line 8 in file "C:\Program Files\Microchip\xc8\v2.46\pic\sources\c99\common\nf_fputc.c"
  3440 ;; Parameters:    Size  Location     Type
  3441 ;;  c               2    0[BANK0 ] int 
  3442 ;;  fp              1    2[BANK0 ] PTR struct _IO_FILE
  3443 ;;		 -> sprintf@f(11), 
  3444 ;; Auto vars:     Size  Location     Type
  3445 ;;		None
  3446 ;; Return value:  Size  Location     Type
  3447 ;;                  2    0[BANK0 ] int 
  3448 ;; Registers used:
  3449 ;;		wreg, fsr0l, fsr0h, status,2, status,0, pclath, cstack
  3450 ;; Tracked objects:
  3451 ;;		On entry : 0/0
  3452 ;;		On exit  : 0/0
  3453 ;;		Unchanged: 0/0
  3454 ;; Data sizes:     COMMON   BANK0   BANK1   BANK3   BANK2
  3455 ;;      Params:         0       3       0       0       0
  3456 ;;      Locals:         0       0       0       0       0
  3457 ;;      Temps:          0       5       0       0       0
  3458 ;;      Totals:         0       8       0       0       0
  3459 ;;Total ram usage:        8 bytes
  3460 ;; Hardware stack levels used: 1
  3461 ;; Hardware stack levels required when called: 2
  3462 ;; This function calls:
  3463 ;;		_putch
  3464 ;; This function is called by:
  3465 ;;		_pad
  3466 ;;		_vfpfcnvrt
  3467 ;;		_fputs
  3468 ;; This function uses a non-reentrant model
  3469 ;;
  3470                           
  3471     1BF3                     _fputc:	
  3472                           ;psect for function _fputc
  3473                           
  3474     1BF3                     l3567:	
  3475                           ;incstack = 0
  3476                           ; Regs used in _fputc: [wreg-fsr0h+status,2+status,0+pclath+cstack]
  3477                           
  3478     1BF3  1283               	bcf	3,5	;RP0=0, select bank0
  3479     1BF4  1303               	bcf	3,6	;RP1=0, select bank0
  3480     1BF5  0822               	movf	fputc@fp,w
  3481     1BF6  1903               	btfsc	3,2
  3482     1BF7  2BF9               	goto	u5471
  3483     1BF8  2BFA               	goto	u5470
  3484     1BF9                     u5471:
  3485     1BF9  2BFF               	goto	l3571
  3486     1BFA                     u5470:
  3487     1BFA                     l3569:
  3488     1BFA  0822               	movf	fputc@fp,w
  3489     1BFB  1D03               	btfss	3,2
  3490     1BFC  2BFE               	goto	u5481
  3491     1BFD  2BFF               	goto	u5480
  3492     1BFE                     u5481:
  3493     1BFE  2C06               	goto	l3573
  3494     1BFF                     u5480:
  3495     1BFF                     l3571:
  3496     1BFF  0820               	movf	fputc@c,w
  3497     1C00  120A  118A  27FF  160A  158A  	fcall	_putch
  3498     1C05  2C4C               	goto	l928
  3499     1C06                     l3573:
  3500     1C06  0822               	movf	fputc@fp,w
  3501     1C07  3E09               	addlw	9
  3502     1C08  0084               	movwf	4
  3503     1C09  1783               	bsf	3,7	;select IRP bank2
  3504     1C0A  0800               	movf	0,w
  3505     1C0B  00A3               	movwf	??_fputc
  3506     1C0C  0A84               	incf	4,f
  3507     1C0D  0800               	movf	0,w
  3508     1C0E  00A4               	movwf	??_fputc+1
  3509     1C0F  0823               	movf	??_fputc,w
  3510     1C10  0424               	iorwf	??_fputc+1,w
  3511     1C11  1903               	btfsc	3,2
  3512     1C12  2C14               	goto	u5491
  3513     1C13  2C15               	goto	u5490
  3514     1C14                     u5491:
  3515     1C14  2C33               	goto	l3577
  3516     1C15                     u5490:
  3517     1C15                     l3575:
  3518     1C15  0822               	movf	fputc@fp,w
  3519     1C16  3E09               	addlw	9
  3520     1C17  0084               	movwf	4
  3521     1C18  0800               	movf	0,w
  3522     1C19  00A3               	movwf	??_fputc
  3523     1C1A  0A84               	incf	4,f
  3524     1C1B  0800               	movf	0,w
  3525     1C1C  00A4               	movwf	??_fputc+1
  3526     1C1D  0822               	movf	fputc@fp,w
  3527     1C1E  3E02               	addlw	2
  3528     1C1F  0084               	movwf	4
  3529     1C20  0800               	movf	0,w
  3530     1C21  00A5               	movwf	??_fputc+2
  3531     1C22  0A84               	incf	4,f
  3532     1C23  0800               	movf	0,w
  3533     1C24  00A6               	movwf	??_fputc+3
  3534     1C25  0826               	movf	??_fputc+3,w
  3535     1C26  3A80               	xorlw	128
  3536     1C27  00A7               	movwf	??_fputc+4
  3537     1C28  0824               	movf	??_fputc+1,w
  3538     1C29  3A80               	xorlw	128
  3539     1C2A  0227               	subwf	??_fputc+4,w
  3540     1C2B  1D03               	skipz
  3541     1C2C  2C2F               	goto	u5505
  3542     1C2D  0823               	movf	??_fputc,w
  3543     1C2E  0225               	subwf	??_fputc+2,w
  3544     1C2F                     u5505:
  3545     1C2F  1803               	skipnc
  3546     1C30  2C32               	goto	u5501
  3547     1C31  2C33               	goto	u5500
  3548     1C32                     u5501:
  3549     1C32  2C4C               	goto	l928
  3550     1C33                     u5500:
  3551     1C33                     l3577:
  3552     1C33  1283               	bcf	3,5	;RP0=0, select bank0
  3553     1C34  1303               	bcf	3,6	;RP1=0, select bank0
  3554     1C35  0822               	movf	fputc@fp,w
  3555     1C36  3E02               	addlw	2
  3556     1C37  0084               	movwf	4
  3557     1C38  1783               	bsf	3,7	;select IRP bank2
  3558     1C39  0800               	movf	0,w
  3559     1C3A  00A3               	movwf	??_fputc
  3560     1C3B  0822               	movf	fputc@fp,w
  3561     1C3C  0084               	movwf	4
  3562     1C3D  0800               	movf	0,w
  3563     1C3E  0723               	addwf	??_fputc,w
  3564     1C3F  00A4               	movwf	??_fputc+1
  3565     1C40  0824               	movf	??_fputc+1,w
  3566     1C41  0084               	movwf	4
  3567     1C42  0820               	movf	fputc@c,w
  3568     1C43  0080               	movwf	0
  3569     1C44  0822               	movf	fputc@fp,w
  3570     1C45  3E02               	addlw	2
  3571     1C46  0084               	movwf	4
  3572     1C47  3001               	movlw	1
  3573     1C48  0780               	addwf	0,f
  3574     1C49  0A84               	incf	4,f
  3575     1C4A  1803               	skipnc
  3576     1C4B  0A80               	incf	0,f
  3577     1C4C                     l928:
  3578     1C4C  0008               	return
  3579     1C4D                     __end_of_fputc:
  3580                           
  3581                           	psect	text11
  3582     07FF                     __ptext11:	
  3583 ;; *************** function _putch *****************
  3584 ;; Defined at:
  3585 ;;		line 7 in file "C:\Program Files\Microchip\xc8\v2.46\pic\sources\c99\common\putch.c"
  3586 ;; Parameters:    Size  Location     Type
  3587 ;;  c               1    wreg     unsigned char 
  3588 ;; Auto vars:     Size  Location     Type
  3589 ;;  c               1    0[COMMON] unsigned char 
  3590 ;; Return value:  Size  Location     Type
  3591 ;;                  1    wreg      void 
  3592 ;; Registers used:
  3593 ;;		wreg
  3594 ;; Tracked objects:
  3595 ;;		On entry : 0/0
  3596 ;;		On exit  : 0/0
  3597 ;;		Unchanged: 0/0
  3598 ;; Data sizes:     COMMON   BANK0   BANK1   BANK3   BANK2
  3599 ;;      Params:         0       0       0       0       0
  3600 ;;      Locals:         0       0       0       0       0
  3601 ;;      Temps:          0       0       0       0       0
  3602 ;;      Totals:         0       0       0       0       0
  3603 ;;Total ram usage:        0 bytes
  3604 ;; Hardware stack levels used: 1
  3605 ;; Hardware stack levels required when called: 1
  3606 ;; This function calls:
  3607 ;;		Nothing
  3608 ;; This function is called by:
  3609 ;;		_fputc
  3610 ;; This function uses a non-reentrant model
  3611 ;;
  3612                           
  3613     07FF                     _putch:	
  3614                           ;psect for function _putch
  3615                           
  3616     07FF                     l939:	
  3617                           ;incstack = 0
  3618                           ; Regs used in _putch: [wreg]
  3619                           
  3620     07FF  0008               	return
  3621     0800                     __end_of_putch:
  3622                           
  3623                           	psect	text12
  3624     1AA8                     __ptext12:	
  3625 ;; *************** function _memcpy *****************
  3626 ;; Defined at:
  3627 ;;		line 4 in file "C:\Program Files\Microchip\xc8\v2.46\pic\sources\c99\common\memcpy.c"
  3628 ;; Parameters:    Size  Location     Type
  3629 ;;  d1              1    wreg     PTR void 
  3630 ;;		 -> dbuf(80), 
  3631 ;;  s1              1    0[BANK0 ] PTR const void 
  3632 ;;		 -> dbuf(80), 
  3633 ;;  n               2    1[BANK0 ] unsigned int 
  3634 ;; Auto vars:     Size  Location     Type
  3635 ;;  d1              1    4[BANK0 ] PTR void 
  3636 ;;		 -> dbuf(80), 
  3637 ;;  s               1    6[BANK0 ] PTR const unsigned char 
  3638 ;;		 -> dbuf(80), 
  3639 ;;  d               1    5[BANK0 ] PTR unsigned char 
  3640 ;;		 -> dbuf(80), 
  3641 ;;  tmp             1    3[BANK0 ] unsigned char 
  3642 ;; Return value:  Size  Location     Type
  3643 ;;                  1    wreg      PTR void 
  3644 ;; Registers used:
  3645 ;;		wreg, fsr0l, fsr0h, status,2, status,0, btemp+1
  3646 ;; Tracked objects:
  3647 ;;		On entry : 0/0
  3648 ;;		On exit  : 0/0
  3649 ;;		Unchanged: 0/0
  3650 ;; Data sizes:     COMMON   BANK0   BANK1   BANK3   BANK2
  3651 ;;      Params:         0       3       0       0       0
  3652 ;;      Locals:         0       4       0       0       0
  3653 ;;      Temps:          0       0       0       0       0
  3654 ;;      Totals:         0       7       0       0       0
  3655 ;;Total ram usage:        7 bytes
  3656 ;; Hardware stack levels used: 1
  3657 ;; Hardware stack levels required when called: 1
  3658 ;; This function calls:
  3659 ;;		Nothing
  3660 ;; This function is called by:
  3661 ;;		_efgtoa
  3662 ;; This function uses a non-reentrant model
  3663 ;;
  3664                           
  3665     1AA8                     _memcpy:	
  3666                           ;psect for function _memcpy
  3667                           
  3668                           
  3669                           ;incstack = 0
  3670                           ; Regs used in _memcpy: [wreg-fsr0h+status,2+status,0+btemp+1]
  3671                           ;memcpy@d1 stored from wreg
  3672     1AA8  1283               	bcf	3,5	;RP0=0, select bank0
  3673     1AA9  1303               	bcf	3,6	;RP1=0, select bank0
  3674     1AAA  00A4               	movwf	memcpy@d1
  3675     1AAB                     l4071:
  3676     1AAB  0820               	movf	memcpy@s1,w
  3677     1AAC  00A6               	movwf	memcpy@s
  3678     1AAD  0824               	movf	memcpy@d1,w
  3679     1AAE  00A5               	movwf	memcpy@d
  3680     1AAF  2AC1               	goto	l4079
  3681     1AB0                     l4073:
  3682     1AB0  0826               	movf	memcpy@s,w
  3683     1AB1  0084               	movwf	4
  3684     1AB2  1783               	bsf	3,7	;select IRP bank2
  3685     1AB3  0800               	movf	0,w
  3686     1AB4  00A3               	movwf	memcpy@tmp
  3687     1AB5                     l4075:
  3688     1AB5  3001               	movlw	1
  3689     1AB6  00FF               	movwf	btemp+1
  3690     1AB7  087F               	movf	btemp+1,w
  3691     1AB8  07A6               	addwf	memcpy@s,f
  3692     1AB9                     l4077:
  3693     1AB9  0825               	movf	memcpy@d,w
  3694     1ABA  0084               	movwf	4
  3695     1ABB  0823               	movf	memcpy@tmp,w
  3696     1ABC  0080               	movwf	0
  3697     1ABD  3001               	movlw	1
  3698     1ABE  00FF               	movwf	btemp+1
  3699     1ABF  087F               	movf	btemp+1,w
  3700     1AC0  07A5               	addwf	memcpy@d,f
  3701     1AC1                     l4079:
  3702     1AC1  3001               	movlw	1
  3703     1AC2  02A1               	subwf	memcpy@n,f
  3704     1AC3  3000               	movlw	0
  3705     1AC4  1C03               	skipc
  3706     1AC5  03A2               	decf	memcpy@n+1,f
  3707     1AC6  02A2               	subwf	memcpy@n+1,f
  3708     1AC7  0A21               	incf	memcpy@n,w
  3709     1AC8  1D03               	skipz
  3710     1AC9  2ACE               	goto	u6681
  3711     1ACA  0A22               	incf	memcpy@n+1,w
  3712     1ACB  1D03               	btfss	3,2
  3713     1ACC  2ACE               	goto	u6681
  3714     1ACD  2ACF               	goto	u6680
  3715     1ACE                     u6681:
  3716     1ACE  2AB0               	goto	l4073
  3717     1ACF                     u6680:
  3718     1ACF                     l916:
  3719     1ACF  0008               	return
  3720     1AD0                     __end_of_memcpy:
  3721                           
  3722                           	psect	text13
  3723     1A08                     __ptext13:	
  3724 ;; *************** function _labs *****************
  3725 ;; Defined at:
  3726 ;;		line 1 in file "C:\Program Files\Microchip\xc8\v2.46\pic\sources\c99\common\labs.c"
  3727 ;; Parameters:    Size  Location     Type
  3728 ;;  a               4    0[BANK0 ] long 
  3729 ;; Auto vars:     Size  Location     Type
  3730 ;;		None
  3731 ;; Return value:  Size  Location     Type
  3732 ;;                  4    0[BANK0 ] long 
  3733 ;; Registers used:
  3734 ;;		wreg, status,2, status,0
  3735 ;; Tracked objects:
  3736 ;;		On entry : 0/0
  3737 ;;		On exit  : 0/0
  3738 ;;		Unchanged: 0/0
  3739 ;; Data sizes:     COMMON   BANK0   BANK1   BANK3   BANK2
  3740 ;;      Params:         0       4       0       0       0
  3741 ;;      Locals:         0       0       0       0       0
  3742 ;;      Temps:          0       0       0       0       0
  3743 ;;      Totals:         0       4       0       0       0
  3744 ;;Total ram usage:        4 bytes
  3745 ;; Hardware stack levels used: 1
  3746 ;; Hardware stack levels required when called: 1
  3747 ;; This function calls:
  3748 ;;		Nothing
  3749 ;; This function is called by:
  3750 ;;		_efgtoa
  3751 ;; This function uses a non-reentrant model
  3752 ;;
  3753                           
  3754     1A08                     _labs:	
  3755                           ;psect for function _labs
  3756                           
  3757     1A08                     l4063:	
  3758                           ;incstack = 0
  3759                           ; Regs used in _labs: [wreg+status,2+status,0]
  3760                           
  3761     1A08  1283               	bcf	3,5	;RP0=0, select bank0
  3762     1A09  1303               	bcf	3,6	;RP1=0, select bank0
  3763     1A0A  1BA3               	btfsc	labs@a+3,7
  3764     1A0B  2A0D               	goto	u6671
  3765     1A0C  2A0E               	goto	u6670
  3766     1A0D                     u6671:
  3767     1A0D  2A0F               	goto	l4067
  3768     1A0E                     u6670:
  3769     1A0E                     l4065:
  3770     1A0E  2A1E               	goto	l910
  3771     1A0F                     l4067:
  3772     1A0F  0920               	comf	labs@a,w
  3773     1A10  00A0               	movwf	?_labs
  3774     1A11  0921               	comf	labs@a+1,w
  3775     1A12  00A1               	movwf	?_labs+1
  3776     1A13  0922               	comf	labs@a+2,w
  3777     1A14  00A2               	movwf	?_labs+2
  3778     1A15  0923               	comf	labs@a+3,w
  3779     1A16  00A3               	movwf	?_labs+3
  3780     1A17  0AA0               	incf	?_labs,f
  3781     1A18  1903               	skipnz
  3782     1A19  0AA1               	incf	?_labs+1,f
  3783     1A1A  1903               	skipnz
  3784     1A1B  0AA2               	incf	?_labs+2,f
  3785     1A1C  1903               	skipnz
  3786     1A1D  0AA3               	incf	?_labs+3,f
  3787     1A1E                     l910:
  3788     1A1E  0008               	return
  3789     1A1F                     __end_of_labs:
  3790                           
  3791                           	psect	text14
  3792     122E                     __ptext14:	
  3793 ;; *************** function _floorf *****************
  3794 ;; Defined at:
  3795 ;;		line 3 in file "C:\Program Files\Microchip\xc8\v2.46\pic\sources\c99\common\floorf.c"
  3796 ;; Parameters:    Size  Location     Type
  3797 ;;  x               4   40[BANK0 ] float 
  3798 ;; Auto vars:     Size  Location     Type
  3799 ;;  u               4   56[BANK0 ] struct .
  3800 ;;  m               4   50[BANK0 ] unsigned long 
  3801 ;;  e               2   54[BANK0 ] int 
  3802 ;; Return value:  Size  Location     Type
  3803 ;;                  4   40[BANK0 ] float 
  3804 ;; Registers used:
  3805 ;;		wreg, status,2, status,0, btemp+1
  3806 ;; Tracked objects:
  3807 ;;		On entry : 0/0
  3808 ;;		On exit  : 0/0
  3809 ;;		Unchanged: 0/0
  3810 ;; Data sizes:     COMMON   BANK0   BANK1   BANK3   BANK2
  3811 ;;      Params:         0       4       0       0       0
  3812 ;;      Locals:         0      10       0       0       0
  3813 ;;      Temps:          0       6       0       0       0
  3814 ;;      Totals:         0      20       0       0       0
  3815 ;;Total ram usage:       20 bytes
  3816 ;; Hardware stack levels used: 1
  3817 ;; Hardware stack levels required when called: 1
  3818 ;; This function calls:
  3819 ;;		Nothing
  3820 ;; This function is called by:
  3821 ;;		_efgtoa
  3822 ;; This function uses a non-reentrant model
  3823 ;;
  3824                           
  3825     122E                     _floorf:	
  3826                           ;psect for function _floorf
  3827                           
  3828     122E                     l2927:	
  3829                           ;incstack = 0
  3830                           ; Regs used in _floorf: [wreg+status,2+status,0+btemp+1]
  3831                           
  3832     122E  1683               	bsf	3,5	;RP0=1, select bank3
  3833     122F  1703               	bsf	3,6	;RP1=1, select bank3
  3834     1230  083A               	movf	(floorf@F521+3)^(0+384),w
  3835     1231  1283               	bcf	3,5	;RP0=0, select bank0
  3836     1232  1303               	bcf	3,6	;RP1=0, select bank0
  3837     1233  00DB               	movwf	floorf@u+3
  3838     1234  1683               	bsf	3,5	;RP0=1, select bank3
  3839     1235  1703               	bsf	3,6	;RP1=1, select bank3
  3840     1236  0839               	movf	(floorf@F521+2)^(0+384),w
  3841     1237  1283               	bcf	3,5	;RP0=0, select bank0
  3842     1238  1303               	bcf	3,6	;RP1=0, select bank0
  3843     1239  00DA               	movwf	floorf@u+2
  3844     123A  1683               	bsf	3,5	;RP0=1, select bank3
  3845     123B  1703               	bsf	3,6	;RP1=1, select bank3
  3846     123C  0838               	movf	(floorf@F521+1)^(0+384),w
  3847     123D  1283               	bcf	3,5	;RP0=0, select bank0
  3848     123E  1303               	bcf	3,6	;RP1=0, select bank0
  3849     123F  00D9               	movwf	floorf@u+1
  3850     1240  1683               	bsf	3,5	;RP0=1, select bank3
  3851     1241  1703               	bsf	3,6	;RP1=1, select bank3
  3852     1242  0837               	movf	floorf@F521^(0+384),w
  3853     1243  1283               	bcf	3,5	;RP0=0, select bank0
  3854     1244  1303               	bcf	3,6	;RP1=0, select bank0
  3855     1245  00D8               	movwf	floorf@u
  3856     1246  084B               	movf	floorf@x+3,w
  3857     1247  00DB               	movwf	floorf@u+3
  3858     1248  084A               	movf	floorf@x+2,w
  3859     1249  00DA               	movwf	floorf@u+2
  3860     124A  0849               	movf	floorf@x+1,w
  3861     124B  00D9               	movwf	floorf@u+1
  3862     124C  0848               	movf	floorf@x,w
  3863     124D  00D8               	movwf	floorf@u
  3864     124E                     l2929:
  3865     124E  0858               	movf	floorf@u,w
  3866     124F  00CC               	movwf	??_floorf
  3867     1250  0859               	movf	floorf@u+1,w
  3868     1251  00CD               	movwf	??_floorf+1
  3869     1252  085A               	movf	floorf@u+2,w
  3870     1253  00CE               	movwf	??_floorf+2
  3871     1254  085B               	movf	floorf@u+3,w
  3872     1255  00CF               	movwf	??_floorf+3
  3873     1256  3017               	movlw	23
  3874     1257                     u4315:
  3875     1257  1003               	clrc
  3876     1258  0CCF               	rrf	??_floorf+3,f
  3877     1259  0CCE               	rrf	??_floorf+2,f
  3878     125A  0CCD               	rrf	??_floorf+1,f
  3879     125B  0CCC               	rrf	??_floorf,f
  3880     125C                     u4310:
  3881     125C  3EFF               	addlw	-1
  3882     125D  1D03               	skipz
  3883     125E  2A57               	goto	u4315
  3884     125F  30FF               	movlw	255
  3885     1260  054C               	andwf	??_floorf,w
  3886     1261  00D0               	movwf	??_floorf+4
  3887     1262  3000               	movlw	0
  3888     1263  054D               	andwf	??_floorf+1,w
  3889     1264  00D1               	movwf	??_floorf+5
  3890     1265  0850               	movf	??_floorf+4,w
  3891     1266  3E81               	addlw	129
  3892     1267  00D6               	movwf	floorf@e
  3893     1268  0851               	movf	??_floorf+5,w
  3894     1269  1803               	skipnc
  3895     126A  3E01               	addlw	1
  3896     126B  3EFF               	addlw	255
  3897     126C  00D7               	movwf	floorf@e+1
  3898     126D                     l2931:
  3899     126D  0857               	movf	floorf@e+1,w
  3900     126E  3A80               	xorlw	128
  3901     126F  00FF               	movwf	btemp+1
  3902     1270  3080               	movlw	128
  3903     1271  027F               	subwf	btemp+1,w
  3904     1272  1D03               	skipz
  3905     1273  2A76               	goto	u4325
  3906     1274  3017               	movlw	23
  3907     1275  0256               	subwf	floorf@e,w
  3908     1276                     u4325:
  3909     1276  1C03               	skipc
  3910     1277  2A79               	goto	u4321
  3911     1278  2A7A               	goto	u4320
  3912     1279                     u4321:
  3913     1279  2A7B               	goto	l895
  3914     127A                     u4320:
  3915     127A                     l2933:
  3916     127A  2B3C               	goto	l896
  3917     127B                     l895:
  3918     127B  1283               	bcf	3,5	;RP0=0, select bank0
  3919     127C  1303               	bcf	3,6	;RP1=0, select bank0
  3920     127D  1BD7               	btfsc	floorf@e+1,7
  3921     127E  2A80               	goto	u4331
  3922     127F  2A81               	goto	u4330
  3923     1280                     u4331:
  3924     1280  2AF1               	goto	l2947
  3925     1281                     u4330:
  3926     1281                     l2935:
  3927     1281  0A56               	incf	floorf@e,w
  3928     1282  00FF               	movwf	btemp+1
  3929     1283  30FF               	movlw	255
  3930     1284  00CC               	movwf	??_floorf
  3931     1285  30FF               	movlw	255
  3932     1286  00CD               	movwf	??_floorf+1
  3933     1287  307F               	movlw	127
  3934     1288  00CE               	movwf	??_floorf+2
  3935     1289  3000               	movlw	0
  3936     128A  00CF               	movwf	??_floorf+3
  3937     128B  2A91               	goto	u4340
  3938     128C                     u4345:
  3939     128C  0D4F               	rlf	??_floorf+3,w
  3940     128D  0CCF               	rrf	??_floorf+3,f
  3941     128E  0CCE               	rrf	??_floorf+2,f
  3942     128F  0CCD               	rrf	??_floorf+1,f
  3943     1290  0CCC               	rrf	??_floorf,f
  3944     1291                     u4340:
  3945     1291  0BFF               	decfsz	btemp+1,f
  3946     1292  2A8C               	goto	u4345
  3947     1293  084F               	movf	??_floorf+3,w
  3948     1294  00D5               	movwf	floorf@m+3
  3949     1295  084E               	movf	??_floorf+2,w
  3950     1296  00D4               	movwf	floorf@m+2
  3951     1297  084D               	movf	??_floorf+1,w
  3952     1298  00D3               	movwf	floorf@m+1
  3953     1299  084C               	movf	??_floorf,w
  3954     129A  00D2               	movwf	floorf@m
  3955     129B                     l2937:
  3956     129B  0852               	movf	floorf@m,w
  3957     129C  0558               	andwf	floorf@u,w
  3958     129D  00CC               	movwf	??_floorf
  3959     129E  0853               	movf	floorf@m+1,w
  3960     129F  0559               	andwf	floorf@u+1,w
  3961     12A0  00CD               	movwf	??_floorf+1
  3962     12A1  0854               	movf	floorf@m+2,w
  3963     12A2  055A               	andwf	floorf@u+2,w
  3964     12A3  00CE               	movwf	??_floorf+2
  3965     12A4  0855               	movf	floorf@m+3,w
  3966     12A5  055B               	andwf	floorf@u+3,w
  3967     12A6  00CF               	movwf	??_floorf+3
  3968     12A7  084F               	movf	??_floorf+3,w
  3969     12A8  044E               	iorwf	??_floorf+2,w
  3970     12A9  044D               	iorwf	??_floorf+1,w
  3971     12AA  044C               	iorwf	??_floorf,w
  3972     12AB  1D03               	skipz
  3973     12AC  2AAE               	goto	u4351
  3974     12AD  2AAF               	goto	u4350
  3975     12AE                     u4351:
  3976     12AE  2AB0               	goto	l2941
  3977     12AF                     u4350:
  3978     12AF  2A7A               	goto	l2933
  3979     12B0                     l2941:
  3980     12B0  0858               	movf	floorf@u,w
  3981     12B1  00CC               	movwf	??_floorf
  3982     12B2  0859               	movf	floorf@u+1,w
  3983     12B3  00CD               	movwf	??_floorf+1
  3984     12B4  085A               	movf	floorf@u+2,w
  3985     12B5  00CE               	movwf	??_floorf+2
  3986     12B6  085B               	movf	floorf@u+3,w
  3987     12B7  00CF               	movwf	??_floorf+3
  3988     12B8  301F               	movlw	31
  3989     12B9                     u4365:
  3990     12B9  1003               	clrc
  3991     12BA  0CCF               	rrf	??_floorf+3,f
  3992     12BB  0CCE               	rrf	??_floorf+2,f
  3993     12BC  0CCD               	rrf	??_floorf+1,f
  3994     12BD  0CCC               	rrf	??_floorf,f
  3995     12BE                     u4360:
  3996     12BE  3EFF               	addlw	-1
  3997     12BF  1D03               	skipz
  3998     12C0  2AB9               	goto	u4365
  3999     12C1  084F               	movf	??_floorf+3,w
  4000     12C2  044E               	iorwf	??_floorf+2,w
  4001     12C3  044D               	iorwf	??_floorf+1,w
  4002     12C4  044C               	iorwf	??_floorf,w
  4003     12C5  1903               	skipnz
  4004     12C6  2AC8               	goto	u4371
  4005     12C7  2AC9               	goto	u4370
  4006     12C8                     u4371:
  4007     12C8  2AE0               	goto	l2945
  4008     12C9                     u4370:
  4009     12C9                     l2943:
  4010     12C9  0852               	movf	floorf@m,w
  4011     12CA  07D8               	addwf	floorf@u,f
  4012     12CB  0853               	movf	floorf@m+1,w
  4013     12CC  1103               	clrz
  4014     12CD  1803               	skipnc
  4015     12CE  3E01               	addlw	1
  4016     12CF  1903               	skipnz
  4017     12D0  2AD2               	goto	u4381
  4018     12D1  07D9               	addwf	floorf@u+1,f
  4019     12D2                     u4381:
  4020     12D2  0854               	movf	floorf@m+2,w
  4021     12D3  1103               	clrz
  4022     12D4  1803               	skipnc
  4023     12D5  3E01               	addlw	1
  4024     12D6  1903               	skipnz
  4025     12D7  2AD9               	goto	u4382
  4026     12D8  07DA               	addwf	floorf@u+2,f
  4027     12D9                     u4382:
  4028     12D9  0855               	movf	floorf@m+3,w
  4029     12DA  1103               	clrz
  4030     12DB  1803               	skipnc
  4031     12DC  3E01               	addlw	1
  4032     12DD  1903               	skipnz
  4033     12DE  2AE0               	goto	u4383
  4034     12DF  07DB               	addwf	floorf@u+3,f
  4035     12E0                     u4383:
  4036     12E0                     l2945:
  4037     12E0  0952               	comf	floorf@m,w
  4038     12E1  00CC               	movwf	??_floorf
  4039     12E2  0953               	comf	floorf@m+1,w
  4040     12E3  00CD               	movwf	??_floorf+1
  4041     12E4  0954               	comf	floorf@m+2,w
  4042     12E5  00CE               	movwf	??_floorf+2
  4043     12E6  0955               	comf	floorf@m+3,w
  4044     12E7  00CF               	movwf	??_floorf+3
  4045     12E8  084C               	movf	??_floorf,w
  4046     12E9  05D8               	andwf	floorf@u,f
  4047     12EA  084D               	movf	??_floorf+1,w
  4048     12EB  05D9               	andwf	floorf@u+1,f
  4049     12EC  084E               	movf	??_floorf+2,w
  4050     12ED  05DA               	andwf	floorf@u+2,f
  4051     12EE  084F               	movf	??_floorf+3,w
  4052     12EF  05DB               	andwf	floorf@u+3,f
  4053     12F0  2B34               	goto	l900
  4054     12F1                     l2947:
  4055     12F1  0858               	movf	floorf@u,w
  4056     12F2  00CC               	movwf	??_floorf
  4057     12F3  0859               	movf	floorf@u+1,w
  4058     12F4  00CD               	movwf	??_floorf+1
  4059     12F5  085A               	movf	floorf@u+2,w
  4060     12F6  00CE               	movwf	??_floorf+2
  4061     12F7  085B               	movf	floorf@u+3,w
  4062     12F8  00CF               	movwf	??_floorf+3
  4063     12F9  301F               	movlw	31
  4064     12FA                     u4395:
  4065     12FA  1003               	clrc
  4066     12FB  0CCF               	rrf	??_floorf+3,f
  4067     12FC  0CCE               	rrf	??_floorf+2,f
  4068     12FD  0CCD               	rrf	??_floorf+1,f
  4069     12FE  0CCC               	rrf	??_floorf,f
  4070     12FF                     u4390:
  4071     12FF  3EFF               	addlw	-1
  4072     1300  1D03               	skipz
  4073     1301  2AFA               	goto	u4395
  4074     1302  084F               	movf	??_floorf+3,w
  4075     1303  044E               	iorwf	??_floorf+2,w
  4076     1304  044D               	iorwf	??_floorf+1,w
  4077     1305  044C               	iorwf	??_floorf,w
  4078     1306  1D03               	skipz
  4079     1307  2B09               	goto	u4401
  4080     1308  2B0A               	goto	u4400
  4081     1309                     u4401:
  4082     1309  2B13               	goto	l2951
  4083     130A                     u4400:
  4084     130A                     l2949:
  4085     130A  3000               	movlw	0
  4086     130B  00DB               	movwf	floorf@u+3
  4087     130C  3000               	movlw	0
  4088     130D  00DA               	movwf	floorf@u+2
  4089     130E  3000               	movlw	0
  4090     130F  00D9               	movwf	floorf@u+1
  4091     1310  3000               	movlw	0
  4092     1311  00D8               	movwf	floorf@u
  4093     1312  2B34               	goto	l900
  4094     1313                     l2951:
  4095     1313  0858               	movf	floorf@u,w
  4096     1314  00CC               	movwf	??_floorf
  4097     1315  0859               	movf	floorf@u+1,w
  4098     1316  00CD               	movwf	??_floorf+1
  4099     1317  085A               	movf	floorf@u+2,w
  4100     1318  00CE               	movwf	??_floorf+2
  4101     1319  085B               	movf	floorf@u+3,w
  4102     131A  00CF               	movwf	??_floorf+3
  4103     131B  3001               	movlw	1
  4104     131C                     u4415:
  4105     131C  1003               	clrc
  4106     131D  0DCC               	rlf	??_floorf,f
  4107     131E  0DCD               	rlf	??_floorf+1,f
  4108     131F  0DCE               	rlf	??_floorf+2,f
  4109     1320  0DCF               	rlf	??_floorf+3,f
  4110     1321                     u4410:
  4111     1321  3EFF               	addlw	-1
  4112     1322  1D03               	skipz
  4113     1323  2B1C               	goto	u4415
  4114     1324  084F               	movf	??_floorf+3,w
  4115     1325  044E               	iorwf	??_floorf+2,w
  4116     1326  044D               	iorwf	??_floorf+1,w
  4117     1327  044C               	iorwf	??_floorf,w
  4118     1328  1903               	skipnz
  4119     1329  2B2B               	goto	u4421
  4120     132A  2B2C               	goto	u4420
  4121     132B                     u4421:
  4122     132B  2B34               	goto	l900
  4123     132C                     u4420:
  4124     132C                     l2953:
  4125     132C  30BF               	movlw	191
  4126     132D  00DB               	movwf	floorf@u+3
  4127     132E  3080               	movlw	128
  4128     132F  00DA               	movwf	floorf@u+2
  4129     1330  3000               	movlw	0
  4130     1331  00D9               	movwf	floorf@u+1
  4131     1332  3000               	movlw	0
  4132     1333  00D8               	movwf	floorf@u
  4133     1334                     l900:
  4134     1334  085B               	movf	floorf@u+3,w
  4135     1335  00CB               	movwf	?_floorf+3
  4136     1336  085A               	movf	floorf@u+2,w
  4137     1337  00CA               	movwf	?_floorf+2
  4138     1338  0859               	movf	floorf@u+1,w
  4139     1339  00C9               	movwf	?_floorf+1
  4140     133A  0858               	movf	floorf@u,w
  4141     133B  00C8               	movwf	?_floorf
  4142     133C                     l896:
  4143     133C  0008               	return
  4144     133D                     __end_of_floorf:
  4145                           
  4146                           	psect	text15
  4147     1009                     __ptext15:	
  4148 ;; *************** function ___fpclassifyf *****************
  4149 ;; Defined at:
  4150 ;;		line 4 in file "C:\Program Files\Microchip\xc8\v2.46\pic\sources\c99\common\__fpclassifyf.c"
  4151 ;; Parameters:    Size  Location     Type
  4152 ;;  x               4    0[BANK0 ] float 
  4153 ;; Auto vars:     Size  Location     Type
  4154 ;;  u               4   12[BANK0 ] struct .
  4155 ;;  e               2   10[BANK0 ] int 
  4156 ;; Return value:  Size  Location     Type
  4157 ;;                  2    0[BANK0 ] int 
  4158 ;; Registers used:
  4159 ;;		wreg, status,2, status,0
  4160 ;; Tracked objects:
  4161 ;;		On entry : 0/0
  4162 ;;		On exit  : 0/0
  4163 ;;		Unchanged: 0/0
  4164 ;; Data sizes:     COMMON   BANK0   BANK1   BANK3   BANK2
  4165 ;;      Params:         0       4       0       0       0
  4166 ;;      Locals:         0       6       0       0       0
  4167 ;;      Temps:          0       6       0       0       0
  4168 ;;      Totals:         0      16       0       0       0
  4169 ;;Total ram usage:       16 bytes
  4170 ;; Hardware stack levels used: 1
  4171 ;; Hardware stack levels required when called: 1
  4172 ;; This function calls:
  4173 ;;		Nothing
  4174 ;; This function is called by:
  4175 ;;		_efgtoa
  4176 ;; This function uses a non-reentrant model
  4177 ;;
  4178                           
  4179     1009                     ___fpclassifyf:	
  4180                           ;psect for function ___fpclassifyf
  4181                           
  4182     1009                     l4035:	
  4183                           ;incstack = 0
  4184                           ; Regs used in ___fpclassifyf: [wreg+status,2+status,0]
  4185                           
  4186     1009  1683               	bsf	3,5	;RP0=1, select bank3
  4187     100A  1703               	bsf	3,6	;RP1=1, select bank3
  4188     100B  083E               	movf	(___fpclassifyf@F465+3)^(0+384),w
  4189     100C  1283               	bcf	3,5	;RP0=0, select bank0
  4190     100D  1303               	bcf	3,6	;RP1=0, select bank0
  4191     100E  00AF               	movwf	___fpclassifyf@u+3
  4192     100F  1683               	bsf	3,5	;RP0=1, select bank3
  4193     1010  1703               	bsf	3,6	;RP1=1, select bank3
  4194     1011  083D               	movf	(___fpclassifyf@F465+2)^(0+384),w
  4195     1012  1283               	bcf	3,5	;RP0=0, select bank0
  4196     1013  1303               	bcf	3,6	;RP1=0, select bank0
  4197     1014  00AE               	movwf	___fpclassifyf@u+2
  4198     1015  1683               	bsf	3,5	;RP0=1, select bank3
  4199     1016  1703               	bsf	3,6	;RP1=1, select bank3
  4200     1017  083C               	movf	(___fpclassifyf@F465+1)^(0+384),w
  4201     1018  1283               	bcf	3,5	;RP0=0, select bank0
  4202     1019  1303               	bcf	3,6	;RP1=0, select bank0
  4203     101A  00AD               	movwf	___fpclassifyf@u+1
  4204     101B  1683               	bsf	3,5	;RP0=1, select bank3
  4205     101C  1703               	bsf	3,6	;RP1=1, select bank3
  4206     101D  083B               	movf	___fpclassifyf@F465^(0+384),w
  4207     101E  1283               	bcf	3,5	;RP0=0, select bank0
  4208     101F  1303               	bcf	3,6	;RP1=0, select bank0
  4209     1020  00AC               	movwf	___fpclassifyf@u
  4210     1021  0823               	movf	___fpclassifyf@x+3,w
  4211     1022  00AF               	movwf	___fpclassifyf@u+3
  4212     1023  0822               	movf	___fpclassifyf@x+2,w
  4213     1024  00AE               	movwf	___fpclassifyf@u+2
  4214     1025  0821               	movf	___fpclassifyf@x+1,w
  4215     1026  00AD               	movwf	___fpclassifyf@u+1
  4216     1027  0820               	movf	___fpclassifyf@x,w
  4217     1028  00AC               	movwf	___fpclassifyf@u
  4218     1029                     l4037:
  4219     1029  082C               	movf	___fpclassifyf@u,w
  4220     102A  00A4               	movwf	??___fpclassifyf
  4221     102B  082D               	movf	___fpclassifyf@u+1,w
  4222     102C  00A5               	movwf	??___fpclassifyf+1
  4223     102D  082E               	movf	___fpclassifyf@u+2,w
  4224     102E  00A6               	movwf	??___fpclassifyf+2
  4225     102F  082F               	movf	___fpclassifyf@u+3,w
  4226     1030  00A7               	movwf	??___fpclassifyf+3
  4227     1031  3017               	movlw	23
  4228     1032                     u6585:
  4229     1032  1003               	clrc
  4230     1033  0CA7               	rrf	??___fpclassifyf+3,f
  4231     1034  0CA6               	rrf	??___fpclassifyf+2,f
  4232     1035  0CA5               	rrf	??___fpclassifyf+1,f
  4233     1036  0CA4               	rrf	??___fpclassifyf,f
  4234     1037                     u6580:
  4235     1037  3EFF               	addlw	-1
  4236     1038  1D03               	skipz
  4237     1039  2832               	goto	u6585
  4238     103A  30FF               	movlw	255
  4239     103B  0524               	andwf	??___fpclassifyf,w
  4240     103C  00AA               	movwf	___fpclassifyf@e
  4241     103D  3000               	movlw	0
  4242     103E  0525               	andwf	??___fpclassifyf+1,w
  4243     103F  00AB               	movwf	___fpclassifyf@e+1
  4244     1040                     l4039:
  4245     1040  082A               	movf	___fpclassifyf@e,w
  4246     1041  042B               	iorwf	___fpclassifyf@e+1,w
  4247     1042  1D03               	btfss	3,2
  4248     1043  2845               	goto	u6591
  4249     1044  2846               	goto	u6590
  4250     1045                     u6591:
  4251     1045  2869               	goto	l4049
  4252     1046                     u6590:
  4253     1046                     l4041:
  4254     1046  082C               	movf	___fpclassifyf@u,w
  4255     1047  00A4               	movwf	??___fpclassifyf
  4256     1048  082D               	movf	___fpclassifyf@u+1,w
  4257     1049  00A5               	movwf	??___fpclassifyf+1
  4258     104A  082E               	movf	___fpclassifyf@u+2,w
  4259     104B  00A6               	movwf	??___fpclassifyf+2
  4260     104C  082F               	movf	___fpclassifyf@u+3,w
  4261     104D  00A7               	movwf	??___fpclassifyf+3
  4262     104E  3001               	movlw	1
  4263     104F                     u6605:
  4264     104F  1003               	clrc
  4265     1050  0DA4               	rlf	??___fpclassifyf,f
  4266     1051  0DA5               	rlf	??___fpclassifyf+1,f
  4267     1052  0DA6               	rlf	??___fpclassifyf+2,f
  4268     1053  0DA7               	rlf	??___fpclassifyf+3,f
  4269     1054                     u6600:
  4270     1054  3EFF               	addlw	-1
  4271     1055  1D03               	skipz
  4272     1056  284F               	goto	u6605
  4273     1057  0827               	movf	??___fpclassifyf+3,w
  4274     1058  0426               	iorwf	??___fpclassifyf+2,w
  4275     1059  0425               	iorwf	??___fpclassifyf+1,w
  4276     105A  0424               	iorwf	??___fpclassifyf,w
  4277     105B  1D03               	skipz
  4278     105C  285E               	goto	u6611
  4279     105D  285F               	goto	u6610
  4280     105E                     u6611:
  4281     105E  2864               	goto	l4045
  4282     105F                     u6610:
  4283     105F                     l4043:
  4284     105F  3002               	movlw	2
  4285     1060  00A0               	movwf	?___fpclassifyf
  4286     1061  3000               	movlw	0
  4287     1062  00A1               	movwf	?___fpclassifyf+1
  4288     1063  2895               	goto	l889
  4289     1064                     l4045:
  4290     1064  3003               	movlw	3
  4291     1065  00A0               	movwf	?___fpclassifyf
  4292     1066  3000               	movlw	0
  4293     1067  00A1               	movwf	?___fpclassifyf+1
  4294     1068  2895               	goto	l889
  4295     1069                     l4049:
  4296     1069  0A2A               	incf	___fpclassifyf@e,w
  4297     106A  042B               	iorwf	___fpclassifyf@e+1,w
  4298     106B  1D03               	btfss	3,2
  4299     106C  286E               	goto	u6621
  4300     106D  286F               	goto	u6620
  4301     106E                     u6621:
  4302     106E  2891               	goto	l4055
  4303     106F                     u6620:
  4304     106F                     l4051:
  4305     106F  082C               	movf	___fpclassifyf@u,w
  4306     1070  00A4               	movwf	??___fpclassifyf
  4307     1071  082D               	movf	___fpclassifyf@u+1,w
  4308     1072  00A5               	movwf	??___fpclassifyf+1
  4309     1073  082E               	movf	___fpclassifyf@u+2,w
  4310     1074  00A6               	movwf	??___fpclassifyf+2
  4311     1075  082F               	movf	___fpclassifyf@u+3,w
  4312     1076  00A7               	movwf	??___fpclassifyf+3
  4313     1077  3009               	movlw	9
  4314     1078                     u6635:
  4315     1078  1003               	clrc
  4316     1079  0DA4               	rlf	??___fpclassifyf,f
  4317     107A  0DA5               	rlf	??___fpclassifyf+1,f
  4318     107B  0DA6               	rlf	??___fpclassifyf+2,f
  4319     107C  0DA7               	rlf	??___fpclassifyf+3,f
  4320     107D                     u6630:
  4321     107D  3EFF               	addlw	-1
  4322     107E  1D03               	skipz
  4323     107F  2878               	goto	u6635
  4324     1080  0827               	movf	??___fpclassifyf+3,w
  4325     1081  0426               	iorwf	??___fpclassifyf+2,w
  4326     1082  0425               	iorwf	??___fpclassifyf+1,w
  4327     1083  0424               	iorwf	??___fpclassifyf,w
  4328     1084  1903               	skipnz
  4329     1085  2887               	goto	u6641
  4330     1086  2889               	goto	u6640
  4331     1087                     u6641:
  4332     1087  3001               	movlw	1
  4333     1088  288A               	goto	u6650
  4334     1089                     u6640:
  4335     1089  3000               	movlw	0
  4336     108A                     u6650:
  4337     108A  00A8               	movwf	??___fpclassifyf+4
  4338     108B  01A9               	clrf	??___fpclassifyf+5
  4339     108C  0828               	movf	??___fpclassifyf+4,w
  4340     108D  00A0               	movwf	?___fpclassifyf
  4341     108E  0829               	movf	??___fpclassifyf+5,w
  4342     108F  00A1               	movwf	?___fpclassifyf+1
  4343     1090  2895               	goto	l889
  4344     1091                     l4055:
  4345     1091  3004               	movlw	4
  4346     1092  00A0               	movwf	?___fpclassifyf
  4347     1093  3000               	movlw	0
  4348     1094  00A1               	movwf	?___fpclassifyf+1
  4349     1095                     l889:
  4350     1095  0008               	return
  4351     1096                     __end_of___fpclassifyf:
  4352                           
  4353                           	psect	text16
  4354     1D07                     __ptext16:	
  4355 ;; *************** function ___fltol *****************
  4356 ;; Defined at:
  4357 ;;		line 43 in file "C:\Program Files\Microchip\xc8\v2.46\pic\sources\c99\common\fltol.c"
  4358 ;; Parameters:    Size  Location     Type
  4359 ;;  f1              4    0[BANK0 ] int 
  4360 ;; Auto vars:     Size  Location     Type
  4361 ;;  exp1            1    9[BANK0 ] unsigned char 
  4362 ;;  sign1           1    8[BANK0 ] unsigned char 
  4363 ;; Return value:  Size  Location     Type
  4364 ;;                  4    0[BANK0 ] long 
  4365 ;; Registers used:
  4366 ;;		wreg, status,2, status,0, btemp+1
  4367 ;; Tracked objects:
  4368 ;;		On entry : 0/0
  4369 ;;		On exit  : 0/0
  4370 ;;		Unchanged: 0/0
  4371 ;; Data sizes:     COMMON   BANK0   BANK1   BANK3   BANK2
  4372 ;;      Params:         0       4       0       0       0
  4373 ;;      Locals:         0       2       0       0       0
  4374 ;;      Temps:          0       4       0       0       0
  4375 ;;      Totals:         0      10       0       0       0
  4376 ;;Total ram usage:       10 bytes
  4377 ;; Hardware stack levels used: 1
  4378 ;; Hardware stack levels required when called: 1
  4379 ;; This function calls:
  4380 ;;		Nothing
  4381 ;; This function is called by:
  4382 ;;		_efgtoa
  4383 ;; This function uses a non-reentrant model
  4384 ;;
  4385                           
  4386     1D07                     ___fltol:	
  4387                           ;psect for function ___fltol
  4388                           
  4389     1D07                     l3837:	
  4390                           ;incstack = 0
  4391                           ; Regs used in ___fltol: [wreg+status,2+status,0+btemp+1]
  4392                           
  4393     1D07  1003               	clrc
  4394     1D08  1283               	bcf	3,5	;RP0=0, select bank0
  4395     1D09  1303               	bcf	3,6	;RP1=0, select bank0
  4396     1D0A  0D22               	rlf	___fltol@f1+2,w
  4397     1D0B  0D23               	rlf	___fltol@f1+3,w
  4398     1D0C  00A9               	movwf	___fltol@exp1
  4399     1D0D  0829               	movf	___fltol@exp1,w
  4400     1D0E  1D03               	btfss	3,2
  4401     1D0F  2D11               	goto	u6091
  4402     1D10  2D12               	goto	u6090
  4403     1D11                     u6091:
  4404     1D11  2D1B               	goto	l3843
  4405     1D12                     u6090:
  4406     1D12                     l3839:
  4407     1D12  3000               	movlw	0
  4408     1D13  00A3               	movwf	?___fltol+3
  4409     1D14  3000               	movlw	0
  4410     1D15  00A2               	movwf	?___fltol+2
  4411     1D16  3000               	movlw	0
  4412     1D17  00A1               	movwf	?___fltol+1
  4413     1D18  3000               	movlw	0
  4414     1D19  00A0               	movwf	?___fltol
  4415     1D1A  2D7E               	goto	l491
  4416     1D1B                     l3843:
  4417     1D1B  0820               	movf	___fltol@f1,w
  4418     1D1C  00A4               	movwf	??___fltol
  4419     1D1D  0821               	movf	___fltol@f1+1,w
  4420     1D1E  00A5               	movwf	??___fltol+1
  4421     1D1F  0822               	movf	___fltol@f1+2,w
  4422     1D20  00A6               	movwf	??___fltol+2
  4423     1D21  0823               	movf	___fltol@f1+3,w
  4424     1D22  00A7               	movwf	??___fltol+3
  4425     1D23  301F               	movlw	31
  4426     1D24                     u6105:
  4427     1D24  1003               	clrc
  4428     1D25  0CA7               	rrf	??___fltol+3,f
  4429     1D26  0CA6               	rrf	??___fltol+2,f
  4430     1D27  0CA5               	rrf	??___fltol+1,f
  4431     1D28  0CA4               	rrf	??___fltol,f
  4432     1D29                     u6100:
  4433     1D29  3EFF               	addlw	-1
  4434     1D2A  1D03               	skipz
  4435     1D2B  2D24               	goto	u6105
  4436     1D2C  0824               	movf	??___fltol,w
  4437     1D2D  00A8               	movwf	___fltol@sign1
  4438     1D2E                     l3845:
  4439     1D2E  17A2               	bsf	___fltol@f1+2,7
  4440     1D2F                     l3847:
  4441     1D2F  30FF               	movlw	255
  4442     1D30  05A0               	andwf	___fltol@f1,f
  4443     1D31  30FF               	movlw	255
  4444     1D32  05A1               	andwf	___fltol@f1+1,f
  4445     1D33  30FF               	movlw	255
  4446     1D34  05A2               	andwf	___fltol@f1+2,f
  4447     1D35  3000               	movlw	0
  4448     1D36  05A3               	andwf	___fltol@f1+3,f
  4449     1D37                     l3849:
  4450     1D37  3096               	movlw	150
  4451     1D38  02A9               	subwf	___fltol@exp1,f
  4452     1D39                     l3851:
  4453     1D39  1FA9               	btfss	___fltol@exp1,7
  4454     1D3A  2D3C               	goto	u6111
  4455     1D3B  2D3D               	goto	u6110
  4456     1D3C                     u6111:
  4457     1D3C  2D57               	goto	l3863
  4458     1D3D                     u6110:
  4459     1D3D                     l3853:
  4460     1D3D  0829               	movf	___fltol@exp1,w
  4461     1D3E  3A80               	xorlw	128
  4462     1D3F  3E97               	addlw	151
  4463     1D40  1803               	skipnc
  4464     1D41  2D43               	goto	u6121
  4465     1D42  2D44               	goto	u6120
  4466     1D43                     u6121:
  4467     1D43  2D45               	goto	l3859
  4468     1D44                     u6120:
  4469     1D44  2D12               	goto	l3839
  4470     1D45                     l3859:
  4471     1D45  3001               	movlw	1
  4472     1D46                     u6135:
  4473     1D46  1003               	clrc
  4474     1D47  0CA3               	rrf	___fltol@f1+3,f
  4475     1D48  0CA2               	rrf	___fltol@f1+2,f
  4476     1D49  0CA1               	rrf	___fltol@f1+1,f
  4477     1D4A  0CA0               	rrf	___fltol@f1,f
  4478     1D4B  3EFF               	addlw	-1
  4479     1D4C  1D03               	skipz
  4480     1D4D  2D46               	goto	u6135
  4481     1D4E                     l3861:
  4482     1D4E  3001               	movlw	1
  4483     1D4F  00FF               	movwf	btemp+1
  4484     1D50  087F               	movf	btemp+1,w
  4485     1D51  07A9               	addwf	___fltol@exp1,f
  4486     1D52  1D03               	btfss	3,2
  4487     1D53  2D55               	goto	u6141
  4488     1D54  2D56               	goto	u6140
  4489     1D55                     u6141:
  4490     1D55  2D45               	goto	l3859
  4491     1D56                     u6140:
  4492     1D56  2D6E               	goto	l3871
  4493     1D57                     l3863:
  4494     1D57  3020               	movlw	32
  4495     1D58  0229               	subwf	___fltol@exp1,w
  4496     1D59  1C03               	skipc
  4497     1D5A  2D5C               	goto	u6151
  4498     1D5B  2D5D               	goto	u6150
  4499     1D5C                     u6151:
  4500     1D5C  2D69               	goto	l498
  4501     1D5D                     u6150:
  4502     1D5D  2D12               	goto	l3839
  4503     1D5E                     l3869:
  4504     1D5E  3001               	movlw	1
  4505     1D5F  00A4               	movwf	??___fltol
  4506     1D60                     u6165:
  4507     1D60  1003               	clrc
  4508     1D61  0DA0               	rlf	___fltol@f1,f
  4509     1D62  0DA1               	rlf	___fltol@f1+1,f
  4510     1D63  0DA2               	rlf	___fltol@f1+2,f
  4511     1D64  0DA3               	rlf	___fltol@f1+3,f
  4512     1D65  0BA4               	decfsz	??___fltol,f
  4513     1D66  2D60               	goto	u6165
  4514     1D67  3001               	movlw	1
  4515     1D68  02A9               	subwf	___fltol@exp1,f
  4516     1D69                     l498:
  4517     1D69  0829               	movf	___fltol@exp1,w
  4518     1D6A  1D03               	btfss	3,2
  4519     1D6B  2D6D               	goto	u6171
  4520     1D6C  2D6E               	goto	u6170
  4521     1D6D                     u6171:
  4522     1D6D  2D5E               	goto	l3869
  4523     1D6E                     u6170:
  4524     1D6E                     l3871:
  4525     1D6E  0828               	movf	___fltol@sign1,w
  4526     1D6F  1903               	btfsc	3,2
  4527     1D70  2D72               	goto	u6181
  4528     1D71  2D73               	goto	u6180
  4529     1D72                     u6181:
  4530     1D72  2D7E               	goto	l501
  4531     1D73                     u6180:
  4532     1D73                     l3873:
  4533     1D73  09A0               	comf	___fltol@f1,f
  4534     1D74  09A1               	comf	___fltol@f1+1,f
  4535     1D75  09A2               	comf	___fltol@f1+2,f
  4536     1D76  09A3               	comf	___fltol@f1+3,f
  4537     1D77  0AA0               	incf	___fltol@f1,f
  4538     1D78  1903               	skipnz
  4539     1D79  0AA1               	incf	___fltol@f1+1,f
  4540     1D7A  1903               	skipnz
  4541     1D7B  0AA2               	incf	___fltol@f1+2,f
  4542     1D7C  1903               	skipnz
  4543     1D7D  0AA3               	incf	___fltol@f1+3,f
  4544     1D7E                     l501:
  4545     1D7E                     l491:
  4546     1D7E  0008               	return
  4547     1D7F                     __end_of___fltol:
  4548                           
  4549                           	psect	text17
  4550     1A5D                     __ptext17:	
  4551 ;; *************** function ___flsub *****************
  4552 ;; Defined at:
  4553 ;;		line 242 in file "C:\Program Files\Microchip\xc8\v2.46\pic\sources\c99\common\sprcadd.c"
  4554 ;; Parameters:    Size  Location     Type
  4555 ;;  a               4   66[BANK0 ] long 
  4556 ;;  b               4   70[BANK0 ] long 
  4557 ;; Auto vars:     Size  Location     Type
  4558 ;;		None
  4559 ;; Return value:  Size  Location     Type
  4560 ;;                  4   66[BANK0 ] long 
  4561 ;; Registers used:
  4562 ;;		wreg, status,2, status,0, btemp+1, pclath, cstack
  4563 ;; Tracked objects:
  4564 ;;		On entry : 0/0
  4565 ;;		On exit  : 0/0
  4566 ;;		Unchanged: 0/0
  4567 ;; Data sizes:     COMMON   BANK0   BANK1   BANK3   BANK2
  4568 ;;      Params:         0       8       0       0       0
  4569 ;;      Locals:         0       0       0       0       0
  4570 ;;      Temps:          0       0       0       0       0
  4571 ;;      Totals:         0       8       0       0       0
  4572 ;;Total ram usage:        8 bytes
  4573 ;; Hardware stack levels used: 1
  4574 ;; Hardware stack levels required when called: 2
  4575 ;; This function calls:
  4576 ;;		___fladd
  4577 ;; This function is called by:
  4578 ;;		_efgtoa
  4579 ;; This function uses a non-reentrant model
  4580 ;;
  4581                           
  4582     1A5D                     ___flsub:	
  4583                           ;psect for function ___flsub
  4584                           
  4585     1A5D                     l3875:	
  4586                           ;incstack = 0
  4587                           ; Regs used in ___flsub: [wreg+status,2+status,0+btemp+1+pclath+cstack]
  4588                           
  4589     1A5D  3080               	movlw	128
  4590     1A5E  1283               	bcf	3,5	;RP0=0, select bank0
  4591     1A5F  1303               	bcf	3,6	;RP1=0, select bank0
  4592     1A60  06E5               	xorwf	___flsub@a+3,f
  4593     1A61                     l3877:
  4594     1A61  0869               	movf	___flsub@b+3,w
  4595     1A62  00A3               	movwf	___fladd@b+3
  4596     1A63  0868               	movf	___flsub@b+2,w
  4597     1A64  00A2               	movwf	___fladd@b+2
  4598     1A65  0867               	movf	___flsub@b+1,w
  4599     1A66  00A1               	movwf	___fladd@b+1
  4600     1A67  0866               	movf	___flsub@b,w
  4601     1A68  00A0               	movwf	___fladd@b
  4602     1A69  0865               	movf	___flsub@a+3,w
  4603     1A6A  00A7               	movwf	___fladd@a+3
  4604     1A6B  0864               	movf	___flsub@a+2,w
  4605     1A6C  00A6               	movwf	___fladd@a+2
  4606     1A6D  0863               	movf	___flsub@a+1,w
  4607     1A6E  00A5               	movwf	___fladd@a+1
  4608     1A6F  0862               	movf	___flsub@a,w
  4609     1A70  00A4               	movwf	___fladd@a
  4610     1A71  120A  118A  2395  160A  158A  	fcall	___fladd
  4611     1A76  1283               	bcf	3,5	;RP0=0, select bank0
  4612     1A77  1303               	bcf	3,6	;RP1=0, select bank0
  4613     1A78  0823               	movf	?___fladd+3,w
  4614     1A79  00E5               	movwf	?___flsub+3
  4615     1A7A  0822               	movf	?___fladd+2,w
  4616     1A7B  00E4               	movwf	?___flsub+2
  4617     1A7C  0821               	movf	?___fladd+1,w
  4618     1A7D  00E3               	movwf	?___flsub+1
  4619     1A7E  0820               	movf	?___fladd,w
  4620     1A7F  00E2               	movwf	?___flsub
  4621     1A80                     l644:
  4622     1A80  0008               	return
  4623     1A81                     __end_of___flsub:
  4624                           
  4625                           	psect	text18
  4626     0395                     __ptext18:	
  4627 ;; *************** function ___fladd *****************
  4628 ;; Defined at:
  4629 ;;		line 10 in file "C:\Program Files\Microchip\xc8\v2.46\pic\sources\c99\common\sprcadd.c"
  4630 ;; Parameters:    Size  Location     Type
  4631 ;;  b               4    0[BANK0 ] long 
  4632 ;;  a               4    4[BANK0 ] long 
  4633 ;; Auto vars:     Size  Location     Type
  4634 ;;  grs             1   19[BANK0 ] unsigned char 
  4635 ;;  bexp            1   18[BANK0 ] unsigned char 
  4636 ;;  aexp            1   17[BANK0 ] unsigned char 
  4637 ;;  signs           1   16[BANK0 ] unsigned char 
  4638 ;; Return value:  Size  Location     Type
  4639 ;;                  4    0[BANK0 ] unsigned char 
  4640 ;; Registers used:
  4641 ;;		wreg, status,2, status,0, btemp+1
  4642 ;; Tracked objects:
  4643 ;;		On entry : 0/0
  4644 ;;		On exit  : 0/0
  4645 ;;		Unchanged: 0/0
  4646 ;; Data sizes:     COMMON   BANK0   BANK1   BANK3   BANK2
  4647 ;;      Params:         0       8       0       0       0
  4648 ;;      Locals:         0       4       0       0       0
  4649 ;;      Temps:          0       8       0       0       0
  4650 ;;      Totals:         0      20       0       0       0
  4651 ;;Total ram usage:       20 bytes
  4652 ;; Hardware stack levels used: 1
  4653 ;; Hardware stack levels required when called: 1
  4654 ;; This function calls:
  4655 ;;		Nothing
  4656 ;; This function is called by:
  4657 ;;		___flsub
  4658 ;;		_efgtoa
  4659 ;; This function uses a non-reentrant model
  4660 ;;
  4661                           
  4662     0395                     ___fladd:	
  4663                           ;psect for function ___fladd
  4664                           
  4665     0395                     l3581:	
  4666                           ;incstack = 0
  4667                           ; Regs used in ___fladd: [wreg+status,2+status,0+btemp+1]
  4668                           
  4669     0395  1283               	bcf	3,5	;RP0=0, select bank0
  4670     0396  1303               	bcf	3,6	;RP1=0, select bank0
  4671     0397  0823               	movf	___fladd@b+3,w
  4672     0398  3980               	andlw	128
  4673     0399  00B0               	movwf	___fladd@signs
  4674     039A                     l3583:
  4675     039A  0823               	movf	___fladd@b+3,w
  4676     039B  00A8               	movwf	??___fladd
  4677     039C  0728               	addwf	??___fladd,w
  4678     039D  00B2               	movwf	___fladd@bexp
  4679     039E                     l3585:
  4680     039E  1FA2               	btfss	___fladd@b+2,7
  4681     039F  2BA1               	goto	u5511
  4682     03A0  2BA2               	goto	u5510
  4683     03A1                     u5511:
  4684     03A1  2BA3               	goto	l3589
  4685     03A2                     u5510:
  4686     03A2                     l3587:
  4687     03A2  1432               	bsf	___fladd@bexp,0
  4688     03A3                     l3589:
  4689     03A3  0832               	movf	___fladd@bexp,w
  4690     03A4  1903               	btfsc	3,2
  4691     03A5  2BA7               	goto	u5521
  4692     03A6  2BA8               	goto	u5520
  4693     03A7                     u5521:
  4694     03A7  2BB8               	goto	l3599
  4695     03A8                     u5520:
  4696     03A8                     l3591:
  4697     03A8  0A32               	incf	___fladd@bexp,w
  4698     03A9  1D03               	btfss	3,2
  4699     03AA  2BAC               	goto	u5531
  4700     03AB  2BAD               	goto	u5530
  4701     03AC                     u5531:
  4702     03AC  2BB5               	goto	l3595
  4703     03AD                     u5530:
  4704     03AD                     l3593:
  4705     03AD  3000               	movlw	0
  4706     03AE  00A3               	movwf	___fladd@b+3
  4707     03AF  3000               	movlw	0
  4708     03B0  00A2               	movwf	___fladd@b+2
  4709     03B1  3000               	movlw	0
  4710     03B2  00A1               	movwf	___fladd@b+1
  4711     03B3  3000               	movlw	0
  4712     03B4  00A0               	movwf	___fladd@b
  4713     03B5                     l3595:
  4714     03B5  17A2               	bsf	___fladd@b+2,7
  4715     03B6                     l3597:
  4716     03B6  01A3               	clrf	___fladd@b+3
  4717     03B7  2BC0               	goto	l3601
  4718     03B8                     l3599:
  4719     03B8  3000               	movlw	0
  4720     03B9  00A3               	movwf	___fladd@b+3
  4721     03BA  3000               	movlw	0
  4722     03BB  00A2               	movwf	___fladd@b+2
  4723     03BC  3000               	movlw	0
  4724     03BD  00A1               	movwf	___fladd@b+1
  4725     03BE  3000               	movlw	0
  4726     03BF  00A0               	movwf	___fladd@b
  4727     03C0                     l3601:
  4728     03C0  0827               	movf	___fladd@a+3,w
  4729     03C1  3980               	andlw	128
  4730     03C2  00B1               	movwf	___fladd@aexp
  4731     03C3                     l3603:
  4732     03C3  0831               	movf	___fladd@aexp,w
  4733     03C4  0630               	xorwf	___fladd@signs,w
  4734     03C5  1903               	skipnz
  4735     03C6  2BC8               	goto	u5541
  4736     03C7  2BC9               	goto	u5540
  4737     03C8                     u5541:
  4738     03C8  2BCA               	goto	l3607
  4739     03C9                     u5540:
  4740     03C9                     l3605:
  4741     03C9  1730               	bsf	___fladd@signs,6
  4742     03CA                     l3607:
  4743     03CA  0827               	movf	___fladd@a+3,w
  4744     03CB  00A8               	movwf	??___fladd
  4745     03CC  0728               	addwf	??___fladd,w
  4746     03CD  00B1               	movwf	___fladd@aexp
  4747     03CE                     l3609:
  4748     03CE  1FA6               	btfss	___fladd@a+2,7
  4749     03CF  2BD1               	goto	u5551
  4750     03D0  2BD2               	goto	u5550
  4751     03D1                     u5551:
  4752     03D1  2BD3               	goto	l3613
  4753     03D2                     u5550:
  4754     03D2                     l3611:
  4755     03D2  1431               	bsf	___fladd@aexp,0
  4756     03D3                     l3613:
  4757     03D3  0831               	movf	___fladd@aexp,w
  4758     03D4  1903               	btfsc	3,2
  4759     03D5  2BD7               	goto	u5561
  4760     03D6  2BD8               	goto	u5560
  4761     03D7                     u5561:
  4762     03D7  2BE8               	goto	l3623
  4763     03D8                     u5560:
  4764     03D8                     l3615:
  4765     03D8  0A31               	incf	___fladd@aexp,w
  4766     03D9  1D03               	btfss	3,2
  4767     03DA  2BDC               	goto	u5571
  4768     03DB  2BDD               	goto	u5570
  4769     03DC                     u5571:
  4770     03DC  2BE5               	goto	l3619
  4771     03DD                     u5570:
  4772     03DD                     l3617:
  4773     03DD  3000               	movlw	0
  4774     03DE  00A7               	movwf	___fladd@a+3
  4775     03DF  3000               	movlw	0
  4776     03E0  00A6               	movwf	___fladd@a+2
  4777     03E1  3000               	movlw	0
  4778     03E2  00A5               	movwf	___fladd@a+1
  4779     03E3  3000               	movlw	0
  4780     03E4  00A4               	movwf	___fladd@a
  4781     03E5                     l3619:
  4782     03E5  17A6               	bsf	___fladd@a+2,7
  4783     03E6                     l3621:
  4784     03E6  01A7               	clrf	___fladd@a+3
  4785     03E7  2BF0               	goto	l598
  4786     03E8                     l3623:
  4787     03E8  3000               	movlw	0
  4788     03E9  00A7               	movwf	___fladd@a+3
  4789     03EA  3000               	movlw	0
  4790     03EB  00A6               	movwf	___fladd@a+2
  4791     03EC  3000               	movlw	0
  4792     03ED  00A5               	movwf	___fladd@a+1
  4793     03EE  3000               	movlw	0
  4794     03EF  00A4               	movwf	___fladd@a
  4795     03F0                     l598:
  4796     03F0  0832               	movf	___fladd@bexp,w
  4797     03F1  0231               	subwf	___fladd@aexp,w
  4798     03F2  1803               	skipnc
  4799     03F3  2BF5               	goto	u5581
  4800     03F4  2BF6               	goto	u5580
  4801     03F5                     u5581:
  4802     03F5  2C1C               	goto	l3659
  4803     03F6                     u5580:
  4804     03F6                     l3625:
  4805     03F6  1F30               	btfss	___fladd@signs,6
  4806     03F7  2BF9               	goto	u5591
  4807     03F8  2BFA               	goto	u5590
  4808     03F9                     u5591:
  4809     03F9  2BFE               	goto	l3629
  4810     03FA                     u5590:
  4811     03FA                     l3627:
  4812     03FA  3080               	movlw	128
  4813     03FB  00FF               	movwf	btemp+1
  4814     03FC  087F               	movf	btemp+1,w
  4815     03FD  06B0               	xorwf	___fladd@signs,f
  4816     03FE                     l3629:
  4817     03FE  0832               	movf	___fladd@bexp,w
  4818     03FF  00B3               	movwf	___fladd@grs
  4819     0400                     l3631:
  4820     0400  0831               	movf	___fladd@aexp,w
  4821     0401  00B2               	movwf	___fladd@bexp
  4822     0402                     l3633:
  4823     0402  0833               	movf	___fladd@grs,w
  4824     0403  00B1               	movwf	___fladd@aexp
  4825     0404                     l3635:
  4826     0404  0820               	movf	___fladd@b,w
  4827     0405  00B3               	movwf	___fladd@grs
  4828     0406                     l3637:
  4829     0406  0824               	movf	___fladd@a,w
  4830     0407  00A0               	movwf	___fladd@b
  4831     0408                     l3639:
  4832     0408  0833               	movf	___fladd@grs,w
  4833     0409  00A4               	movwf	___fladd@a
  4834     040A                     l3641:
  4835     040A  0821               	movf	___fladd@b+1,w
  4836     040B  00B3               	movwf	___fladd@grs
  4837     040C                     l3643:
  4838     040C  0825               	movf	___fladd@a+1,w
  4839     040D  00A1               	movwf	___fladd@b+1
  4840     040E                     l3645:
  4841     040E  0833               	movf	___fladd@grs,w
  4842     040F  00A5               	movwf	___fladd@a+1
  4843     0410                     l3647:
  4844     0410  0822               	movf	___fladd@b+2,w
  4845     0411  00B3               	movwf	___fladd@grs
  4846     0412                     l3649:
  4847     0412  0826               	movf	___fladd@a+2,w
  4848     0413  00A2               	movwf	___fladd@b+2
  4849     0414                     l3651:
  4850     0414  0833               	movf	___fladd@grs,w
  4851     0415  00A6               	movwf	___fladd@a+2
  4852     0416                     l3653:
  4853     0416  0823               	movf	___fladd@b+3,w
  4854     0417  00B3               	movwf	___fladd@grs
  4855     0418                     l3655:
  4856     0418  0827               	movf	___fladd@a+3,w
  4857     0419  00A3               	movwf	___fladd@b+3
  4858     041A                     l3657:
  4859     041A  0833               	movf	___fladd@grs,w
  4860     041B  00A7               	movwf	___fladd@a+3
  4861     041C                     l3659:
  4862     041C  01B3               	clrf	___fladd@grs
  4863     041D                     l3661:
  4864     041D  0831               	movf	___fladd@aexp,w
  4865     041E  00A8               	movwf	??___fladd
  4866     041F  01A9               	clrf	??___fladd+1
  4867     0420  0829               	movf	??___fladd+1,w
  4868     0421  00AB               	movwf	??___fladd+3
  4869     0422  0832               	movf	___fladd@bexp,w
  4870     0423  0228               	subwf	??___fladd,w
  4871     0424  00AA               	movwf	??___fladd+2
  4872     0425  1C03               	skipc
  4873     0426  03AB               	decf	??___fladd+3,f
  4874     0427  082B               	movf	??___fladd+3,w
  4875     0428  3A80               	xorlw	128
  4876     0429  00FF               	movwf	btemp+1
  4877     042A  3080               	movlw	128
  4878     042B  027F               	subwf	btemp+1,w
  4879     042C  1D03               	skipz
  4880     042D  2C30               	goto	u5605
  4881     042E  301A               	movlw	26
  4882     042F  022A               	subwf	??___fladd+2,w
  4883     0430                     u5605:
  4884     0430  1C03               	skipc
  4885     0431  2C33               	goto	u5601
  4886     0432  2C34               	goto	u5600
  4887     0433                     u5601:
  4888     0433  2C6B               	goto	l3677
  4889     0434                     u5600:
  4890     0434                     l3663:
  4891     0434  1283               	bcf	3,5	;RP0=0, select bank0
  4892     0435  1303               	bcf	3,6	;RP1=0, select bank0
  4893     0436  0823               	movf	___fladd@b+3,w
  4894     0437  0422               	iorwf	___fladd@b+2,w
  4895     0438  0421               	iorwf	___fladd@b+1,w
  4896     0439  0420               	iorwf	___fladd@b,w
  4897     043A  1D03               	skipz
  4898     043B  2C3D               	goto	u5611
  4899     043C  2C3F               	goto	u5610
  4900     043D                     u5611:
  4901     043D  3001               	movlw	1
  4902     043E  2C40               	goto	u5620
  4903     043F                     u5610:
  4904     043F  3000               	movlw	0
  4905     0440                     u5620:
  4906     0440  00B3               	movwf	___fladd@grs
  4907     0441  3000               	movlw	0
  4908     0442  00A3               	movwf	___fladd@b+3
  4909     0443  3000               	movlw	0
  4910     0444  00A2               	movwf	___fladd@b+2
  4911     0445  3000               	movlw	0
  4912     0446  00A1               	movwf	___fladd@b+1
  4913     0447  3000               	movlw	0
  4914     0448  00A0               	movwf	___fladd@b
  4915     0449  0831               	movf	___fladd@aexp,w
  4916     044A  00B2               	movwf	___fladd@bexp
  4917     044B  2C73               	goto	l602
  4918     044C                     l604:
  4919     044C  1C33               	btfss	___fladd@grs,0
  4920     044D  2C4F               	goto	u5631
  4921     044E  2C50               	goto	u5630
  4922     044F                     u5631:
  4923     044F  2C57               	goto	l3667
  4924     0450                     u5630:
  4925     0450                     l3665:
  4926     0450  0833               	movf	___fladd@grs,w
  4927     0451  00A8               	movwf	??___fladd
  4928     0452  1003               	clrc
  4929     0453  0C28               	rrf	??___fladd,w
  4930     0454  3801               	iorlw	1
  4931     0455  00B3               	movwf	___fladd@grs
  4932     0456  2C59               	goto	l3669
  4933     0457                     l3667:
  4934     0457  1003               	clrc
  4935     0458  0CB3               	rrf	___fladd@grs,f
  4936     0459                     l3669:
  4937     0459  1C20               	btfss	___fladd@b,0
  4938     045A  2C5C               	goto	u5641
  4939     045B  2C5D               	goto	u5640
  4940     045C                     u5641:
  4941     045C  2C5E               	goto	l3673
  4942     045D                     u5640:
  4943     045D                     l3671:
  4944     045D  17B3               	bsf	___fladd@grs,7
  4945     045E                     l3673:
  4946     045E  3001               	movlw	1
  4947     045F  00A8               	movwf	??___fladd
  4948     0460                     u5655:
  4949     0460  0D23               	rlf	___fladd@b+3,w
  4950     0461  0CA3               	rrf	___fladd@b+3,f
  4951     0462  0CA2               	rrf	___fladd@b+2,f
  4952     0463  0CA1               	rrf	___fladd@b+1,f
  4953     0464  0CA0               	rrf	___fladd@b,f
  4954     0465  0BA8               	decfsz	??___fladd& (0+127),f
  4955     0466  2C60               	goto	u5655
  4956     0467                     l3675:
  4957     0467  3001               	movlw	1
  4958     0468  00FF               	movwf	btemp+1
  4959     0469  087F               	movf	btemp+1,w
  4960     046A  07B2               	addwf	___fladd@bexp,f
  4961     046B                     l3677:
  4962     046B  1283               	bcf	3,5	;RP0=0, select bank0
  4963     046C  1303               	bcf	3,6	;RP1=0, select bank0
  4964     046D  0831               	movf	___fladd@aexp,w
  4965     046E  0232               	subwf	___fladd@bexp,w
  4966     046F  1C03               	skipc
  4967     0470  2C72               	goto	u5661
  4968     0471  2C73               	goto	u5660
  4969     0472                     u5661:
  4970     0472  2C4C               	goto	l604
  4971     0473                     u5660:
  4972     0473                     l602:
  4973     0473  1B30               	btfsc	___fladd@signs,6
  4974     0474  2C76               	goto	u5671
  4975     0475  2C77               	goto	u5670
  4976     0476                     u5671:
  4977     0476  2CC0               	goto	l3703
  4978     0477                     u5670:
  4979     0477                     l3679:
  4980     0477  0832               	movf	___fladd@bexp,w
  4981     0478  1D03               	btfss	3,2
  4982     0479  2C7B               	goto	u5681
  4983     047A  2C7C               	goto	u5680
  4984     047B                     u5681:
  4985     047B  2C85               	goto	l3685
  4986     047C                     u5680:
  4987     047C                     l3681:
  4988     047C  3000               	movlw	0
  4989     047D  00A3               	movwf	?___fladd+3
  4990     047E  3000               	movlw	0
  4991     047F  00A2               	movwf	?___fladd+2
  4992     0480  3000               	movlw	0
  4993     0481  00A1               	movwf	?___fladd+1
  4994     0482  3000               	movlw	0
  4995     0483  00A0               	movwf	?___fladd
  4996     0484  2DEC               	goto	l611
  4997     0485                     l3685:
  4998     0485  0824               	movf	___fladd@a,w
  4999     0486  07A0               	addwf	___fladd@b,f
  5000     0487  0825               	movf	___fladd@a+1,w
  5001     0488  1103               	clrz
  5002     0489  1803               	skipnc
  5003     048A  3E01               	addlw	1
  5004     048B  1903               	skipnz
  5005     048C  2C8E               	goto	u5691
  5006     048D  07A1               	addwf	___fladd@b+1,f
  5007     048E                     u5691:
  5008     048E  0826               	movf	___fladd@a+2,w
  5009     048F  1103               	clrz
  5010     0490  1803               	skipnc
  5011     0491  3E01               	addlw	1
  5012     0492  1903               	skipnz
  5013     0493  2C95               	goto	u5692
  5014     0494  07A2               	addwf	___fladd@b+2,f
  5015     0495                     u5692:
  5016     0495  0827               	movf	___fladd@a+3,w
  5017     0496  1103               	clrz
  5018     0497  1803               	skipnc
  5019     0498  3E01               	addlw	1
  5020     0499  1903               	skipnz
  5021     049A  2C9C               	goto	u5693
  5022     049B  07A3               	addwf	___fladd@b+3,f
  5023     049C                     u5693:
  5024     049C                     l3687:
  5025     049C  1C23               	btfss	___fladd@b+3,0
  5026     049D  2C9F               	goto	u5701
  5027     049E  2CA0               	goto	u5700
  5028     049F                     u5701:
  5029     049F  2D74               	goto	l3739
  5030     04A0                     u5700:
  5031     04A0                     l3689:
  5032     04A0  1C33               	btfss	___fladd@grs,0
  5033     04A1  2CA3               	goto	u5711
  5034     04A2  2CA4               	goto	u5710
  5035     04A3                     u5711:
  5036     04A3  2CAB               	goto	l3693
  5037     04A4                     u5710:
  5038     04A4                     l3691:
  5039     04A4  0833               	movf	___fladd@grs,w
  5040     04A5  00A8               	movwf	??___fladd
  5041     04A6  1003               	clrc
  5042     04A7  0C28               	rrf	??___fladd,w
  5043     04A8  3801               	iorlw	1
  5044     04A9  00B3               	movwf	___fladd@grs
  5045     04AA  2CAD               	goto	l3695
  5046     04AB                     l3693:
  5047     04AB  1003               	clrc
  5048     04AC  0CB3               	rrf	___fladd@grs,f
  5049     04AD                     l3695:
  5050     04AD  1C20               	btfss	___fladd@b,0
  5051     04AE  2CB0               	goto	u5721
  5052     04AF  2CB1               	goto	u5720
  5053     04B0                     u5721:
  5054     04B0  2CB2               	goto	l3699
  5055     04B1                     u5720:
  5056     04B1                     l3697:
  5057     04B1  17B3               	bsf	___fladd@grs,7
  5058     04B2                     l3699:
  5059     04B2  3001               	movlw	1
  5060     04B3  00A8               	movwf	??___fladd
  5061     04B4                     u5735:
  5062     04B4  0D23               	rlf	___fladd@b+3,w
  5063     04B5  0CA3               	rrf	___fladd@b+3,f
  5064     04B6  0CA2               	rrf	___fladd@b+2,f
  5065     04B7  0CA1               	rrf	___fladd@b+1,f
  5066     04B8  0CA0               	rrf	___fladd@b,f
  5067     04B9  0BA8               	decfsz	??___fladd& (0+127),f
  5068     04BA  2CB4               	goto	u5735
  5069     04BB                     l3701:
  5070     04BB  3001               	movlw	1
  5071     04BC  00FF               	movwf	btemp+1
  5072     04BD  087F               	movf	btemp+1,w
  5073     04BE  07B2               	addwf	___fladd@bexp,f
  5074     04BF  2D74               	goto	l3739
  5075     04C0                     l3703:
  5076     04C0  0823               	movf	___fladd@b+3,w
  5077     04C1  3A80               	xorlw	128
  5078     04C2  00FF               	movwf	btemp+1
  5079     04C3  0827               	movf	___fladd@a+3,w
  5080     04C4  3A80               	xorlw	128
  5081     04C5  027F               	subwf	btemp+1,w
  5082     04C6  1D03               	skipz
  5083     04C7  2CD2               	goto	u5743
  5084     04C8  0826               	movf	___fladd@a+2,w
  5085     04C9  0222               	subwf	___fladd@b+2,w
  5086     04CA  1D03               	skipz
  5087     04CB  2CD2               	goto	u5743
  5088     04CC  0825               	movf	___fladd@a+1,w
  5089     04CD  0221               	subwf	___fladd@b+1,w
  5090     04CE  1D03               	skipz
  5091     04CF  2CD2               	goto	u5743
  5092     04D0  0824               	movf	___fladd@a,w
  5093     04D1  0220               	subwf	___fladd@b,w
  5094     04D2                     u5743:
  5095     04D2  1803               	skipnc
  5096     04D3  2CD5               	goto	u5741
  5097     04D4  2CD6               	goto	u5740
  5098     04D5                     u5741:
  5099     04D5  2D2E               	goto	l3715
  5100     04D6                     u5740:
  5101     04D6                     l3705:
  5102     04D6  30FF               	movlw	255
  5103     04D7  00A8               	movwf	??___fladd
  5104     04D8  30FF               	movlw	255
  5105     04D9  00A9               	movwf	??___fladd+1
  5106     04DA  30FF               	movlw	255
  5107     04DB  00AA               	movwf	??___fladd+2
  5108     04DC  30FF               	movlw	255
  5109     04DD  00AB               	movwf	??___fladd+3
  5110     04DE  0824               	movf	___fladd@a,w
  5111     04DF  00AC               	movwf	??___fladd+4
  5112     04E0  0825               	movf	___fladd@a+1,w
  5113     04E1  00AD               	movwf	??___fladd+5
  5114     04E2  0826               	movf	___fladd@a+2,w
  5115     04E3  00AE               	movwf	??___fladd+6
  5116     04E4  0827               	movf	___fladd@a+3,w
  5117     04E5  00AF               	movwf	??___fladd+7
  5118     04E6  0820               	movf	___fladd@b,w
  5119     04E7  02AC               	subwf	??___fladd+4,f
  5120     04E8  0821               	movf	___fladd@b+1,w
  5121     04E9  1C03               	skipc
  5122     04EA  0F21               	incfsz	___fladd@b+1,w
  5123     04EB  2CED               	goto	u5751
  5124     04EC  2CEE               	goto	u5752
  5125     04ED                     u5751:
  5126     04ED  02AD               	subwf	??___fladd+5,f
  5127     04EE                     u5752:
  5128     04EE  0822               	movf	___fladd@b+2,w
  5129     04EF  1C03               	skipc
  5130     04F0  0F22               	incfsz	___fladd@b+2,w
  5131     04F1  2CF3               	goto	u5753
  5132     04F2  2CF4               	goto	u5754
  5133     04F3                     u5753:
  5134     04F3  02AE               	subwf	??___fladd+6,f
  5135     04F4                     u5754:
  5136     04F4  0823               	movf	___fladd@b+3,w
  5137     04F5  1C03               	skipc
  5138     04F6  0F23               	incfsz	___fladd@b+3,w
  5139     04F7  2CF9               	goto	u5755
  5140     04F8  2CFA               	goto	u5756
  5141     04F9                     u5755:
  5142     04F9  02AF               	subwf	??___fladd+7,f
  5143     04FA                     u5756:
  5144     04FA  082C               	movf	??___fladd+4,w
  5145     04FB  07A8               	addwf	??___fladd,f
  5146     04FC  082D               	movf	??___fladd+5,w
  5147     04FD  1803               	skipnc
  5148     04FE  0F2D               	incfsz	??___fladd+5,w
  5149     04FF  2D01               	goto	u5760
  5150     0500  2D02               	goto	u5761
  5151     0501                     u5760:
  5152     0501  07A9               	addwf	??___fladd+1,f
  5153     0502                     u5761:
  5154     0502  082E               	movf	??___fladd+6,w
  5155     0503  1803               	skipnc
  5156     0504  0F2E               	incfsz	??___fladd+6,w
  5157     0505  2D07               	goto	u5762
  5158     0506  2D08               	goto	u5763
  5159     0507                     u5762:
  5160     0507  07AA               	addwf	??___fladd+2,f
  5161     0508                     u5763:
  5162     0508  082F               	movf	??___fladd+7,w
  5163     0509  1803               	skipnc
  5164     050A  0A2F               	incf	??___fladd+7,w
  5165     050B  07AB               	addwf	??___fladd+3,f
  5166     050C  082B               	movf	??___fladd+3,w
  5167     050D  00A3               	movwf	___fladd@b+3
  5168     050E  082A               	movf	??___fladd+2,w
  5169     050F  00A2               	movwf	___fladd@b+2
  5170     0510  0829               	movf	??___fladd+1,w
  5171     0511  00A1               	movwf	___fladd@b+1
  5172     0512  0828               	movf	??___fladd,w
  5173     0513  00A0               	movwf	___fladd@b
  5174     0514                     l3707:
  5175     0514  3080               	movlw	128
  5176     0515  00FF               	movwf	btemp+1
  5177     0516  087F               	movf	btemp+1,w
  5178     0517  06B0               	xorwf	___fladd@signs,f
  5179     0518                     l3709:
  5180     0518  09B3               	comf	___fladd@grs,f
  5181     0519  0AB3               	incf	___fladd@grs,f
  5182     051A                     l3711:
  5183     051A  0833               	movf	___fladd@grs,w
  5184     051B  1D03               	btfss	3,2
  5185     051C  2D1E               	goto	u5771
  5186     051D  2D1F               	goto	u5770
  5187     051E                     u5771:
  5188     051E  2D3C               	goto	l619
  5189     051F                     u5770:
  5190     051F                     l3713:
  5191     051F  3001               	movlw	1
  5192     0520  07A0               	addwf	___fladd@b,f
  5193     0521  3000               	movlw	0
  5194     0522  1803               	skipnc
  5195     0523  3001               	movlw	1
  5196     0524  07A1               	addwf	___fladd@b+1,f
  5197     0525  3000               	movlw	0
  5198     0526  1803               	skipnc
  5199     0527  3001               	movlw	1
  5200     0528  07A2               	addwf	___fladd@b+2,f
  5201     0529  3000               	movlw	0
  5202     052A  1803               	skipnc
  5203     052B  3001               	movlw	1
  5204     052C  07A3               	addwf	___fladd@b+3,f
  5205     052D  2D3C               	goto	l619
  5206     052E                     l3715:
  5207     052E  0824               	movf	___fladd@a,w
  5208     052F  02A0               	subwf	___fladd@b,f
  5209     0530  0825               	movf	___fladd@a+1,w
  5210     0531  1C03               	skipc
  5211     0532  0F25               	incfsz	___fladd@a+1,w
  5212     0533  02A1               	subwf	___fladd@b+1,f
  5213     0534  0826               	movf	___fladd@a+2,w
  5214     0535  1C03               	skipc
  5215     0536  0F26               	incfsz	___fladd@a+2,w
  5216     0537  02A2               	subwf	___fladd@b+2,f
  5217     0538  0827               	movf	___fladd@a+3,w
  5218     0539  1C03               	skipc
  5219     053A  0F27               	incfsz	___fladd@a+3,w
  5220     053B  02A3               	subwf	___fladd@b+3,f
  5221     053C                     l619:
  5222     053C  0823               	movf	___fladd@b+3,w
  5223     053D  0422               	iorwf	___fladd@b+2,w
  5224     053E  0421               	iorwf	___fladd@b+1,w
  5225     053F  0420               	iorwf	___fladd@b,w
  5226     0540  1D03               	skipz
  5227     0541  2D43               	goto	u5781
  5228     0542  2D44               	goto	u5780
  5229     0543                     u5781:
  5230     0543  2D70               	goto	l3737
  5231     0544                     u5780:
  5232     0544                     l3717:
  5233     0544  0833               	movf	___fladd@grs,w
  5234     0545  1D03               	btfss	3,2
  5235     0546  2D48               	goto	u5791
  5236     0547  2D49               	goto	u5790
  5237     0548                     u5791:
  5238     0548  2D70               	goto	l3737
  5239     0549                     u5790:
  5240     0549                     l3719:
  5241     0549  3000               	movlw	0
  5242     054A  00A3               	movwf	?___fladd+3
  5243     054B  3000               	movlw	0
  5244     054C  00A2               	movwf	?___fladd+2
  5245     054D  3000               	movlw	0
  5246     054E  00A1               	movwf	?___fladd+1
  5247     054F  3000               	movlw	0
  5248     0550  00A0               	movwf	?___fladd
  5249     0551  2DEC               	goto	l611
  5250     0552                     l3723:
  5251     0552  3001               	movlw	1
  5252     0553  00A8               	movwf	??___fladd
  5253     0554                     u5805:
  5254     0554  1003               	clrc
  5255     0555  0DA0               	rlf	___fladd@b,f
  5256     0556  0DA1               	rlf	___fladd@b+1,f
  5257     0557  0DA2               	rlf	___fladd@b+2,f
  5258     0558  0DA3               	rlf	___fladd@b+3,f
  5259     0559  0BA8               	decfsz	??___fladd,f
  5260     055A  2D54               	goto	u5805
  5261     055B                     l3725:
  5262     055B  1FB3               	btfss	___fladd@grs,7
  5263     055C  2D5E               	goto	u5811
  5264     055D  2D5F               	goto	u5810
  5265     055E                     u5811:
  5266     055E  2D60               	goto	l623
  5267     055F                     u5810:
  5268     055F                     l3727:
  5269     055F  1420               	bsf	___fladd@b,0
  5270     0560                     l623:
  5271     0560  1C33               	btfss	___fladd@grs,0
  5272     0561  2D63               	goto	u5821
  5273     0562  2D64               	goto	u5820
  5274     0563                     u5821:
  5275     0563  2D67               	goto	l3731
  5276     0564                     u5820:
  5277     0564                     l3729:
  5278     0564  1403               	setc
  5279     0565  0DB3               	rlf	___fladd@grs,f
  5280     0566  2D69               	goto	l3733
  5281     0567                     l3731:
  5282     0567  1003               	clrc
  5283     0568  0DB3               	rlf	___fladd@grs,f
  5284     0569                     l3733:
  5285     0569  0832               	movf	___fladd@bexp,w
  5286     056A  1903               	btfsc	3,2
  5287     056B  2D6D               	goto	u5831
  5288     056C  2D6E               	goto	u5830
  5289     056D                     u5831:
  5290     056D  2D70               	goto	l3737
  5291     056E                     u5830:
  5292     056E                     l3735:
  5293     056E  3001               	movlw	1
  5294     056F  02B2               	subwf	___fladd@bexp,f
  5295     0570                     l3737:
  5296     0570  1FA2               	btfss	___fladd@b+2,7
  5297     0571  2D73               	goto	u5841
  5298     0572  2D74               	goto	u5840
  5299     0573                     u5841:
  5300     0573  2D52               	goto	l3723
  5301     0574                     u5840:
  5302     0574                     l3739:
  5303     0574  01B1               	clrf	___fladd@aexp
  5304     0575                     l3741:
  5305     0575  1FB3               	btfss	___fladd@grs,7
  5306     0576  2D78               	goto	u5851
  5307     0577  2D79               	goto	u5850
  5308     0578                     u5851:
  5309     0578  2D87               	goto	l3749
  5310     0579                     u5850:
  5311     0579                     l3743:
  5312     0579  0833               	movf	___fladd@grs,w
  5313     057A  397F               	andlw	127
  5314     057B  1903               	btfsc	3,2
  5315     057C  2D7E               	goto	u5861
  5316     057D  2D7F               	goto	u5860
  5317     057E                     u5861:
  5318     057E  2D82               	goto	l629
  5319     057F                     u5860:
  5320     057F                     l3745:
  5321     057F  01B1               	clrf	___fladd@aexp
  5322     0580  0AB1               	incf	___fladd@aexp,f
  5323     0581  2D87               	goto	l3749
  5324     0582                     l629:
  5325     0582  1C20               	btfss	___fladd@b,0
  5326     0583  2D85               	goto	u5871
  5327     0584  2D86               	goto	u5870
  5328     0585                     u5871:
  5329     0585  2D87               	goto	l3749
  5330     0586                     u5870:
  5331     0586  2D7F               	goto	l3745
  5332     0587                     l3749:
  5333     0587  0831               	movf	___fladd@aexp,w
  5334     0588  1903               	btfsc	3,2
  5335     0589  2D8B               	goto	u5881
  5336     058A  2D8C               	goto	u5880
  5337     058B                     u5881:
  5338     058B  2DC0               	goto	l3759
  5339     058C                     u5880:
  5340     058C                     l3751:
  5341     058C  3001               	movlw	1
  5342     058D  07A0               	addwf	___fladd@b,f
  5343     058E  3000               	movlw	0
  5344     058F  1803               	skipnc
  5345     0590  3001               	movlw	1
  5346     0591  07A1               	addwf	___fladd@b+1,f
  5347     0592  3000               	movlw	0
  5348     0593  1803               	skipnc
  5349     0594  3001               	movlw	1
  5350     0595  07A2               	addwf	___fladd@b+2,f
  5351     0596  3000               	movlw	0
  5352     0597  1803               	skipnc
  5353     0598  3001               	movlw	1
  5354     0599  07A3               	addwf	___fladd@b+3,f
  5355     059A                     l3753:
  5356     059A  1C23               	btfss	___fladd@b+3,0
  5357     059B  2D9D               	goto	u5891
  5358     059C  2D9E               	goto	u5890
  5359     059D                     u5891:
  5360     059D  2DC0               	goto	l3759
  5361     059E                     u5890:
  5362     059E                     l3755:
  5363     059E  0820               	movf	___fladd@b,w
  5364     059F  00A8               	movwf	??___fladd
  5365     05A0  0821               	movf	___fladd@b+1,w
  5366     05A1  00A9               	movwf	??___fladd+1
  5367     05A2  0822               	movf	___fladd@b+2,w
  5368     05A3  00AA               	movwf	??___fladd+2
  5369     05A4  0823               	movf	___fladd@b+3,w
  5370     05A5  00AB               	movwf	??___fladd+3
  5371     05A6  3001               	movlw	1
  5372     05A7  00AC               	movwf	??___fladd+4
  5373     05A8                     u5905:
  5374     05A8  0D2B               	rlf	??___fladd+3,w
  5375     05A9  0CAB               	rrf	??___fladd+3,f
  5376     05AA  0CAA               	rrf	??___fladd+2,f
  5377     05AB  0CA9               	rrf	??___fladd+1,f
  5378     05AC  0CA8               	rrf	??___fladd,f
  5379     05AD                     u5900:
  5380     05AD  0BAC               	decfsz	??___fladd+4,f
  5381     05AE  2DA8               	goto	u5905
  5382     05AF  082B               	movf	??___fladd+3,w
  5383     05B0  00A3               	movwf	___fladd@b+3
  5384     05B1  082A               	movf	??___fladd+2,w
  5385     05B2  00A2               	movwf	___fladd@b+2
  5386     05B3  0829               	movf	??___fladd+1,w
  5387     05B4  00A1               	movwf	___fladd@b+1
  5388     05B5  0828               	movf	??___fladd,w
  5389     05B6  00A0               	movwf	___fladd@b
  5390     05B7  0A32               	incf	___fladd@bexp,w
  5391     05B8  1903               	btfsc	3,2
  5392     05B9  2DBB               	goto	u5911
  5393     05BA  2DBC               	goto	u5910
  5394     05BB                     u5911:
  5395     05BB  2DC0               	goto	l3759
  5396     05BC                     u5910:
  5397     05BC                     l3757:
  5398     05BC  3001               	movlw	1
  5399     05BD  00FF               	movwf	btemp+1
  5400     05BE  087F               	movf	btemp+1,w
  5401     05BF  07B2               	addwf	___fladd@bexp,f
  5402     05C0                     l3759:
  5403     05C0  0A32               	incf	___fladd@bexp,w
  5404     05C1  1903               	btfsc	3,2
  5405     05C2  2DC4               	goto	u5921
  5406     05C3  2DC5               	goto	u5920
  5407     05C4                     u5921:
  5408     05C4  2DCA               	goto	l3763
  5409     05C5                     u5920:
  5410     05C5                     l3761:
  5411     05C5  0832               	movf	___fladd@bexp,w
  5412     05C6  1D03               	btfss	3,2
  5413     05C7  2DC9               	goto	u5931
  5414     05C8  2DCA               	goto	u5930
  5415     05C9                     u5931:
  5416     05C9  2DD8               	goto	l3769
  5417     05CA                     u5930:
  5418     05CA                     l3763:
  5419     05CA  3000               	movlw	0
  5420     05CB  00A3               	movwf	___fladd@b+3
  5421     05CC  3000               	movlw	0
  5422     05CD  00A2               	movwf	___fladd@b+2
  5423     05CE  3000               	movlw	0
  5424     05CF  00A1               	movwf	___fladd@b+1
  5425     05D0  3000               	movlw	0
  5426     05D1  00A0               	movwf	___fladd@b
  5427     05D2                     l3765:
  5428     05D2  0832               	movf	___fladd@bexp,w
  5429     05D3  1D03               	btfss	3,2
  5430     05D4  2DD6               	goto	u5941
  5431     05D5  2DD7               	goto	u5940
  5432     05D6                     u5941:
  5433     05D6  2DD8               	goto	l3769
  5434     05D7                     u5940:
  5435     05D7                     l3767:
  5436     05D7  01B0               	clrf	___fladd@signs
  5437     05D8                     l3769:
  5438     05D8  1C32               	btfss	___fladd@bexp,0
  5439     05D9  2DDB               	goto	u5951
  5440     05DA  2DDC               	goto	u5950
  5441     05DB                     u5951:
  5442     05DB  2DDE               	goto	l3773
  5443     05DC                     u5950:
  5444     05DC                     l3771:
  5445     05DC  17A2               	bsf	___fladd@b+2,7
  5446     05DD  2DE2               	goto	l3775
  5447     05DE                     l3773:
  5448     05DE  307F               	movlw	127
  5449     05DF  00FF               	movwf	btemp+1
  5450     05E0  087F               	movf	btemp+1,w
  5451     05E1  05A2               	andwf	___fladd@b+2,f
  5452     05E2                     l3775:
  5453     05E2  0832               	movf	___fladd@bexp,w
  5454     05E3  00A8               	movwf	??___fladd
  5455     05E4  1003               	clrc
  5456     05E5  0C28               	rrf	??___fladd,w
  5457     05E6  00A3               	movwf	___fladd@b+3
  5458     05E7                     l3777:
  5459     05E7  1FB0               	btfss	___fladd@signs,7
  5460     05E8  2DEA               	goto	u5961
  5461     05E9  2DEB               	goto	u5960
  5462     05EA                     u5961:
  5463     05EA  2DEC               	goto	l641
  5464     05EB                     u5960:
  5465     05EB                     l3779:
  5466     05EB  17A3               	bsf	___fladd@b+3,7
  5467     05EC                     l641:
  5468     05EC                     l611:
  5469     05EC  0008               	return
  5470     05ED                     __end_of___fladd:
  5471                           
  5472                           	psect	text19
  5473     19EB                     __ptext19:	
  5474 ;; *************** function ___flneg *****************
  5475 ;; Defined at:
  5476 ;;		line 15 in file "C:\Program Files\Microchip\xc8\v2.46\pic\sources\c99\common\flneg.c"
  5477 ;; Parameters:    Size  Location     Type
  5478 ;;  f1              4    0[BANK0 ] unsigned char 
  5479 ;; Auto vars:     Size  Location     Type
  5480 ;;		None
  5481 ;; Return value:  Size  Location     Type
  5482 ;;                  4    0[BANK0 ] unsigned char 
  5483 ;; Registers used:
  5484 ;;		wreg
  5485 ;; Tracked objects:
  5486 ;;		On entry : 0/0
  5487 ;;		On exit  : 0/0
  5488 ;;		Unchanged: 0/0
  5489 ;; Data sizes:     COMMON   BANK0   BANK1   BANK3   BANK2
  5490 ;;      Params:         0       4       0       0       0
  5491 ;;      Locals:         0       0       0       0       0
  5492 ;;      Temps:          0       0       0       0       0
  5493 ;;      Totals:         0       4       0       0       0
  5494 ;;Total ram usage:        4 bytes
  5495 ;; Hardware stack levels used: 1
  5496 ;; Hardware stack levels required when called: 1
  5497 ;; This function calls:
  5498 ;;		Nothing
  5499 ;; This function is called by:
  5500 ;;		_efgtoa
  5501 ;; This function uses a non-reentrant model
  5502 ;;
  5503                           
  5504     19EB                     ___flneg:	
  5505                           ;psect for function ___flneg
  5506                           
  5507     19EB                     l3829:	
  5508                           ;incstack = 0
  5509                           ; Regs used in ___flneg: [wreg]
  5510                           
  5511     19EB  1283               	bcf	3,5	;RP0=0, select bank0
  5512     19EC  1303               	bcf	3,6	;RP1=0, select bank0
  5513     19ED  0823               	movf	___flneg@f1+3,w
  5514     19EE  0422               	iorwf	___flneg@f1+2,w
  5515     19EF  0421               	iorwf	___flneg@f1+1,w
  5516     19F0  0420               	iorwf	___flneg@f1,w
  5517     19F1  1903               	skipnz
  5518     19F2  29F4               	goto	u6081
  5519     19F3  29F5               	goto	u6080
  5520     19F4                     u6081:
  5521     19F4  29F7               	goto	l3833
  5522     19F5                     u6080:
  5523     19F5                     l3831:
  5524     19F5  3080               	movlw	128
  5525     19F6  06A3               	xorwf	___flneg@f1+3,f
  5526     19F7                     l3833:
  5527     19F7                     l487:
  5528     19F7  0008               	return
  5529     19F8                     __end_of___flneg:
  5530                           
  5531                           	psect	text20
  5532     0050                     __ptext20:	
  5533 ;; *************** function ___flmul *****************
  5534 ;; Defined at:
  5535 ;;		line 8 in file "C:\Program Files\Microchip\xc8\v2.46\pic\sources\c99\common\sprcmul.c"
  5536 ;; Parameters:    Size  Location     Type
  5537 ;;  b               4   40[BANK0 ] unsigned char 
  5538 ;;  a               4   44[BANK0 ] unsigned char 
  5539 ;; Auto vars:     Size  Location     Type
  5540 ;;  prod            4   60[BANK0 ] struct .
  5541 ;;  grs             4   55[BANK0 ] unsigned long 
  5542 ;;  temp            2   64[BANK0 ] struct .
  5543 ;;  bexp            1   59[BANK0 ] unsigned char 
  5544 ;;  aexp            1   54[BANK0 ] unsigned char 
  5545 ;;  sign            1   53[BANK0 ] unsigned char 
  5546 ;; Return value:  Size  Location     Type
  5547 ;;                  4   40[BANK0 ] unsigned char 
  5548 ;; Registers used:
  5549 ;;		wreg, status,2, status,0, btemp+1, pclath, cstack
  5550 ;; Tracked objects:
  5551 ;;		On entry : 0/0
  5552 ;;		On exit  : 0/0
  5553 ;;		Unchanged: 0/0
  5554 ;; Data sizes:     COMMON   BANK0   BANK1   BANK3   BANK2
  5555 ;;      Params:         0       8       0       0       0
  5556 ;;      Locals:         0      13       0       0       0
  5557 ;;      Temps:          0       5       0       0       0
  5558 ;;      Totals:         0      26       0       0       0
  5559 ;;Total ram usage:       26 bytes
  5560 ;; Hardware stack levels used: 1
  5561 ;; Hardware stack levels required when called: 2
  5562 ;; This function calls:
  5563 ;;		__Umul8_16
  5564 ;; This function is called by:
  5565 ;;		_main
  5566 ;;		_efgtoa
  5567 ;; This function uses a non-reentrant model
  5568 ;;
  5569                           
  5570     0050                     ___flmul:	
  5571                           ;psect for function ___flmul
  5572                           
  5573     0050                     l3881:	
  5574                           ;incstack = 0
  5575                           ; Regs used in ___flmul: [wreg+status,2+status,0+btemp+1+pclath+cstack]
  5576                           
  5577     0050  1283               	bcf	3,5	;RP0=0, select bank0
  5578     0051  1303               	bcf	3,6	;RP1=0, select bank0
  5579     0052  084B               	movf	___flmul@b+3,w
  5580     0053  3980               	andlw	128
  5581     0054  00D5               	movwf	___flmul@sign
  5582     0055                     l3883:
  5583     0055  084B               	movf	___flmul@b+3,w
  5584     0056  00D0               	movwf	??___flmul
  5585     0057  0750               	addwf	??___flmul,w
  5586     0058  00DB               	movwf	___flmul@bexp
  5587     0059                     l3885:
  5588     0059  1FCA               	btfss	___flmul@b+2,7
  5589     005A  285C               	goto	u6191
  5590     005B  285D               	goto	u6190
  5591     005C                     u6191:
  5592     005C  285E               	goto	l3889
  5593     005D                     u6190:
  5594     005D                     l3887:
  5595     005D  145B               	bsf	___flmul@bexp,0
  5596     005E                     l3889:
  5597     005E  085B               	movf	___flmul@bexp,w
  5598     005F  1903               	btfsc	3,2
  5599     0060  2862               	goto	u6201
  5600     0061  2863               	goto	u6200
  5601     0062                     u6201:
  5602     0062  2872               	goto	l3897
  5603     0063                     u6200:
  5604     0063                     l3891:
  5605     0063  0A5B               	incf	___flmul@bexp,w
  5606     0064  1D03               	btfss	3,2
  5607     0065  2867               	goto	u6211
  5608     0066  2868               	goto	u6210
  5609     0067                     u6211:
  5610     0067  2870               	goto	l3895
  5611     0068                     u6210:
  5612     0068                     l3893:
  5613     0068  3000               	movlw	0
  5614     0069  00CB               	movwf	___flmul@b+3
  5615     006A  3000               	movlw	0
  5616     006B  00CA               	movwf	___flmul@b+2
  5617     006C  3000               	movlw	0
  5618     006D  00C9               	movwf	___flmul@b+1
  5619     006E  3000               	movlw	0
  5620     006F  00C8               	movwf	___flmul@b
  5621     0070                     l3895:
  5622     0070  17CA               	bsf	___flmul@b+2,7
  5623     0071  287A               	goto	l3899
  5624     0072                     l3897:
  5625     0072  3000               	movlw	0
  5626     0073  00CB               	movwf	___flmul@b+3
  5627     0074  3000               	movlw	0
  5628     0075  00CA               	movwf	___flmul@b+2
  5629     0076  3000               	movlw	0
  5630     0077  00C9               	movwf	___flmul@b+1
  5631     0078  3000               	movlw	0
  5632     0079  00C8               	movwf	___flmul@b
  5633     007A                     l3899:
  5634     007A  084F               	movf	___flmul@a+3,w
  5635     007B  3980               	andlw	128
  5636     007C  00FF               	movwf	btemp+1
  5637     007D  087F               	movf	btemp+1,w
  5638     007E  06D5               	xorwf	___flmul@sign,f
  5639     007F                     l3901:
  5640     007F  084F               	movf	___flmul@a+3,w
  5641     0080  00D0               	movwf	??___flmul
  5642     0081  0750               	addwf	??___flmul,w
  5643     0082  00D6               	movwf	___flmul@aexp
  5644     0083                     l3903:
  5645     0083  1FCE               	btfss	___flmul@a+2,7
  5646     0084  2886               	goto	u6221
  5647     0085  2887               	goto	u6220
  5648     0086                     u6221:
  5649     0086  2888               	goto	l3907
  5650     0087                     u6220:
  5651     0087                     l3905:
  5652     0087  1456               	bsf	___flmul@aexp,0
  5653     0088                     l3907:
  5654     0088  0856               	movf	___flmul@aexp,w
  5655     0089  1903               	btfsc	3,2
  5656     008A  288C               	goto	u6231
  5657     008B  288D               	goto	u6230
  5658     008C                     u6231:
  5659     008C  289C               	goto	l3915
  5660     008D                     u6230:
  5661     008D                     l3909:
  5662     008D  0A56               	incf	___flmul@aexp,w
  5663     008E  1D03               	btfss	3,2
  5664     008F  2891               	goto	u6241
  5665     0090  2892               	goto	u6240
  5666     0091                     u6241:
  5667     0091  289A               	goto	l3913
  5668     0092                     u6240:
  5669     0092                     l3911:
  5670     0092  3000               	movlw	0
  5671     0093  00CF               	movwf	___flmul@a+3
  5672     0094  3000               	movlw	0
  5673     0095  00CE               	movwf	___flmul@a+2
  5674     0096  3000               	movlw	0
  5675     0097  00CD               	movwf	___flmul@a+1
  5676     0098  3000               	movlw	0
  5677     0099  00CC               	movwf	___flmul@a
  5678     009A                     l3913:
  5679     009A  17CE               	bsf	___flmul@a+2,7
  5680     009B  28A4               	goto	l3917
  5681     009C                     l3915:
  5682     009C  3000               	movlw	0
  5683     009D  00CF               	movwf	___flmul@a+3
  5684     009E  3000               	movlw	0
  5685     009F  00CE               	movwf	___flmul@a+2
  5686     00A0  3000               	movlw	0
  5687     00A1  00CD               	movwf	___flmul@a+1
  5688     00A2  3000               	movlw	0
  5689     00A3  00CC               	movwf	___flmul@a
  5690     00A4                     l3917:
  5691     00A4  0856               	movf	___flmul@aexp,w
  5692     00A5  1903               	btfsc	3,2
  5693     00A6  28A8               	goto	u6251
  5694     00A7  28A9               	goto	u6250
  5695     00A8                     u6251:
  5696     00A8  28AE               	goto	l3921
  5697     00A9                     u6250:
  5698     00A9                     l3919:
  5699     00A9  085B               	movf	___flmul@bexp,w
  5700     00AA  1D03               	btfss	3,2
  5701     00AB  28AD               	goto	u6261
  5702     00AC  28AE               	goto	u6260
  5703     00AD                     u6261:
  5704     00AD  28B7               	goto	l3925
  5705     00AE                     u6260:
  5706     00AE                     l3921:
  5707     00AE  3000               	movlw	0
  5708     00AF  00CB               	movwf	?___flmul+3
  5709     00B0  3000               	movlw	0
  5710     00B1  00CA               	movwf	?___flmul+2
  5711     00B2  3000               	movlw	0
  5712     00B3  00C9               	movwf	?___flmul+1
  5713     00B4  3000               	movlw	0
  5714     00B5  00C8               	movwf	?___flmul
  5715     00B6  2B94               	goto	l694
  5716     00B7                     l3925:
  5717     00B7  0848               	movf	___flmul@b,w
  5718     00B8  00A0               	movwf	__Umul8_16@multiplicand
  5719     00B9  084E               	movf	___flmul@a+2,w
  5720     00BA  160A  158A  22D0  120A  118A  	fcall	__Umul8_16
  5721     00BF  1283               	bcf	3,5	;RP0=0, select bank0
  5722     00C0  1303               	bcf	3,6	;RP1=0, select bank0
  5723     00C1  0821               	movf	?__Umul8_16+1,w
  5724     00C2  00E1               	movwf	___flmul@temp+1
  5725     00C3  0820               	movf	?__Umul8_16,w
  5726     00C4  00E0               	movwf	___flmul@temp
  5727     00C5                     l3927:
  5728     00C5  0860               	movf	___flmul@temp,w
  5729     00C6  00D0               	movwf	??___flmul
  5730     00C7  01D1               	clrf	??___flmul+1
  5731     00C8  01D2               	clrf	??___flmul+2
  5732     00C9  01D3               	clrf	??___flmul+3
  5733     00CA  0853               	movf	??___flmul+3,w
  5734     00CB  00DA               	movwf	___flmul@grs+3
  5735     00CC  0852               	movf	??___flmul+2,w
  5736     00CD  00D9               	movwf	___flmul@grs+2
  5737     00CE  0851               	movf	??___flmul+1,w
  5738     00CF  00D8               	movwf	___flmul@grs+1
  5739     00D0  0850               	movf	??___flmul,w
  5740     00D1  00D7               	movwf	___flmul@grs
  5741     00D2                     l3929:
  5742     00D2  0861               	movf	___flmul@temp+1,w
  5743     00D3  00D0               	movwf	??___flmul
  5744     00D4  01D1               	clrf	??___flmul+1
  5745     00D5  01D2               	clrf	??___flmul+2
  5746     00D6  01D3               	clrf	??___flmul+3
  5747     00D7  0853               	movf	??___flmul+3,w
  5748     00D8  00DF               	movwf	___flmul@prod+3
  5749     00D9  0852               	movf	??___flmul+2,w
  5750     00DA  00DE               	movwf	___flmul@prod+2
  5751     00DB  0851               	movf	??___flmul+1,w
  5752     00DC  00DD               	movwf	___flmul@prod+1
  5753     00DD  0850               	movf	??___flmul,w
  5754     00DE  00DC               	movwf	___flmul@prod
  5755     00DF  0849               	movf	___flmul@b+1,w
  5756     00E0  00A0               	movwf	__Umul8_16@multiplicand
  5757     00E1  084D               	movf	___flmul@a+1,w
  5758     00E2  160A  158A  22D0  120A  118A  	fcall	__Umul8_16
  5759     00E7  1283               	bcf	3,5	;RP0=0, select bank0
  5760     00E8  1303               	bcf	3,6	;RP1=0, select bank0
  5761     00E9  0821               	movf	?__Umul8_16+1,w
  5762     00EA  00E1               	movwf	___flmul@temp+1
  5763     00EB  0820               	movf	?__Umul8_16,w
  5764     00EC  00E0               	movwf	___flmul@temp
  5765     00ED                     l3931:
  5766     00ED  0860               	movf	___flmul@temp,w
  5767     00EE  00D0               	movwf	??___flmul
  5768     00EF  01D1               	clrf	??___flmul+1
  5769     00F0  01D2               	clrf	??___flmul+2
  5770     00F1  01D3               	clrf	??___flmul+3
  5771     00F2  0850               	movf	??___flmul,w
  5772     00F3  07D7               	addwf	___flmul@grs,f
  5773     00F4  0851               	movf	??___flmul+1,w
  5774     00F5  1103               	clrz
  5775     00F6  1803               	skipnc
  5776     00F7  3E01               	addlw	1
  5777     00F8  1903               	skipnz
  5778     00F9  28FB               	goto	u6271
  5779     00FA  07D8               	addwf	___flmul@grs+1,f
  5780     00FB                     u6271:
  5781     00FB  0852               	movf	??___flmul+2,w
  5782     00FC  1103               	clrz
  5783     00FD  1803               	skipnc
  5784     00FE  3E01               	addlw	1
  5785     00FF  1903               	skipnz
  5786     0100  2902               	goto	u6272
  5787     0101  07D9               	addwf	___flmul@grs+2,f
  5788     0102                     u6272:
  5789     0102  0853               	movf	??___flmul+3,w
  5790     0103  1103               	clrz
  5791     0104  1803               	skipnc
  5792     0105  3E01               	addlw	1
  5793     0106  1903               	skipnz
  5794     0107  2909               	goto	u6273
  5795     0108  07DA               	addwf	___flmul@grs+3,f
  5796     0109                     u6273:
  5797     0109                     l3933:
  5798     0109  0861               	movf	___flmul@temp+1,w
  5799     010A  00D0               	movwf	??___flmul
  5800     010B  01D1               	clrf	??___flmul+1
  5801     010C  01D2               	clrf	??___flmul+2
  5802     010D  01D3               	clrf	??___flmul+3
  5803     010E  0850               	movf	??___flmul,w
  5804     010F  07DC               	addwf	___flmul@prod,f
  5805     0110  0851               	movf	??___flmul+1,w
  5806     0111  1103               	clrz
  5807     0112  1803               	skipnc
  5808     0113  3E01               	addlw	1
  5809     0114  1903               	skipnz
  5810     0115  2917               	goto	u6281
  5811     0116  07DD               	addwf	___flmul@prod+1,f
  5812     0117                     u6281:
  5813     0117  0852               	movf	??___flmul+2,w
  5814     0118  1103               	clrz
  5815     0119  1803               	skipnc
  5816     011A  3E01               	addlw	1
  5817     011B  1903               	skipnz
  5818     011C  291E               	goto	u6282
  5819     011D  07DE               	addwf	___flmul@prod+2,f
  5820     011E                     u6282:
  5821     011E  0853               	movf	??___flmul+3,w
  5822     011F  1103               	clrz
  5823     0120  1803               	skipnc
  5824     0121  3E01               	addlw	1
  5825     0122  1903               	skipnz
  5826     0123  2925               	goto	u6283
  5827     0124  07DF               	addwf	___flmul@prod+3,f
  5828     0125                     u6283:
  5829     0125  084A               	movf	___flmul@b+2,w
  5830     0126  00A0               	movwf	__Umul8_16@multiplicand
  5831     0127  084C               	movf	___flmul@a,w
  5832     0128  160A  158A  22D0  120A  118A  	fcall	__Umul8_16
  5833     012D  1283               	bcf	3,5	;RP0=0, select bank0
  5834     012E  1303               	bcf	3,6	;RP1=0, select bank0
  5835     012F  0821               	movf	?__Umul8_16+1,w
  5836     0130  00E1               	movwf	___flmul@temp+1
  5837     0131  0820               	movf	?__Umul8_16,w
  5838     0132  00E0               	movwf	___flmul@temp
  5839     0133                     l3935:
  5840     0133  0860               	movf	___flmul@temp,w
  5841     0134  00D0               	movwf	??___flmul
  5842     0135  01D1               	clrf	??___flmul+1
  5843     0136  01D2               	clrf	??___flmul+2
  5844     0137  01D3               	clrf	??___flmul+3
  5845     0138  0850               	movf	??___flmul,w
  5846     0139  07D7               	addwf	___flmul@grs,f
  5847     013A  0851               	movf	??___flmul+1,w
  5848     013B  1103               	clrz
  5849     013C  1803               	skipnc
  5850     013D  3E01               	addlw	1
  5851     013E  1903               	skipnz
  5852     013F  2941               	goto	u6291
  5853     0140  07D8               	addwf	___flmul@grs+1,f
  5854     0141                     u6291:
  5855     0141  0852               	movf	??___flmul+2,w
  5856     0142  1103               	clrz
  5857     0143  1803               	skipnc
  5858     0144  3E01               	addlw	1
  5859     0145  1903               	skipnz
  5860     0146  2948               	goto	u6292
  5861     0147  07D9               	addwf	___flmul@grs+2,f
  5862     0148                     u6292:
  5863     0148  0853               	movf	??___flmul+3,w
  5864     0149  1103               	clrz
  5865     014A  1803               	skipnc
  5866     014B  3E01               	addlw	1
  5867     014C  1903               	skipnz
  5868     014D  294F               	goto	u6293
  5869     014E  07DA               	addwf	___flmul@grs+3,f
  5870     014F                     u6293:
  5871     014F                     l3937:
  5872     014F  0861               	movf	___flmul@temp+1,w
  5873     0150  00D0               	movwf	??___flmul
  5874     0151  01D1               	clrf	??___flmul+1
  5875     0152  01D2               	clrf	??___flmul+2
  5876     0153  01D3               	clrf	??___flmul+3
  5877     0154  0850               	movf	??___flmul,w
  5878     0155  07DC               	addwf	___flmul@prod,f
  5879     0156  0851               	movf	??___flmul+1,w
  5880     0157  1103               	clrz
  5881     0158  1803               	skipnc
  5882     0159  3E01               	addlw	1
  5883     015A  1903               	skipnz
  5884     015B  295D               	goto	u6301
  5885     015C  07DD               	addwf	___flmul@prod+1,f
  5886     015D                     u6301:
  5887     015D  0852               	movf	??___flmul+2,w
  5888     015E  1103               	clrz
  5889     015F  1803               	skipnc
  5890     0160  3E01               	addlw	1
  5891     0161  1903               	skipnz
  5892     0162  2964               	goto	u6302
  5893     0163  07DE               	addwf	___flmul@prod+2,f
  5894     0164                     u6302:
  5895     0164  0853               	movf	??___flmul+3,w
  5896     0165  1103               	clrz
  5897     0166  1803               	skipnc
  5898     0167  3E01               	addlw	1
  5899     0168  1903               	skipnz
  5900     0169  296B               	goto	u6303
  5901     016A  07DF               	addwf	___flmul@prod+3,f
  5902     016B                     u6303:
  5903     016B                     l3939:
  5904     016B  3008               	movlw	8
  5905     016C  00D0               	movwf	??___flmul
  5906     016D                     u6315:
  5907     016D  1003               	clrc
  5908     016E  0DD7               	rlf	___flmul@grs,f
  5909     016F  0DD8               	rlf	___flmul@grs+1,f
  5910     0170  0DD9               	rlf	___flmul@grs+2,f
  5911     0171  0DDA               	rlf	___flmul@grs+3,f
  5912     0172  0BD0               	decfsz	??___flmul,f
  5913     0173  296D               	goto	u6315
  5914     0174                     l3941:
  5915     0174  0849               	movf	___flmul@b+1,w
  5916     0175  00A0               	movwf	__Umul8_16@multiplicand
  5917     0176  084C               	movf	___flmul@a,w
  5918     0177  160A  158A  22D0  120A  118A  	fcall	__Umul8_16
  5919     017C  1283               	bcf	3,5	;RP0=0, select bank0
  5920     017D  1303               	bcf	3,6	;RP1=0, select bank0
  5921     017E  0821               	movf	?__Umul8_16+1,w
  5922     017F  00E1               	movwf	___flmul@temp+1
  5923     0180  0820               	movf	?__Umul8_16,w
  5924     0181  00E0               	movwf	___flmul@temp
  5925     0182                     l3943:
  5926     0182  0860               	movf	___flmul@temp,w
  5927     0183  00D0               	movwf	??___flmul
  5928     0184  0861               	movf	___flmul@temp+1,w
  5929     0185  00D1               	movwf	??___flmul+1
  5930     0186  01D2               	clrf	??___flmul+2
  5931     0187  01D3               	clrf	??___flmul+3
  5932     0188  0850               	movf	??___flmul,w
  5933     0189  07D7               	addwf	___flmul@grs,f
  5934     018A  0851               	movf	??___flmul+1,w
  5935     018B  1103               	clrz
  5936     018C  1803               	skipnc
  5937     018D  3E01               	addlw	1
  5938     018E  1903               	skipnz
  5939     018F  2991               	goto	u6321
  5940     0190  07D8               	addwf	___flmul@grs+1,f
  5941     0191                     u6321:
  5942     0191  0852               	movf	??___flmul+2,w
  5943     0192  1103               	clrz
  5944     0193  1803               	skipnc
  5945     0194  3E01               	addlw	1
  5946     0195  1903               	skipnz
  5947     0196  2998               	goto	u6322
  5948     0197  07D9               	addwf	___flmul@grs+2,f
  5949     0198                     u6322:
  5950     0198  0853               	movf	??___flmul+3,w
  5951     0199  1103               	clrz
  5952     019A  1803               	skipnc
  5953     019B  3E01               	addlw	1
  5954     019C  1903               	skipnz
  5955     019D  299F               	goto	u6323
  5956     019E  07DA               	addwf	___flmul@grs+3,f
  5957     019F                     u6323:
  5958     019F                     l3945:
  5959     019F  0848               	movf	___flmul@b,w
  5960     01A0  00A0               	movwf	__Umul8_16@multiplicand
  5961     01A1  084D               	movf	___flmul@a+1,w
  5962     01A2  160A  158A  22D0  120A  118A  	fcall	__Umul8_16
  5963     01A7  1283               	bcf	3,5	;RP0=0, select bank0
  5964     01A8  1303               	bcf	3,6	;RP1=0, select bank0
  5965     01A9  0821               	movf	?__Umul8_16+1,w
  5966     01AA  00E1               	movwf	___flmul@temp+1
  5967     01AB  0820               	movf	?__Umul8_16,w
  5968     01AC  00E0               	movwf	___flmul@temp
  5969     01AD                     l3947:
  5970     01AD  0860               	movf	___flmul@temp,w
  5971     01AE  00D0               	movwf	??___flmul
  5972     01AF  0861               	movf	___flmul@temp+1,w
  5973     01B0  00D1               	movwf	??___flmul+1
  5974     01B1  01D2               	clrf	??___flmul+2
  5975     01B2  01D3               	clrf	??___flmul+3
  5976     01B3  0850               	movf	??___flmul,w
  5977     01B4  07D7               	addwf	___flmul@grs,f
  5978     01B5  0851               	movf	??___flmul+1,w
  5979     01B6  1103               	clrz
  5980     01B7  1803               	skipnc
  5981     01B8  3E01               	addlw	1
  5982     01B9  1903               	skipnz
  5983     01BA  29BC               	goto	u6331
  5984     01BB  07D8               	addwf	___flmul@grs+1,f
  5985     01BC                     u6331:
  5986     01BC  0852               	movf	??___flmul+2,w
  5987     01BD  1103               	clrz
  5988     01BE  1803               	skipnc
  5989     01BF  3E01               	addlw	1
  5990     01C0  1903               	skipnz
  5991     01C1  29C3               	goto	u6332
  5992     01C2  07D9               	addwf	___flmul@grs+2,f
  5993     01C3                     u6332:
  5994     01C3  0853               	movf	??___flmul+3,w
  5995     01C4  1103               	clrz
  5996     01C5  1803               	skipnc
  5997     01C6  3E01               	addlw	1
  5998     01C7  1903               	skipnz
  5999     01C8  29CA               	goto	u6333
  6000     01C9  07DA               	addwf	___flmul@grs+3,f
  6001     01CA                     u6333:
  6002     01CA                     l3949:
  6003     01CA  3008               	movlw	8
  6004     01CB  00D0               	movwf	??___flmul
  6005     01CC                     u6345:
  6006     01CC  1003               	clrc
  6007     01CD  0DD7               	rlf	___flmul@grs,f
  6008     01CE  0DD8               	rlf	___flmul@grs+1,f
  6009     01CF  0DD9               	rlf	___flmul@grs+2,f
  6010     01D0  0DDA               	rlf	___flmul@grs+3,f
  6011     01D1  0BD0               	decfsz	??___flmul,f
  6012     01D2  29CC               	goto	u6345
  6013     01D3  0848               	movf	___flmul@b,w
  6014     01D4  00A0               	movwf	__Umul8_16@multiplicand
  6015     01D5  084C               	movf	___flmul@a,w
  6016     01D6  160A  158A  22D0  120A  118A  	fcall	__Umul8_16
  6017     01DB  1283               	bcf	3,5	;RP0=0, select bank0
  6018     01DC  1303               	bcf	3,6	;RP1=0, select bank0
  6019     01DD  0821               	movf	?__Umul8_16+1,w
  6020     01DE  00E1               	movwf	___flmul@temp+1
  6021     01DF  0820               	movf	?__Umul8_16,w
  6022     01E0  00E0               	movwf	___flmul@temp
  6023     01E1                     l3951:
  6024     01E1  0860               	movf	___flmul@temp,w
  6025     01E2  00D0               	movwf	??___flmul
  6026     01E3  0861               	movf	___flmul@temp+1,w
  6027     01E4  00D1               	movwf	??___flmul+1
  6028     01E5  01D2               	clrf	??___flmul+2
  6029     01E6  01D3               	clrf	??___flmul+3
  6030     01E7  0850               	movf	??___flmul,w
  6031     01E8  07D7               	addwf	___flmul@grs,f
  6032     01E9  0851               	movf	??___flmul+1,w
  6033     01EA  1103               	clrz
  6034     01EB  1803               	skipnc
  6035     01EC  3E01               	addlw	1
  6036     01ED  1903               	skipnz
  6037     01EE  29F0               	goto	u6351
  6038     01EF  07D8               	addwf	___flmul@grs+1,f
  6039     01F0                     u6351:
  6040     01F0  0852               	movf	??___flmul+2,w
  6041     01F1  1103               	clrz
  6042     01F2  1803               	skipnc
  6043     01F3  3E01               	addlw	1
  6044     01F4  1903               	skipnz
  6045     01F5  29F7               	goto	u6352
  6046     01F6  07D9               	addwf	___flmul@grs+2,f
  6047     01F7                     u6352:
  6048     01F7  0853               	movf	??___flmul+3,w
  6049     01F8  1103               	clrz
  6050     01F9  1803               	skipnc
  6051     01FA  3E01               	addlw	1
  6052     01FB  1903               	skipnz
  6053     01FC  29FE               	goto	u6353
  6054     01FD  07DA               	addwf	___flmul@grs+3,f
  6055     01FE                     u6353:
  6056     01FE                     l3953:
  6057     01FE  0849               	movf	___flmul@b+1,w
  6058     01FF  00A0               	movwf	__Umul8_16@multiplicand
  6059     0200  084E               	movf	___flmul@a+2,w
  6060     0201  160A  158A  22D0  120A  118A  	fcall	__Umul8_16
  6061     0206  1283               	bcf	3,5	;RP0=0, select bank0
  6062     0207  1303               	bcf	3,6	;RP1=0, select bank0
  6063     0208  0821               	movf	?__Umul8_16+1,w
  6064     0209  00E1               	movwf	___flmul@temp+1
  6065     020A  0820               	movf	?__Umul8_16,w
  6066     020B  00E0               	movwf	___flmul@temp
  6067     020C  0860               	movf	___flmul@temp,w
  6068     020D  00D0               	movwf	??___flmul
  6069     020E  0861               	movf	___flmul@temp+1,w
  6070     020F  00D1               	movwf	??___flmul+1
  6071     0210  01D2               	clrf	??___flmul+2
  6072     0211  01D3               	clrf	??___flmul+3
  6073     0212  0850               	movf	??___flmul,w
  6074     0213  07DC               	addwf	___flmul@prod,f
  6075     0214  0851               	movf	??___flmul+1,w
  6076     0215  1103               	clrz
  6077     0216  1803               	skipnc
  6078     0217  3E01               	addlw	1
  6079     0218  1903               	skipnz
  6080     0219  2A1B               	goto	u6361
  6081     021A  07DD               	addwf	___flmul@prod+1,f
  6082     021B                     u6361:
  6083     021B  0852               	movf	??___flmul+2,w
  6084     021C  1103               	clrz
  6085     021D  1803               	skipnc
  6086     021E  3E01               	addlw	1
  6087     021F  1903               	skipnz
  6088     0220  2A22               	goto	u6362
  6089     0221  07DE               	addwf	___flmul@prod+2,f
  6090     0222                     u6362:
  6091     0222  0853               	movf	??___flmul+3,w
  6092     0223  1103               	clrz
  6093     0224  1803               	skipnc
  6094     0225  3E01               	addlw	1
  6095     0226  1903               	skipnz
  6096     0227  2A29               	goto	u6363
  6097     0228  07DF               	addwf	___flmul@prod+3,f
  6098     0229                     u6363:
  6099     0229                     l3955:
  6100     0229  084A               	movf	___flmul@b+2,w
  6101     022A  00A0               	movwf	__Umul8_16@multiplicand
  6102     022B  084D               	movf	___flmul@a+1,w
  6103     022C  160A  158A  22D0  120A  118A  	fcall	__Umul8_16
  6104     0231  1283               	bcf	3,5	;RP0=0, select bank0
  6105     0232  1303               	bcf	3,6	;RP1=0, select bank0
  6106     0233  0821               	movf	?__Umul8_16+1,w
  6107     0234  00E1               	movwf	___flmul@temp+1
  6108     0235  0820               	movf	?__Umul8_16,w
  6109     0236  00E0               	movwf	___flmul@temp
  6110     0237                     l3957:
  6111     0237  0860               	movf	___flmul@temp,w
  6112     0238  00D0               	movwf	??___flmul
  6113     0239  0861               	movf	___flmul@temp+1,w
  6114     023A  00D1               	movwf	??___flmul+1
  6115     023B  01D2               	clrf	??___flmul+2
  6116     023C  01D3               	clrf	??___flmul+3
  6117     023D  0850               	movf	??___flmul,w
  6118     023E  07DC               	addwf	___flmul@prod,f
  6119     023F  0851               	movf	??___flmul+1,w
  6120     0240  1103               	clrz
  6121     0241  1803               	skipnc
  6122     0242  3E01               	addlw	1
  6123     0243  1903               	skipnz
  6124     0244  2A46               	goto	u6371
  6125     0245  07DD               	addwf	___flmul@prod+1,f
  6126     0246                     u6371:
  6127     0246  0852               	movf	??___flmul+2,w
  6128     0247  1103               	clrz
  6129     0248  1803               	skipnc
  6130     0249  3E01               	addlw	1
  6131     024A  1903               	skipnz
  6132     024B  2A4D               	goto	u6372
  6133     024C  07DE               	addwf	___flmul@prod+2,f
  6134     024D                     u6372:
  6135     024D  0853               	movf	??___flmul+3,w
  6136     024E  1103               	clrz
  6137     024F  1803               	skipnc
  6138     0250  3E01               	addlw	1
  6139     0251  1903               	skipnz
  6140     0252  2A54               	goto	u6373
  6141     0253  07DF               	addwf	___flmul@prod+3,f
  6142     0254                     u6373:
  6143     0254  084A               	movf	___flmul@b+2,w
  6144     0255  00A0               	movwf	__Umul8_16@multiplicand
  6145     0256  084E               	movf	___flmul@a+2,w
  6146     0257  160A  158A  22D0  120A  118A  	fcall	__Umul8_16
  6147     025C  1283               	bcf	3,5	;RP0=0, select bank0
  6148     025D  1303               	bcf	3,6	;RP1=0, select bank0
  6149     025E  0821               	movf	?__Umul8_16+1,w
  6150     025F  00E1               	movwf	___flmul@temp+1
  6151     0260  0820               	movf	?__Umul8_16,w
  6152     0261  00E0               	movwf	___flmul@temp
  6153     0262                     l3959:
  6154     0262  0860               	movf	___flmul@temp,w
  6155     0263  00D0               	movwf	??___flmul
  6156     0264  0861               	movf	___flmul@temp+1,w
  6157     0265  00D1               	movwf	??___flmul+1
  6158     0266  01D2               	clrf	??___flmul+2
  6159     0267  01D3               	clrf	??___flmul+3
  6160     0268  3008               	movlw	8
  6161     0269                     u6385:
  6162     0269  1003               	clrc
  6163     026A  0DD0               	rlf	??___flmul,f
  6164     026B  0DD1               	rlf	??___flmul+1,f
  6165     026C  0DD2               	rlf	??___flmul+2,f
  6166     026D  0DD3               	rlf	??___flmul+3,f
  6167     026E                     u6380:
  6168     026E  3EFF               	addlw	-1
  6169     026F  1D03               	skipz
  6170     0270  2A69               	goto	u6385
  6171     0271  0850               	movf	??___flmul,w
  6172     0272  07DC               	addwf	___flmul@prod,f
  6173     0273  0851               	movf	??___flmul+1,w
  6174     0274  1103               	clrz
  6175     0275  1803               	skipnc
  6176     0276  3E01               	addlw	1
  6177     0277  1903               	skipnz
  6178     0278  2A7A               	goto	u6391
  6179     0279  07DD               	addwf	___flmul@prod+1,f
  6180     027A                     u6391:
  6181     027A  0852               	movf	??___flmul+2,w
  6182     027B  1103               	clrz
  6183     027C  1803               	skipnc
  6184     027D  3E01               	addlw	1
  6185     027E  1903               	skipnz
  6186     027F  2A81               	goto	u6392
  6187     0280  07DE               	addwf	___flmul@prod+2,f
  6188     0281                     u6392:
  6189     0281  0853               	movf	??___flmul+3,w
  6190     0282  1103               	clrz
  6191     0283  1803               	skipnc
  6192     0284  3E01               	addlw	1
  6193     0285  1903               	skipnz
  6194     0286  2A88               	goto	u6393
  6195     0287  07DF               	addwf	___flmul@prod+3,f
  6196     0288                     u6393:
  6197     0288                     l3961:
  6198     0288  0857               	movf	___flmul@grs,w
  6199     0289  00D0               	movwf	??___flmul
  6200     028A  0858               	movf	___flmul@grs+1,w
  6201     028B  00D1               	movwf	??___flmul+1
  6202     028C  0859               	movf	___flmul@grs+2,w
  6203     028D  00D2               	movwf	??___flmul+2
  6204     028E  085A               	movf	___flmul@grs+3,w
  6205     028F  00D3               	movwf	??___flmul+3
  6206     0290  3018               	movlw	24
  6207     0291                     u6405:
  6208     0291  1003               	clrc
  6209     0292  0CD3               	rrf	??___flmul+3,f
  6210     0293  0CD2               	rrf	??___flmul+2,f
  6211     0294  0CD1               	rrf	??___flmul+1,f
  6212     0295  0CD0               	rrf	??___flmul,f
  6213     0296                     u6400:
  6214     0296  3EFF               	addlw	-1
  6215     0297  1D03               	skipz
  6216     0298  2A91               	goto	u6405
  6217     0299  0850               	movf	??___flmul,w
  6218     029A  07DC               	addwf	___flmul@prod,f
  6219     029B  0851               	movf	??___flmul+1,w
  6220     029C  1103               	clrz
  6221     029D  1803               	skipnc
  6222     029E  3E01               	addlw	1
  6223     029F  1903               	skipnz
  6224     02A0  2AA2               	goto	u6411
  6225     02A1  07DD               	addwf	___flmul@prod+1,f
  6226     02A2                     u6411:
  6227     02A2  0852               	movf	??___flmul+2,w
  6228     02A3  1103               	clrz
  6229     02A4  1803               	skipnc
  6230     02A5  3E01               	addlw	1
  6231     02A6  1903               	skipnz
  6232     02A7  2AA9               	goto	u6412
  6233     02A8  07DE               	addwf	___flmul@prod+2,f
  6234     02A9                     u6412:
  6235     02A9  0853               	movf	??___flmul+3,w
  6236     02AA  1103               	clrz
  6237     02AB  1803               	skipnc
  6238     02AC  3E01               	addlw	1
  6239     02AD  1903               	skipnz
  6240     02AE  2AB0               	goto	u6413
  6241     02AF  07DF               	addwf	___flmul@prod+3,f
  6242     02B0                     u6413:
  6243     02B0                     l3963:
  6244     02B0  3008               	movlw	8
  6245     02B1  00D0               	movwf	??___flmul
  6246     02B2                     u6425:
  6247     02B2  1003               	clrc
  6248     02B3  0DD7               	rlf	___flmul@grs,f
  6249     02B4  0DD8               	rlf	___flmul@grs+1,f
  6250     02B5  0DD9               	rlf	___flmul@grs+2,f
  6251     02B6  0DDA               	rlf	___flmul@grs+3,f
  6252     02B7  0BD0               	decfsz	??___flmul,f
  6253     02B8  2AB2               	goto	u6425
  6254     02B9                     l3965:
  6255     02B9  085B               	movf	___flmul@bexp,w
  6256     02BA  0756               	addwf	___flmul@aexp,w
  6257     02BB  00D0               	movwf	??___flmul
  6258     02BC  01D1               	clrf	??___flmul+1
  6259     02BD  0DD1               	rlf	??___flmul+1,f
  6260     02BE  0850               	movf	??___flmul,w
  6261     02BF  3E82               	addlw	130
  6262     02C0  00E0               	movwf	___flmul@temp
  6263     02C1  0851               	movf	??___flmul+1,w
  6264     02C2  1803               	skipnc
  6265     02C3  3E01               	addlw	1
  6266     02C4  3EFF               	addlw	255
  6267     02C5  00E1               	movwf	___flmul@temp+1
  6268     02C6  2AE4               	goto	l3977
  6269     02C7                     l3967:
  6270     02C7  3001               	movlw	1
  6271     02C8  00D0               	movwf	??___flmul
  6272     02C9                     u6435:
  6273     02C9  1003               	clrc
  6274     02CA  0DDC               	rlf	___flmul@prod,f
  6275     02CB  0DDD               	rlf	___flmul@prod+1,f
  6276     02CC  0DDE               	rlf	___flmul@prod+2,f
  6277     02CD  0DDF               	rlf	___flmul@prod+3,f
  6278     02CE  0BD0               	decfsz	??___flmul,f
  6279     02CF  2AC9               	goto	u6435
  6280     02D0                     l3969:
  6281     02D0  1FDA               	btfss	___flmul@grs+3,7
  6282     02D1  2AD3               	goto	u6441
  6283     02D2  2AD4               	goto	u6440
  6284     02D3                     u6441:
  6285     02D3  2AD5               	goto	l3973
  6286     02D4                     u6440:
  6287     02D4                     l3971:
  6288     02D4  145C               	bsf	___flmul@prod,0
  6289     02D5                     l3973:
  6290     02D5  3001               	movlw	1
  6291     02D6  00D0               	movwf	??___flmul
  6292     02D7                     u6455:
  6293     02D7  1003               	clrc
  6294     02D8  0DD7               	rlf	___flmul@grs,f
  6295     02D9  0DD8               	rlf	___flmul@grs+1,f
  6296     02DA  0DD9               	rlf	___flmul@grs+2,f
  6297     02DB  0DDA               	rlf	___flmul@grs+3,f
  6298     02DC  0BD0               	decfsz	??___flmul,f
  6299     02DD  2AD7               	goto	u6455
  6300     02DE                     l3975:
  6301     02DE  30FF               	movlw	255
  6302     02DF  07E0               	addwf	___flmul@temp,f
  6303     02E0  1803               	skipnc
  6304     02E1  0AE1               	incf	___flmul@temp+1,f
  6305     02E2  30FF               	movlw	255
  6306     02E3  07E1               	addwf	___flmul@temp+1,f
  6307     02E4                     l3977:
  6308     02E4  1FDE               	btfss	___flmul@prod+2,7
  6309     02E5  2AE7               	goto	u6461
  6310     02E6  2AE8               	goto	u6460
  6311     02E7                     u6461:
  6312     02E7  2AC7               	goto	l3967
  6313     02E8                     u6460:
  6314     02E8                     l3979:
  6315     02E8  01D6               	clrf	___flmul@aexp
  6316     02E9                     l3981:
  6317     02E9  1FDA               	btfss	___flmul@grs+3,7
  6318     02EA  2AEC               	goto	u6471
  6319     02EB  2AED               	goto	u6470
  6320     02EC                     u6471:
  6321     02EC  2B09               	goto	l3989
  6322     02ED                     u6470:
  6323     02ED                     l3983:
  6324     02ED  30FF               	movlw	255
  6325     02EE  0557               	andwf	___flmul@grs,w
  6326     02EF  00D0               	movwf	??___flmul
  6327     02F0  30FF               	movlw	255
  6328     02F1  0558               	andwf	___flmul@grs+1,w
  6329     02F2  00D1               	movwf	??___flmul+1
  6330     02F3  30FF               	movlw	255
  6331     02F4  0559               	andwf	___flmul@grs+2,w
  6332     02F5  00D2               	movwf	??___flmul+2
  6333     02F6  307F               	movlw	127
  6334     02F7  055A               	andwf	___flmul@grs+3,w
  6335     02F8  00D3               	movwf	??___flmul+3
  6336     02F9  0853               	movf	??___flmul+3,w
  6337     02FA  0452               	iorwf	??___flmul+2,w
  6338     02FB  0451               	iorwf	??___flmul+1,w
  6339     02FC  0450               	iorwf	??___flmul,w
  6340     02FD  1903               	skipnz
  6341     02FE  2B00               	goto	u6481
  6342     02FF  2B01               	goto	u6480
  6343     0300                     u6481:
  6344     0300  2B04               	goto	l700
  6345     0301                     u6480:
  6346     0301                     l3985:
  6347     0301  01D6               	clrf	___flmul@aexp
  6348     0302  0AD6               	incf	___flmul@aexp,f
  6349     0303  2B09               	goto	l3989
  6350     0304                     l700:
  6351     0304  1C5C               	btfss	___flmul@prod,0
  6352     0305  2B07               	goto	u6491
  6353     0306  2B08               	goto	u6490
  6354     0307                     u6491:
  6355     0307  2B09               	goto	l3989
  6356     0308                     u6490:
  6357     0308  2B01               	goto	l3985
  6358     0309                     l3989:
  6359     0309  0856               	movf	___flmul@aexp,w
  6360     030A  1903               	btfsc	3,2
  6361     030B  2B0D               	goto	u6501
  6362     030C  2B0E               	goto	u6500
  6363     030D                     u6501:
  6364     030D  2B3F               	goto	l3999
  6365     030E                     u6500:
  6366     030E                     l3991:
  6367     030E  3001               	movlw	1
  6368     030F  07DC               	addwf	___flmul@prod,f
  6369     0310  3000               	movlw	0
  6370     0311  1803               	skipnc
  6371     0312  3001               	movlw	1
  6372     0313  07DD               	addwf	___flmul@prod+1,f
  6373     0314  3000               	movlw	0
  6374     0315  1803               	skipnc
  6375     0316  3001               	movlw	1
  6376     0317  07DE               	addwf	___flmul@prod+2,f
  6377     0318  3000               	movlw	0
  6378     0319  1803               	skipnc
  6379     031A  3001               	movlw	1
  6380     031B  07DF               	addwf	___flmul@prod+3,f
  6381     031C                     l3993:
  6382     031C  1C5F               	btfss	___flmul@prod+3,0
  6383     031D  2B1F               	goto	u6511
  6384     031E  2B20               	goto	u6510
  6385     031F                     u6511:
  6386     031F  2B3F               	goto	l3999
  6387     0320                     u6510:
  6388     0320                     l3995:
  6389     0320  085C               	movf	___flmul@prod,w
  6390     0321  00D0               	movwf	??___flmul
  6391     0322  085D               	movf	___flmul@prod+1,w
  6392     0323  00D1               	movwf	??___flmul+1
  6393     0324  085E               	movf	___flmul@prod+2,w
  6394     0325  00D2               	movwf	??___flmul+2
  6395     0326  085F               	movf	___flmul@prod+3,w
  6396     0327  00D3               	movwf	??___flmul+3
  6397     0328  3001               	movlw	1
  6398     0329  00D4               	movwf	??___flmul+4
  6399     032A                     u6525:
  6400     032A  0D53               	rlf	??___flmul+3,w
  6401     032B  0CD3               	rrf	??___flmul+3,f
  6402     032C  0CD2               	rrf	??___flmul+2,f
  6403     032D  0CD1               	rrf	??___flmul+1,f
  6404     032E  0CD0               	rrf	??___flmul,f
  6405     032F                     u6520:
  6406     032F  0BD4               	decfsz	??___flmul+4,f
  6407     0330  2B2A               	goto	u6525
  6408     0331  0853               	movf	??___flmul+3,w
  6409     0332  00DF               	movwf	___flmul@prod+3
  6410     0333  0852               	movf	??___flmul+2,w
  6411     0334  00DE               	movwf	___flmul@prod+2
  6412     0335  0851               	movf	??___flmul+1,w
  6413     0336  00DD               	movwf	___flmul@prod+1
  6414     0337  0850               	movf	??___flmul,w
  6415     0338  00DC               	movwf	___flmul@prod
  6416     0339                     l3997:
  6417     0339  3001               	movlw	1
  6418     033A  07E0               	addwf	___flmul@temp,f
  6419     033B  1803               	skipnc
  6420     033C  0AE1               	incf	___flmul@temp+1,f
  6421     033D  3000               	movlw	0
  6422     033E  07E1               	addwf	___flmul@temp+1,f
  6423     033F                     l3999:
  6424     033F  0861               	movf	___flmul@temp+1,w
  6425     0340  3A80               	xorlw	128
  6426     0341  00FF               	movwf	btemp+1
  6427     0342  3080               	movlw	128
  6428     0343  027F               	subwf	btemp+1,w
  6429     0344  1D03               	skipz
  6430     0345  2B48               	goto	u6535
  6431     0346  30FF               	movlw	255
  6432     0347  0260               	subwf	___flmul@temp,w
  6433     0348                     u6535:
  6434     0348  1C03               	skipc
  6435     0349  2B4B               	goto	u6531
  6436     034A  2B4C               	goto	u6530
  6437     034B                     u6531:
  6438     034B  2B57               	goto	l4003
  6439     034C                     u6530:
  6440     034C                     l4001:
  6441     034C  307F               	movlw	127
  6442     034D  1283               	bcf	3,5	;RP0=0, select bank0
  6443     034E  1303               	bcf	3,6	;RP1=0, select bank0
  6444     034F  00DF               	movwf	___flmul@prod+3
  6445     0350  3080               	movlw	128
  6446     0351  00DE               	movwf	___flmul@prod+2
  6447     0352  3000               	movlw	0
  6448     0353  00DD               	movwf	___flmul@prod+1
  6449     0354  3000               	movlw	0
  6450     0355  00DC               	movwf	___flmul@prod
  6451     0356  2B88               	goto	l4017
  6452     0357                     l4003:
  6453     0357  1283               	bcf	3,5	;RP0=0, select bank0
  6454     0358  1303               	bcf	3,6	;RP1=0, select bank0
  6455     0359  0861               	movf	___flmul@temp+1,w
  6456     035A  3A80               	xorlw	128
  6457     035B  00FF               	movwf	btemp+1
  6458     035C  3080               	movlw	128
  6459     035D  027F               	subwf	btemp+1,w
  6460     035E  1D03               	skipz
  6461     035F  2B62               	goto	u6545
  6462     0360  3001               	movlw	1
  6463     0361  0260               	subwf	___flmul@temp,w
  6464     0362                     u6545:
  6465     0362  1803               	skipnc
  6466     0363  2B65               	goto	u6541
  6467     0364  2B66               	goto	u6540
  6468     0365                     u6541:
  6469     0365  2B72               	goto	l4009
  6470     0366                     u6540:
  6471     0366                     l4005:
  6472     0366  3000               	movlw	0
  6473     0367  1283               	bcf	3,5	;RP0=0, select bank0
  6474     0368  1303               	bcf	3,6	;RP1=0, select bank0
  6475     0369  00DF               	movwf	___flmul@prod+3
  6476     036A  3000               	movlw	0
  6477     036B  00DE               	movwf	___flmul@prod+2
  6478     036C  3000               	movlw	0
  6479     036D  00DD               	movwf	___flmul@prod+1
  6480     036E  3000               	movlw	0
  6481     036F  00DC               	movwf	___flmul@prod
  6482     0370                     l4007:
  6483     0370  01D5               	clrf	___flmul@sign
  6484     0371  2B88               	goto	l4017
  6485     0372                     l4009:
  6486     0372  1283               	bcf	3,5	;RP0=0, select bank0
  6487     0373  1303               	bcf	3,6	;RP1=0, select bank0
  6488     0374  0860               	movf	___flmul@temp,w
  6489     0375  00DB               	movwf	___flmul@bexp
  6490     0376  30FF               	movlw	255
  6491     0377  05DC               	andwf	___flmul@prod,f
  6492     0378  30FF               	movlw	255
  6493     0379  05DD               	andwf	___flmul@prod+1,f
  6494     037A  307F               	movlw	127
  6495     037B  05DE               	andwf	___flmul@prod+2,f
  6496     037C  3000               	movlw	0
  6497     037D  05DF               	andwf	___flmul@prod+3,f
  6498     037E                     l4011:
  6499     037E  1C5B               	btfss	___flmul@bexp,0
  6500     037F  2B81               	goto	u6551
  6501     0380  2B82               	goto	u6550
  6502     0381                     u6551:
  6503     0381  2B83               	goto	l4015
  6504     0382                     u6550:
  6505     0382                     l4013:
  6506     0382  17DE               	bsf	___flmul@prod+2,7
  6507     0383                     l4015:
  6508     0383  085B               	movf	___flmul@bexp,w
  6509     0384  00D0               	movwf	??___flmul
  6510     0385  1003               	clrc
  6511     0386  0C50               	rrf	??___flmul,w
  6512     0387  00DF               	movwf	___flmul@prod+3
  6513     0388                     l4017:
  6514     0388  0855               	movf	___flmul@sign,w
  6515     0389  00FF               	movwf	btemp+1
  6516     038A  087F               	movf	btemp+1,w
  6517     038B  04DF               	iorwf	___flmul@prod+3,f
  6518     038C                     l4019:
  6519     038C  085F               	movf	___flmul@prod+3,w
  6520     038D  00CB               	movwf	?___flmul+3
  6521     038E  085E               	movf	___flmul@prod+2,w
  6522     038F  00CA               	movwf	?___flmul+2
  6523     0390  085D               	movf	___flmul@prod+1,w
  6524     0391  00C9               	movwf	?___flmul+1
  6525     0392  085C               	movf	___flmul@prod,w
  6526     0393  00C8               	movwf	?___flmul
  6527     0394                     l694:
  6528     0394  0008               	return
  6529     0395                     __end_of___flmul:
  6530                           
  6531                           	psect	text21
  6532     1AD0                     __ptext21:	
  6533 ;; *************** function __Umul8_16 *****************
  6534 ;; Defined at:
  6535 ;;		line 4 in file "C:\Program Files\Microchip\xc8\v2.46\pic\sources\c99\common\Umul8_16.c"
  6536 ;; Parameters:    Size  Location     Type
  6537 ;;  multiplier      1    wreg     unsigned char 
  6538 ;;  multiplicand    1    0[BANK0 ] unsigned char 
  6539 ;; Auto vars:     Size  Location     Type
  6540 ;;  multiplier      1    8[BANK0 ] unsigned char 
  6541 ;;  word_mpld       2    6[BANK0 ] unsigned short 
  6542 ;;  product         2    4[BANK0 ] unsigned short 
  6543 ;; Return value:  Size  Location     Type
  6544 ;;                  2    0[BANK0 ] unsigned int 
  6545 ;; Registers used:
  6546 ;;		wreg, status,2, status,0
  6547 ;; Tracked objects:
  6548 ;;		On entry : 0/0
  6549 ;;		On exit  : 0/0
  6550 ;;		Unchanged: 0/0
  6551 ;; Data sizes:     COMMON   BANK0   BANK1   BANK3   BANK2
  6552 ;;      Params:         0       2       0       0       0
  6553 ;;      Locals:         0       5       0       0       0
  6554 ;;      Temps:          0       2       0       0       0
  6555 ;;      Totals:         0       9       0       0       0
  6556 ;;Total ram usage:        9 bytes
  6557 ;; Hardware stack levels used: 1
  6558 ;; Hardware stack levels required when called: 1
  6559 ;; This function calls:
  6560 ;;		Nothing
  6561 ;; This function is called by:
  6562 ;;		___flmul
  6563 ;; This function uses a non-reentrant model
  6564 ;;
  6565                           
  6566     1AD0                     __Umul8_16:	
  6567                           ;psect for function __Umul8_16
  6568                           
  6569                           
  6570                           ;incstack = 0
  6571                           ; Regs used in __Umul8_16: [wreg+status,2+status,0]
  6572                           ;__Umul8_16@multiplier stored from wreg
  6573     1AD0  1283               	bcf	3,5	;RP0=0, select bank0
  6574     1AD1  1303               	bcf	3,6	;RP1=0, select bank0
  6575     1AD2  00A8               	movwf	__Umul8_16@multiplier
  6576     1AD3                     l3781:
  6577     1AD3  01A4               	clrf	__Umul8_16@product
  6578     1AD4  01A5               	clrf	__Umul8_16@product+1
  6579     1AD5                     l3783:
  6580     1AD5  0820               	movf	__Umul8_16@multiplicand,w
  6581     1AD6  00A2               	movwf	??__Umul8_16
  6582     1AD7  01A3               	clrf	??__Umul8_16+1
  6583     1AD8  0822               	movf	??__Umul8_16,w
  6584     1AD9  00A6               	movwf	__Umul8_16@word_mpld
  6585     1ADA  0823               	movf	??__Umul8_16+1,w
  6586     1ADB  00A7               	movwf	__Umul8_16@word_mpld+1
  6587     1ADC                     l3785:
  6588     1ADC  1C28               	btfss	__Umul8_16@multiplier,0
  6589     1ADD  2ADF               	goto	u5971
  6590     1ADE  2AE0               	goto	u5970
  6591     1ADF                     u5971:
  6592     1ADF  2AE6               	goto	l713
  6593     1AE0                     u5970:
  6594     1AE0                     l3787:
  6595     1AE0  0826               	movf	__Umul8_16@word_mpld,w
  6596     1AE1  07A4               	addwf	__Umul8_16@product,f
  6597     1AE2  1803               	skipnc
  6598     1AE3  0AA5               	incf	__Umul8_16@product+1,f
  6599     1AE4  0827               	movf	__Umul8_16@word_mpld+1,w
  6600     1AE5  07A5               	addwf	__Umul8_16@product+1,f
  6601     1AE6                     l713:
  6602     1AE6  3001               	movlw	1
  6603     1AE7                     u5985:
  6604     1AE7  1003               	clrc
  6605     1AE8  0DA6               	rlf	__Umul8_16@word_mpld,f
  6606     1AE9  0DA7               	rlf	__Umul8_16@word_mpld+1,f
  6607     1AEA  3EFF               	addlw	-1
  6608     1AEB  1D03               	skipz
  6609     1AEC  2AE7               	goto	u5985
  6610     1AED  1003               	clrc
  6611     1AEE  0CA8               	rrf	__Umul8_16@multiplier,f
  6612     1AEF                     l3789:
  6613     1AEF  0828               	movf	__Umul8_16@multiplier,w
  6614     1AF0  1D03               	btfss	3,2
  6615     1AF1  2AF3               	goto	u5991
  6616     1AF2  2AF4               	goto	u5990
  6617     1AF3                     u5991:
  6618     1AF3  2ADC               	goto	l3785
  6619     1AF4                     u5990:
  6620     1AF4                     l3791:
  6621     1AF4  0825               	movf	__Umul8_16@product+1,w
  6622     1AF5  00A1               	movwf	?__Umul8_16+1
  6623     1AF6  0824               	movf	__Umul8_16@product,w
  6624     1AF7  00A0               	movwf	?__Umul8_16
  6625     1AF8                     l715:
  6626     1AF8  0008               	return
  6627     1AF9                     __end_of__Umul8_16:
  6628                           
  6629                           	psect	text22
  6630     1EA2                     __ptext22:	
  6631 ;; *************** function ___flge *****************
  6632 ;; Defined at:
  6633 ;;		line 4 in file "C:\Program Files\Microchip\xc8\v2.46\pic\sources\c99\common\flge.c"
  6634 ;; Parameters:    Size  Location     Type
  6635 ;;  ff1             4   66[BANK0 ] unsigned int 
  6636 ;;  ff2             4   70[BANK0 ] unsigned int 
  6637 ;; Auto vars:     Size  Location     Type
  6638 ;;		None
  6639 ;; Return value:  Size  Location     Type
  6640 ;;		None               void
  6641 ;; Registers used:
  6642 ;;		wreg, status,2, status,0
  6643 ;; Tracked objects:
  6644 ;;		On entry : 0/0
  6645 ;;		On exit  : 0/0
  6646 ;;		Unchanged: 0/0
  6647 ;; Data sizes:     COMMON   BANK0   BANK1   BANK3   BANK2
  6648 ;;      Params:         0       8       0       0       0
  6649 ;;      Locals:         0       0       0       0       0
  6650 ;;      Temps:          0       4       0       0       0
  6651 ;;      Totals:         0      12       0       0       0
  6652 ;;Total ram usage:       12 bytes
  6653 ;; Hardware stack levels used: 1
  6654 ;; Hardware stack levels required when called: 1
  6655 ;; This function calls:
  6656 ;;		Nothing
  6657 ;; This function is called by:
  6658 ;;		_main
  6659 ;;		_efgtoa
  6660 ;; This function uses a non-reentrant model
  6661 ;;
  6662                           
  6663     1EA2                     ___flge:	
  6664                           ;psect for function ___flge
  6665                           
  6666     1EA2                     l2519:	
  6667                           ;incstack = 0
  6668                           ; Regs used in ___flge: [wreg+status,2+status,0]
  6669                           
  6670     1EA2  3000               	movlw	0
  6671     1EA3  1283               	bcf	3,5	;RP0=0, select bank0
  6672     1EA4  1303               	bcf	3,6	;RP1=0, select bank0
  6673     1EA5  0562               	andwf	___flge@ff1,w
  6674     1EA6  00EA               	movwf	??___flge
  6675     1EA7  3000               	movlw	0
  6676     1EA8  0563               	andwf	___flge@ff1+1,w
  6677     1EA9  00EB               	movwf	??___flge+1
  6678     1EAA  3080               	movlw	128
  6679     1EAB  0564               	andwf	___flge@ff1+2,w
  6680     1EAC  00EC               	movwf	??___flge+2
  6681     1EAD  307F               	movlw	127
  6682     1EAE  0565               	andwf	___flge@ff1+3,w
  6683     1EAF  00ED               	movwf	??___flge+3
  6684     1EB0  086D               	movf	??___flge+3,w
  6685     1EB1  046C               	iorwf	??___flge+2,w
  6686     1EB2  046B               	iorwf	??___flge+1,w
  6687     1EB3  046A               	iorwf	??___flge,w
  6688     1EB4  1D03               	skipz
  6689     1EB5  2EB7               	goto	u3351
  6690     1EB6  2EB8               	goto	u3350
  6691     1EB7                     u3351:
  6692     1EB7  2EC0               	goto	l475
  6693     1EB8                     u3350:
  6694     1EB8                     l2521:
  6695     1EB8  3000               	movlw	0
  6696     1EB9  00E5               	movwf	___flge@ff1+3
  6697     1EBA  3000               	movlw	0
  6698     1EBB  00E4               	movwf	___flge@ff1+2
  6699     1EBC  3000               	movlw	0
  6700     1EBD  00E3               	movwf	___flge@ff1+1
  6701     1EBE  3000               	movlw	0
  6702     1EBF  00E2               	movwf	___flge@ff1
  6703     1EC0                     l475:
  6704     1EC0  3000               	movlw	0
  6705     1EC1  0566               	andwf	___flge@ff2,w
  6706     1EC2  00EA               	movwf	??___flge
  6707     1EC3  3000               	movlw	0
  6708     1EC4  0567               	andwf	___flge@ff2+1,w
  6709     1EC5  00EB               	movwf	??___flge+1
  6710     1EC6  3080               	movlw	128
  6711     1EC7  0568               	andwf	___flge@ff2+2,w
  6712     1EC8  00EC               	movwf	??___flge+2
  6713     1EC9  307F               	movlw	127
  6714     1ECA  0569               	andwf	___flge@ff2+3,w
  6715     1ECB  00ED               	movwf	??___flge+3
  6716     1ECC  086D               	movf	??___flge+3,w
  6717     1ECD  046C               	iorwf	??___flge+2,w
  6718     1ECE  046B               	iorwf	??___flge+1,w
  6719     1ECF  046A               	iorwf	??___flge,w
  6720     1ED0  1D03               	skipz
  6721     1ED1  2ED3               	goto	u3361
  6722     1ED2  2ED4               	goto	u3360
  6723     1ED3                     u3361:
  6724     1ED3  2EDC               	goto	l2525
  6725     1ED4                     u3360:
  6726     1ED4                     l2523:
  6727     1ED4  3000               	movlw	0
  6728     1ED5  00E9               	movwf	___flge@ff2+3
  6729     1ED6  3000               	movlw	0
  6730     1ED7  00E8               	movwf	___flge@ff2+2
  6731     1ED8  3000               	movlw	0
  6732     1ED9  00E7               	movwf	___flge@ff2+1
  6733     1EDA  3000               	movlw	0
  6734     1EDB  00E6               	movwf	___flge@ff2
  6735     1EDC                     l2525:
  6736     1EDC  1FE5               	btfss	___flge@ff1+3,7
  6737     1EDD  2EDF               	goto	u3371
  6738     1EDE  2EE0               	goto	u3370
  6739     1EDF                     u3371:
  6740     1EDF  2F04               	goto	l2529
  6741     1EE0                     u3370:
  6742     1EE0                     l2527:
  6743     1EE0  3000               	movlw	0
  6744     1EE1  00EA               	movwf	??___flge
  6745     1EE2  3000               	movlw	0
  6746     1EE3  00EB               	movwf	??___flge+1
  6747     1EE4  3000               	movlw	0
  6748     1EE5  00EC               	movwf	??___flge+2
  6749     1EE6  3080               	movlw	128
  6750     1EE7  00ED               	movwf	??___flge+3
  6751     1EE8  0862               	movf	___flge@ff1,w
  6752     1EE9  02EA               	subwf	??___flge,f
  6753     1EEA  0863               	movf	___flge@ff1+1,w
  6754     1EEB  1C03               	skipc
  6755     1EEC  0F63               	incfsz	___flge@ff1+1,w
  6756     1EED  2EEF               	goto	u3381
  6757     1EEE  2EF0               	goto	u3382
  6758     1EEF                     u3381:
  6759     1EEF  02EB               	subwf	??___flge+1,f
  6760     1EF0                     u3382:
  6761     1EF0  0864               	movf	___flge@ff1+2,w
  6762     1EF1  1C03               	skipc
  6763     1EF2  0F64               	incfsz	___flge@ff1+2,w
  6764     1EF3  2EF5               	goto	u3383
  6765     1EF4  2EF6               	goto	u3384
  6766     1EF5                     u3383:
  6767     1EF5  02EC               	subwf	??___flge+2,f
  6768     1EF6                     u3384:
  6769     1EF6  0865               	movf	___flge@ff1+3,w
  6770     1EF7  1C03               	skipc
  6771     1EF8  0F65               	incfsz	___flge@ff1+3,w
  6772     1EF9  2EFB               	goto	u3385
  6773     1EFA  2EFC               	goto	u3386
  6774     1EFB                     u3385:
  6775     1EFB  02ED               	subwf	??___flge+3,f
  6776     1EFC                     u3386:
  6777     1EFC  086D               	movf	??___flge+3,w
  6778     1EFD  00E5               	movwf	___flge@ff1+3
  6779     1EFE  086C               	movf	??___flge+2,w
  6780     1EFF  00E4               	movwf	___flge@ff1+2
  6781     1F00  086B               	movf	??___flge+1,w
  6782     1F01  00E3               	movwf	___flge@ff1+1
  6783     1F02  086A               	movf	??___flge,w
  6784     1F03  00E2               	movwf	___flge@ff1
  6785     1F04                     l2529:
  6786     1F04  1FE9               	btfss	___flge@ff2+3,7
  6787     1F05  2F07               	goto	u3391
  6788     1F06  2F08               	goto	u3390
  6789     1F07                     u3391:
  6790     1F07  2F2C               	goto	l478
  6791     1F08                     u3390:
  6792     1F08                     l2531:
  6793     1F08  3000               	movlw	0
  6794     1F09  00EA               	movwf	??___flge
  6795     1F0A  3000               	movlw	0
  6796     1F0B  00EB               	movwf	??___flge+1
  6797     1F0C  3000               	movlw	0
  6798     1F0D  00EC               	movwf	??___flge+2
  6799     1F0E  3080               	movlw	128
  6800     1F0F  00ED               	movwf	??___flge+3
  6801     1F10  0866               	movf	___flge@ff2,w
  6802     1F11  02EA               	subwf	??___flge,f
  6803     1F12  0867               	movf	___flge@ff2+1,w
  6804     1F13  1C03               	skipc
  6805     1F14  0F67               	incfsz	___flge@ff2+1,w
  6806     1F15  2F17               	goto	u3401
  6807     1F16  2F18               	goto	u3402
  6808     1F17                     u3401:
  6809     1F17  02EB               	subwf	??___flge+1,f
  6810     1F18                     u3402:
  6811     1F18  0868               	movf	___flge@ff2+2,w
  6812     1F19  1C03               	skipc
  6813     1F1A  0F68               	incfsz	___flge@ff2+2,w
  6814     1F1B  2F1D               	goto	u3403
  6815     1F1C  2F1E               	goto	u3404
  6816     1F1D                     u3403:
  6817     1F1D  02EC               	subwf	??___flge+2,f
  6818     1F1E                     u3404:
  6819     1F1E  0869               	movf	___flge@ff2+3,w
  6820     1F1F  1C03               	skipc
  6821     1F20  0F69               	incfsz	___flge@ff2+3,w
  6822     1F21  2F23               	goto	u3405
  6823     1F22  2F24               	goto	u3406
  6824     1F23                     u3405:
  6825     1F23  02ED               	subwf	??___flge+3,f
  6826     1F24                     u3406:
  6827     1F24  086D               	movf	??___flge+3,w
  6828     1F25  00E9               	movwf	___flge@ff2+3
  6829     1F26  086C               	movf	??___flge+2,w
  6830     1F27  00E8               	movwf	___flge@ff2+2
  6831     1F28  086B               	movf	??___flge+1,w
  6832     1F29  00E7               	movwf	___flge@ff2+1
  6833     1F2A  086A               	movf	??___flge,w
  6834     1F2B  00E6               	movwf	___flge@ff2
  6835     1F2C                     l478:
  6836     1F2C  3080               	movlw	128
  6837     1F2D  06E5               	xorwf	___flge@ff1+3,f
  6838     1F2E  3080               	movlw	128
  6839     1F2F  06E9               	xorwf	___flge@ff2+3,f
  6840     1F30  0869               	movf	___flge@ff2+3,w
  6841     1F31  0265               	subwf	___flge@ff1+3,w
  6842     1F32  1D03               	skipz
  6843     1F33  2F3E               	goto	u3415
  6844     1F34  0868               	movf	___flge@ff2+2,w
  6845     1F35  0264               	subwf	___flge@ff1+2,w
  6846     1F36  1D03               	skipz
  6847     1F37  2F3E               	goto	u3415
  6848     1F38  0867               	movf	___flge@ff2+1,w
  6849     1F39  0263               	subwf	___flge@ff1+1,w
  6850     1F3A  1D03               	skipz
  6851     1F3B  2F3E               	goto	u3415
  6852     1F3C  0866               	movf	___flge@ff2,w
  6853     1F3D  0262               	subwf	___flge@ff1,w
  6854     1F3E                     u3415:
  6855     1F3E  1803               	skipnc
  6856     1F3F  2F41               	goto	u3411
  6857     1F40  2F42               	goto	u3410
  6858     1F41                     u3411:
  6859     1F41  2F44               	goto	l2535
  6860     1F42                     u3410:
  6861     1F42                     l2533:
  6862     1F42  1003               	clrc
  6863     1F43  2F45               	goto	l483
  6864     1F44                     l2535:
  6865     1F44  1403               	setc
  6866     1F45                     l483:
  6867     1F45  0008               	return
  6868     1F46                     __end_of___flge:
  6869                           
  6870                           	psect	text23
  6871     1BA3                     __ptext23:	
  6872 ;; *************** function ___fleq *****************
  6873 ;; Defined at:
  6874 ;;		line 4 in file "C:\Program Files\Microchip\xc8\v2.46\pic\sources\c99\common\fleq.c"
  6875 ;; Parameters:    Size  Location     Type
  6876 ;;  ff1             4    0[BANK0 ] unsigned int 
  6877 ;;  ff2             4    4[BANK0 ] unsigned int 
  6878 ;; Auto vars:     Size  Location     Type
  6879 ;;		None
  6880 ;; Return value:  Size  Location     Type
  6881 ;;		None               void
  6882 ;; Registers used:
  6883 ;;		wreg, status,2, status,0
  6884 ;; Tracked objects:
  6885 ;;		On entry : 0/0
  6886 ;;		On exit  : 0/0
  6887 ;;		Unchanged: 0/0
  6888 ;; Data sizes:     COMMON   BANK0   BANK1   BANK3   BANK2
  6889 ;;      Params:         0       8       0       0       0
  6890 ;;      Locals:         0       0       0       0       0
  6891 ;;      Temps:          0       4       0       0       0
  6892 ;;      Totals:         0      12       0       0       0
  6893 ;;Total ram usage:       12 bytes
  6894 ;; Hardware stack levels used: 1
  6895 ;; Hardware stack levels required when called: 1
  6896 ;; This function calls:
  6897 ;;		Nothing
  6898 ;; This function is called by:
  6899 ;;		_main
  6900 ;;		_efgtoa
  6901 ;; This function uses a non-reentrant model
  6902 ;;
  6903                           
  6904     1BA3                     ___fleq:	
  6905                           ;psect for function ___fleq
  6906                           
  6907     1BA3                     l3817:	
  6908                           ;incstack = 0
  6909                           ; Regs used in ___fleq: [wreg+status,2+status,0]
  6910                           
  6911     1BA3  3000               	movlw	0
  6912     1BA4  1283               	bcf	3,5	;RP0=0, select bank0
  6913     1BA5  1303               	bcf	3,6	;RP1=0, select bank0
  6914     1BA6  0520               	andwf	___fleq@ff1,w
  6915     1BA7  00A8               	movwf	??___fleq
  6916     1BA8  3000               	movlw	0
  6917     1BA9  0521               	andwf	___fleq@ff1+1,w
  6918     1BAA  00A9               	movwf	??___fleq+1
  6919     1BAB  3080               	movlw	128
  6920     1BAC  0522               	andwf	___fleq@ff1+2,w
  6921     1BAD  00AA               	movwf	??___fleq+2
  6922     1BAE  307F               	movlw	127
  6923     1BAF  0523               	andwf	___fleq@ff1+3,w
  6924     1BB0  00AB               	movwf	??___fleq+3
  6925     1BB1  082B               	movf	??___fleq+3,w
  6926     1BB2  042A               	iorwf	??___fleq+2,w
  6927     1BB3  0429               	iorwf	??___fleq+1,w
  6928     1BB4  0428               	iorwf	??___fleq,w
  6929     1BB5  1D03               	skipz
  6930     1BB6  2BB8               	goto	u6051
  6931     1BB7  2BB9               	goto	u6050
  6932     1BB8                     u6051:
  6933     1BB8  2BC1               	goto	l466
  6934     1BB9                     u6050:
  6935     1BB9                     l3819:
  6936     1BB9  3000               	movlw	0
  6937     1BBA  00A3               	movwf	___fleq@ff1+3
  6938     1BBB  3000               	movlw	0
  6939     1BBC  00A2               	movwf	___fleq@ff1+2
  6940     1BBD  3000               	movlw	0
  6941     1BBE  00A1               	movwf	___fleq@ff1+1
  6942     1BBF  3000               	movlw	0
  6943     1BC0  00A0               	movwf	___fleq@ff1
  6944     1BC1                     l466:
  6945     1BC1  3000               	movlw	0
  6946     1BC2  0524               	andwf	___fleq@ff2,w
  6947     1BC3  00A8               	movwf	??___fleq
  6948     1BC4  3000               	movlw	0
  6949     1BC5  0525               	andwf	___fleq@ff2+1,w
  6950     1BC6  00A9               	movwf	??___fleq+1
  6951     1BC7  3080               	movlw	128
  6952     1BC8  0526               	andwf	___fleq@ff2+2,w
  6953     1BC9  00AA               	movwf	??___fleq+2
  6954     1BCA  307F               	movlw	127
  6955     1BCB  0527               	andwf	___fleq@ff2+3,w
  6956     1BCC  00AB               	movwf	??___fleq+3
  6957     1BCD  082B               	movf	??___fleq+3,w
  6958     1BCE  042A               	iorwf	??___fleq+2,w
  6959     1BCF  0429               	iorwf	??___fleq+1,w
  6960     1BD0  0428               	iorwf	??___fleq,w
  6961     1BD1  1D03               	skipz
  6962     1BD2  2BD4               	goto	u6061
  6963     1BD3  2BD5               	goto	u6060
  6964     1BD4                     u6061:
  6965     1BD4  2BDD               	goto	l467
  6966     1BD5                     u6060:
  6967     1BD5                     l3821:
  6968     1BD5  3000               	movlw	0
  6969     1BD6  00A7               	movwf	___fleq@ff2+3
  6970     1BD7  3000               	movlw	0
  6971     1BD8  00A6               	movwf	___fleq@ff2+2
  6972     1BD9  3000               	movlw	0
  6973     1BDA  00A5               	movwf	___fleq@ff2+1
  6974     1BDB  3000               	movlw	0
  6975     1BDC  00A4               	movwf	___fleq@ff2
  6976     1BDD                     l467:
  6977     1BDD  0827               	movf	___fleq@ff2+3,w
  6978     1BDE  0623               	xorwf	___fleq@ff1+3,w
  6979     1BDF  1D03               	skipz
  6980     1BE0  2BEB               	goto	u6075
  6981     1BE1  0826               	movf	___fleq@ff2+2,w
  6982     1BE2  0622               	xorwf	___fleq@ff1+2,w
  6983     1BE3  1D03               	skipz
  6984     1BE4  2BEB               	goto	u6075
  6985     1BE5  0825               	movf	___fleq@ff2+1,w
  6986     1BE6  0621               	xorwf	___fleq@ff1+1,w
  6987     1BE7  1D03               	skipz
  6988     1BE8  2BEB               	goto	u6075
  6989     1BE9  0824               	movf	___fleq@ff2,w
  6990     1BEA  0620               	xorwf	___fleq@ff1,w
  6991     1BEB                     u6075:
  6992     1BEB  1903               	skipnz
  6993     1BEC  2BEE               	goto	u6071
  6994     1BED  2BEF               	goto	u6070
  6995     1BEE                     u6071:
  6996     1BEE  2BF1               	goto	l3825
  6997     1BEF                     u6070:
  6998     1BEF                     l3823:
  6999     1BEF  1003               	clrc
  7000     1BF0  2BF2               	goto	l472
  7001     1BF1                     l3825:
  7002     1BF1  1403               	setc
  7003     1BF2                     l472:
  7004     1BF2  0008               	return
  7005     1BF3                     __end_of___fleq:
  7006                           
  7007                           	psect	text24
  7008     05ED                     __ptext24:	
  7009 ;; *************** function ___fldiv *****************
  7010 ;; Defined at:
  7011 ;;		line 8 in file "C:\Program Files\Microchip\xc8\v2.46\pic\sources\c99\common\sprcdiv.c"
  7012 ;; Parameters:    Size  Location     Type
  7013 ;;  a               4   14[BANK0 ] unsigned int 
  7014 ;;  b               4   18[BANK0 ] unsigned int 
  7015 ;; Auto vars:     Size  Location     Type
  7016 ;;  grs             4   34[BANK0 ] unsigned long 
  7017 ;;  rem             4   27[BANK0 ] unsigned long 
  7018 ;;  new_exp         2   32[BANK0 ] short 
  7019 ;;  aexp            1   39[BANK0 ] unsigned char 
  7020 ;;  bexp            1   38[BANK0 ] unsigned char 
  7021 ;;  sign            1   31[BANK0 ] unsigned char 
  7022 ;; Return value:  Size  Location     Type
  7023 ;;                  4   14[BANK0 ] unsigned char 
  7024 ;; Registers used:
  7025 ;;		wreg, status,2, status,0, btemp+1
  7026 ;; Tracked objects:
  7027 ;;		On entry : 0/0
  7028 ;;		On exit  : 0/0
  7029 ;;		Unchanged: 0/0
  7030 ;; Data sizes:     COMMON   BANK0   BANK1   BANK3   BANK2
  7031 ;;      Params:         0       8       0       0       0
  7032 ;;      Locals:         0      13       0       0       0
  7033 ;;      Temps:          0       5       0       0       0
  7034 ;;      Totals:         0      26       0       0       0
  7035 ;;Total ram usage:       26 bytes
  7036 ;; Hardware stack levels used: 1
  7037 ;; Hardware stack levels required when called: 1
  7038 ;; This function calls:
  7039 ;;		Nothing
  7040 ;; This function is called by:
  7041 ;;		_main
  7042 ;;		_efgtoa
  7043 ;; This function uses a non-reentrant model
  7044 ;;
  7045                           
  7046     05ED                     ___fldiv:	
  7047                           ;psect for function ___fldiv
  7048                           
  7049     05ED                     l2591:	
  7050                           ;incstack = 0
  7051                           ; Regs used in ___fldiv: [wreg+status,2+status,0+btemp+1]
  7052                           
  7053     05ED  1283               	bcf	3,5	;RP0=0, select bank0
  7054     05EE  1303               	bcf	3,6	;RP1=0, select bank0
  7055     05EF  0835               	movf	___fldiv@b+3,w
  7056     05F0  3980               	andlw	128
  7057     05F1  00BF               	movwf	___fldiv@sign
  7058     05F2                     l2593:
  7059     05F2  0835               	movf	___fldiv@b+3,w
  7060     05F3  00B6               	movwf	??___fldiv
  7061     05F4  0736               	addwf	??___fldiv,w
  7062     05F5  00C6               	movwf	___fldiv@bexp
  7063     05F6                     l2595:
  7064     05F6  1FB4               	btfss	___fldiv@b+2,7
  7065     05F7  2DF9               	goto	u3531
  7066     05F8  2DFA               	goto	u3530
  7067     05F9                     u3531:
  7068     05F9  2DFB               	goto	l2599
  7069     05FA                     u3530:
  7070     05FA                     l2597:
  7071     05FA  1446               	bsf	___fldiv@bexp,0
  7072     05FB                     l2599:
  7073     05FB  0846               	movf	___fldiv@bexp,w
  7074     05FC  1903               	btfsc	3,2
  7075     05FD  2DFF               	goto	u3541
  7076     05FE  2E00               	goto	u3540
  7077     05FF                     u3541:
  7078     05FF  2E10               	goto	l2609
  7079     0600                     u3540:
  7080     0600                     l2601:
  7081     0600  0A46               	incf	___fldiv@bexp,w
  7082     0601  1D03               	btfss	3,2
  7083     0602  2E04               	goto	u3551
  7084     0603  2E05               	goto	u3550
  7085     0604                     u3551:
  7086     0604  2E0D               	goto	l2605
  7087     0605                     u3550:
  7088     0605                     l2603:
  7089     0605  3000               	movlw	0
  7090     0606  00B5               	movwf	___fldiv@b+3
  7091     0607  3000               	movlw	0
  7092     0608  00B4               	movwf	___fldiv@b+2
  7093     0609  3000               	movlw	0
  7094     060A  00B3               	movwf	___fldiv@b+1
  7095     060B  3000               	movlw	0
  7096     060C  00B2               	movwf	___fldiv@b
  7097     060D                     l2605:
  7098     060D  17B4               	bsf	___fldiv@b+2,7
  7099     060E                     l2607:
  7100     060E  01B5               	clrf	___fldiv@b+3
  7101     060F  2E18               	goto	l2611
  7102     0610                     l2609:
  7103     0610  3000               	movlw	0
  7104     0611  00B5               	movwf	___fldiv@b+3
  7105     0612  3000               	movlw	0
  7106     0613  00B4               	movwf	___fldiv@b+2
  7107     0614  3000               	movlw	0
  7108     0615  00B3               	movwf	___fldiv@b+1
  7109     0616  3000               	movlw	0
  7110     0617  00B2               	movwf	___fldiv@b
  7111     0618                     l2611:
  7112     0618  0831               	movf	___fldiv@a+3,w
  7113     0619  3980               	andlw	128
  7114     061A  00FF               	movwf	btemp+1
  7115     061B  087F               	movf	btemp+1,w
  7116     061C  06BF               	xorwf	___fldiv@sign,f
  7117     061D                     l2613:
  7118     061D  0831               	movf	___fldiv@a+3,w
  7119     061E  00B6               	movwf	??___fldiv
  7120     061F  0736               	addwf	??___fldiv,w
  7121     0620  00C7               	movwf	___fldiv@aexp
  7122     0621                     l2615:
  7123     0621  1FB0               	btfss	___fldiv@a+2,7
  7124     0622  2E24               	goto	u3561
  7125     0623  2E25               	goto	u3560
  7126     0624                     u3561:
  7127     0624  2E26               	goto	l2619
  7128     0625                     u3560:
  7129     0625                     l2617:
  7130     0625  1447               	bsf	___fldiv@aexp,0
  7131     0626                     l2619:
  7132     0626  0847               	movf	___fldiv@aexp,w
  7133     0627  1903               	btfsc	3,2
  7134     0628  2E2A               	goto	u3571
  7135     0629  2E2B               	goto	u3570
  7136     062A                     u3571:
  7137     062A  2E3B               	goto	l2629
  7138     062B                     u3570:
  7139     062B                     l2621:
  7140     062B  0A47               	incf	___fldiv@aexp,w
  7141     062C  1D03               	btfss	3,2
  7142     062D  2E2F               	goto	u3581
  7143     062E  2E30               	goto	u3580
  7144     062F                     u3581:
  7145     062F  2E38               	goto	l2625
  7146     0630                     u3580:
  7147     0630                     l2623:
  7148     0630  3000               	movlw	0
  7149     0631  00B1               	movwf	___fldiv@a+3
  7150     0632  3000               	movlw	0
  7151     0633  00B0               	movwf	___fldiv@a+2
  7152     0634  3000               	movlw	0
  7153     0635  00AF               	movwf	___fldiv@a+1
  7154     0636  3000               	movlw	0
  7155     0637  00AE               	movwf	___fldiv@a
  7156     0638                     l2625:
  7157     0638  17B0               	bsf	___fldiv@a+2,7
  7158     0639                     l2627:
  7159     0639  01B1               	clrf	___fldiv@a+3
  7160     063A  2E43               	goto	l654
  7161     063B                     l2629:
  7162     063B  3000               	movlw	0
  7163     063C  00B1               	movwf	___fldiv@a+3
  7164     063D  3000               	movlw	0
  7165     063E  00B0               	movwf	___fldiv@a+2
  7166     063F  3000               	movlw	0
  7167     0640  00AF               	movwf	___fldiv@a+1
  7168     0641  3000               	movlw	0
  7169     0642  00AE               	movwf	___fldiv@a
  7170     0643                     l654:
  7171     0643  0831               	movf	___fldiv@a+3,w
  7172     0644  0430               	iorwf	___fldiv@a+2,w
  7173     0645  042F               	iorwf	___fldiv@a+1,w
  7174     0646  042E               	iorwf	___fldiv@a,w
  7175     0647  1D03               	skipz
  7176     0648  2E4A               	goto	u3591
  7177     0649  2E4B               	goto	u3590
  7178     064A                     u3591:
  7179     064A  2E64               	goto	l2639
  7180     064B                     u3590:
  7181     064B                     l2631:
  7182     064B  3000               	movlw	0
  7183     064C  00B5               	movwf	___fldiv@b+3
  7184     064D  3000               	movlw	0
  7185     064E  00B4               	movwf	___fldiv@b+2
  7186     064F  3000               	movlw	0
  7187     0650  00B3               	movwf	___fldiv@b+1
  7188     0651  3000               	movlw	0
  7189     0652  00B2               	movwf	___fldiv@b
  7190     0653  3080               	movlw	128
  7191     0654  04B4               	iorwf	___fldiv@b+2,f
  7192     0655  307F               	movlw	127
  7193     0656  04B5               	iorwf	___fldiv@b+3,f
  7194     0657                     l2633:
  7195     0657  083F               	movf	___fldiv@sign,w
  7196     0658  00FF               	movwf	btemp+1
  7197     0659  087F               	movf	btemp+1,w
  7198     065A  04B5               	iorwf	___fldiv@b+3,f
  7199     065B                     l2635:
  7200     065B  0835               	movf	___fldiv@b+3,w
  7201     065C  00B1               	movwf	?___fldiv+3
  7202     065D  0834               	movf	___fldiv@b+2,w
  7203     065E  00B0               	movwf	?___fldiv+2
  7204     065F  0833               	movf	___fldiv@b+1,w
  7205     0660  00AF               	movwf	?___fldiv+1
  7206     0661  0832               	movf	___fldiv@b,w
  7207     0662  00AE               	movwf	?___fldiv
  7208     0663  2FBB               	goto	l656
  7209     0664                     l2639:
  7210     0664  0846               	movf	___fldiv@bexp,w
  7211     0665  1D03               	btfss	3,2
  7212     0666  2E68               	goto	u3601
  7213     0667  2E69               	goto	u3600
  7214     0668                     u3601:
  7215     0668  2E72               	goto	l2645
  7216     0669                     u3600:
  7217     0669                     l2641:
  7218     0669  3000               	movlw	0
  7219     066A  00B1               	movwf	?___fldiv+3
  7220     066B  3000               	movlw	0
  7221     066C  00B0               	movwf	?___fldiv+2
  7222     066D  3000               	movlw	0
  7223     066E  00AF               	movwf	?___fldiv+1
  7224     066F  3000               	movlw	0
  7225     0670  00AE               	movwf	?___fldiv
  7226     0671  2FBB               	goto	l656
  7227     0672                     l2645:
  7228     0672  0846               	movf	___fldiv@bexp,w
  7229     0673  00B6               	movwf	??___fldiv
  7230     0674  01B7               	clrf	??___fldiv+1
  7231     0675  0837               	movf	??___fldiv+1,w
  7232     0676  00B9               	movwf	??___fldiv+3
  7233     0677  0847               	movf	___fldiv@aexp,w
  7234     0678  0236               	subwf	??___fldiv,w
  7235     0679  00B8               	movwf	??___fldiv+2
  7236     067A  1C03               	skipc
  7237     067B  03B9               	decf	??___fldiv+3,f
  7238     067C  0838               	movf	??___fldiv+2,w
  7239     067D  3E7F               	addlw	127
  7240     067E  00C0               	movwf	___fldiv@new_exp
  7241     067F  0839               	movf	??___fldiv+3,w
  7242     0680  1803               	skipnc
  7243     0681  3E01               	addlw	1
  7244     0682  3E00               	addlw	0
  7245     0683  00C1               	movwf	___fldiv@new_exp+1
  7246     0684                     l2647:
  7247     0684  0835               	movf	___fldiv@b+3,w
  7248     0685  00BE               	movwf	___fldiv@rem+3
  7249     0686  0834               	movf	___fldiv@b+2,w
  7250     0687  00BD               	movwf	___fldiv@rem+2
  7251     0688  0833               	movf	___fldiv@b+1,w
  7252     0689  00BC               	movwf	___fldiv@rem+1
  7253     068A  0832               	movf	___fldiv@b,w
  7254     068B  00BB               	movwf	___fldiv@rem
  7255     068C                     l2649:
  7256     068C  3000               	movlw	0
  7257     068D  00B5               	movwf	___fldiv@b+3
  7258     068E  3000               	movlw	0
  7259     068F  00B4               	movwf	___fldiv@b+2
  7260     0690  3000               	movlw	0
  7261     0691  00B3               	movwf	___fldiv@b+1
  7262     0692  3000               	movlw	0
  7263     0693  00B2               	movwf	___fldiv@b
  7264     0694                     l2651:
  7265     0694  3000               	movlw	0
  7266     0695  00C5               	movwf	___fldiv@grs+3
  7267     0696  3000               	movlw	0
  7268     0697  00C4               	movwf	___fldiv@grs+2
  7269     0698  3000               	movlw	0
  7270     0699  00C3               	movwf	___fldiv@grs+1
  7271     069A  3000               	movlw	0
  7272     069B  00C2               	movwf	___fldiv@grs
  7273     069C                     l2653:
  7274     069C  01C7               	clrf	___fldiv@aexp
  7275     069D  2EE8               	goto	l2673
  7276     069E                     l2655:
  7277     069E  0847               	movf	___fldiv@aexp,w
  7278     069F  1903               	btfsc	3,2
  7279     06A0  2EA2               	goto	u3611
  7280     06A1  2EA3               	goto	u3610
  7281     06A2                     u3611:
  7282     06A2  2EC3               	goto	l2665
  7283     06A3                     u3610:
  7284     06A3                     l2657:
  7285     06A3  3001               	movlw	1
  7286     06A4  00B6               	movwf	??___fldiv
  7287     06A5                     u3625:
  7288     06A5  1003               	clrc
  7289     06A6  0DBB               	rlf	___fldiv@rem,f
  7290     06A7  0DBC               	rlf	___fldiv@rem+1,f
  7291     06A8  0DBD               	rlf	___fldiv@rem+2,f
  7292     06A9  0DBE               	rlf	___fldiv@rem+3,f
  7293     06AA  0BB6               	decfsz	??___fldiv,f
  7294     06AB  2EA5               	goto	u3625
  7295     06AC  3001               	movlw	1
  7296     06AD  00B6               	movwf	??___fldiv
  7297     06AE                     u3635:
  7298     06AE  1003               	clrc
  7299     06AF  0DB2               	rlf	___fldiv@b,f
  7300     06B0  0DB3               	rlf	___fldiv@b+1,f
  7301     06B1  0DB4               	rlf	___fldiv@b+2,f
  7302     06B2  0DB5               	rlf	___fldiv@b+3,f
  7303     06B3  0BB6               	decfsz	??___fldiv,f
  7304     06B4  2EAE               	goto	u3635
  7305     06B5                     l2659:
  7306     06B5  1FC5               	btfss	___fldiv@grs+3,7
  7307     06B6  2EB8               	goto	u3641
  7308     06B7  2EB9               	goto	u3640
  7309     06B8                     u3641:
  7310     06B8  2EBA               	goto	l2663
  7311     06B9                     u3640:
  7312     06B9                     l2661:
  7313     06B9  1432               	bsf	___fldiv@b,0
  7314     06BA                     l2663:
  7315     06BA  3001               	movlw	1
  7316     06BB  00B6               	movwf	??___fldiv
  7317     06BC                     u3655:
  7318     06BC  1003               	clrc
  7319     06BD  0DC2               	rlf	___fldiv@grs,f
  7320     06BE  0DC3               	rlf	___fldiv@grs+1,f
  7321     06BF  0DC4               	rlf	___fldiv@grs+2,f
  7322     06C0  0DC5               	rlf	___fldiv@grs+3,f
  7323     06C1  0BB6               	decfsz	??___fldiv,f
  7324     06C2  2EBC               	goto	u3655
  7325     06C3                     l2665:
  7326     06C3  0831               	movf	___fldiv@a+3,w
  7327     06C4  023E               	subwf	___fldiv@rem+3,w
  7328     06C5  1D03               	skipz
  7329     06C6  2ED1               	goto	u3665
  7330     06C7  0830               	movf	___fldiv@a+2,w
  7331     06C8  023D               	subwf	___fldiv@rem+2,w
  7332     06C9  1D03               	skipz
  7333     06CA  2ED1               	goto	u3665
  7334     06CB  082F               	movf	___fldiv@a+1,w
  7335     06CC  023C               	subwf	___fldiv@rem+1,w
  7336     06CD  1D03               	skipz
  7337     06CE  2ED1               	goto	u3665
  7338     06CF  082E               	movf	___fldiv@a,w
  7339     06D0  023B               	subwf	___fldiv@rem,w
  7340     06D1                     u3665:
  7341     06D1  1C03               	skipc
  7342     06D2  2ED4               	goto	u3661
  7343     06D3  2ED5               	goto	u3660
  7344     06D4                     u3661:
  7345     06D4  2EE4               	goto	l2671
  7346     06D5                     u3660:
  7347     06D5                     l2667:
  7348     06D5  1745               	bsf	___fldiv@grs+3,6
  7349     06D6                     l2669:
  7350     06D6  082E               	movf	___fldiv@a,w
  7351     06D7  02BB               	subwf	___fldiv@rem,f
  7352     06D8  082F               	movf	___fldiv@a+1,w
  7353     06D9  1C03               	skipc
  7354     06DA  0F2F               	incfsz	___fldiv@a+1,w
  7355     06DB  02BC               	subwf	___fldiv@rem+1,f
  7356     06DC  0830               	movf	___fldiv@a+2,w
  7357     06DD  1C03               	skipc
  7358     06DE  0F30               	incfsz	___fldiv@a+2,w
  7359     06DF  02BD               	subwf	___fldiv@rem+2,f
  7360     06E0  0831               	movf	___fldiv@a+3,w
  7361     06E1  1C03               	skipc
  7362     06E2  0F31               	incfsz	___fldiv@a+3,w
  7363     06E3  02BE               	subwf	___fldiv@rem+3,f
  7364     06E4                     l2671:
  7365     06E4  3001               	movlw	1
  7366     06E5  00FF               	movwf	btemp+1
  7367     06E6  087F               	movf	btemp+1,w
  7368     06E7  07C7               	addwf	___fldiv@aexp,f
  7369     06E8                     l2673:
  7370     06E8  301A               	movlw	26
  7371     06E9  0247               	subwf	___fldiv@aexp,w
  7372     06EA  1C03               	skipc
  7373     06EB  2EED               	goto	u3671
  7374     06EC  2EEE               	goto	u3670
  7375     06ED                     u3671:
  7376     06ED  2E9E               	goto	l2655
  7377     06EE                     u3670:
  7378     06EE                     l2675:
  7379     06EE  083E               	movf	___fldiv@rem+3,w
  7380     06EF  043D               	iorwf	___fldiv@rem+2,w
  7381     06F0  043C               	iorwf	___fldiv@rem+1,w
  7382     06F1  043B               	iorwf	___fldiv@rem,w
  7383     06F2  1903               	skipnz
  7384     06F3  2EF5               	goto	u3681
  7385     06F4  2EF6               	goto	u3680
  7386     06F5                     u3681:
  7387     06F5  2F15               	goto	l2689
  7388     06F6                     u3680:
  7389     06F6                     l2677:
  7390     06F6  1442               	bsf	___fldiv@grs,0
  7391     06F7  2F15               	goto	l2689
  7392     06F8                     l2679:
  7393     06F8  3001               	movlw	1
  7394     06F9  00B6               	movwf	??___fldiv
  7395     06FA                     u3695:
  7396     06FA  1003               	clrc
  7397     06FB  0DB2               	rlf	___fldiv@b,f
  7398     06FC  0DB3               	rlf	___fldiv@b+1,f
  7399     06FD  0DB4               	rlf	___fldiv@b+2,f
  7400     06FE  0DB5               	rlf	___fldiv@b+3,f
  7401     06FF  0BB6               	decfsz	??___fldiv,f
  7402     0700  2EFA               	goto	u3695
  7403     0701                     l2681:
  7404     0701  1FC5               	btfss	___fldiv@grs+3,7
  7405     0702  2F04               	goto	u3701
  7406     0703  2F05               	goto	u3700
  7407     0704                     u3701:
  7408     0704  2F06               	goto	l2685
  7409     0705                     u3700:
  7410     0705                     l2683:
  7411     0705  1432               	bsf	___fldiv@b,0
  7412     0706                     l2685:
  7413     0706  3001               	movlw	1
  7414     0707  00B6               	movwf	??___fldiv
  7415     0708                     u3715:
  7416     0708  1003               	clrc
  7417     0709  0DC2               	rlf	___fldiv@grs,f
  7418     070A  0DC3               	rlf	___fldiv@grs+1,f
  7419     070B  0DC4               	rlf	___fldiv@grs+2,f
  7420     070C  0DC5               	rlf	___fldiv@grs+3,f
  7421     070D  0BB6               	decfsz	??___fldiv,f
  7422     070E  2F08               	goto	u3715
  7423     070F                     l2687:
  7424     070F  30FF               	movlw	255
  7425     0710  07C0               	addwf	___fldiv@new_exp,f
  7426     0711  1803               	skipnc
  7427     0712  0AC1               	incf	___fldiv@new_exp+1,f
  7428     0713  30FF               	movlw	255
  7429     0714  07C1               	addwf	___fldiv@new_exp+1,f
  7430     0715                     l2689:
  7431     0715  1FB4               	btfss	___fldiv@b+2,7
  7432     0716  2F18               	goto	u3721
  7433     0717  2F19               	goto	u3720
  7434     0718                     u3721:
  7435     0718  2EF8               	goto	l2679
  7436     0719                     u3720:
  7437     0719                     l2691:
  7438     0719  01C7               	clrf	___fldiv@aexp
  7439     071A                     l2693:
  7440     071A  1FC5               	btfss	___fldiv@grs+3,7
  7441     071B  2F1D               	goto	u3731
  7442     071C  2F1E               	goto	u3730
  7443     071D                     u3731:
  7444     071D  2F3A               	goto	l2701
  7445     071E                     u3730:
  7446     071E                     l2695:
  7447     071E  30FF               	movlw	255
  7448     071F  0542               	andwf	___fldiv@grs,w
  7449     0720  00B6               	movwf	??___fldiv
  7450     0721  30FF               	movlw	255
  7451     0722  0543               	andwf	___fldiv@grs+1,w
  7452     0723  00B7               	movwf	??___fldiv+1
  7453     0724  30FF               	movlw	255
  7454     0725  0544               	andwf	___fldiv@grs+2,w
  7455     0726  00B8               	movwf	??___fldiv+2
  7456     0727  307F               	movlw	127
  7457     0728  0545               	andwf	___fldiv@grs+3,w
  7458     0729  00B9               	movwf	??___fldiv+3
  7459     072A  0839               	movf	??___fldiv+3,w
  7460     072B  0438               	iorwf	??___fldiv+2,w
  7461     072C  0437               	iorwf	??___fldiv+1,w
  7462     072D  0436               	iorwf	??___fldiv,w
  7463     072E  1903               	skipnz
  7464     072F  2F31               	goto	u3741
  7465     0730  2F32               	goto	u3740
  7466     0731                     u3741:
  7467     0731  2F35               	goto	l670
  7468     0732                     u3740:
  7469     0732                     l2697:
  7470     0732  01C7               	clrf	___fldiv@aexp
  7471     0733  0AC7               	incf	___fldiv@aexp,f
  7472     0734  2F3A               	goto	l2701
  7473     0735                     l670:
  7474     0735  1C32               	btfss	___fldiv@b,0
  7475     0736  2F38               	goto	u3751
  7476     0737  2F39               	goto	u3750
  7477     0738                     u3751:
  7478     0738  2F3A               	goto	l2701
  7479     0739                     u3750:
  7480     0739  2F32               	goto	l2697
  7481     073A                     l2701:
  7482     073A  0847               	movf	___fldiv@aexp,w
  7483     073B  1903               	btfsc	3,2
  7484     073C  2F3E               	goto	u3761
  7485     073D  2F3F               	goto	u3760
  7486     073E                     u3761:
  7487     073E  2F70               	goto	l2711
  7488     073F                     u3760:
  7489     073F                     l2703:
  7490     073F  3001               	movlw	1
  7491     0740  07B2               	addwf	___fldiv@b,f
  7492     0741  3000               	movlw	0
  7493     0742  1803               	skipnc
  7494     0743  3001               	movlw	1
  7495     0744  07B3               	addwf	___fldiv@b+1,f
  7496     0745  3000               	movlw	0
  7497     0746  1803               	skipnc
  7498     0747  3001               	movlw	1
  7499     0748  07B4               	addwf	___fldiv@b+2,f
  7500     0749  3000               	movlw	0
  7501     074A  1803               	skipnc
  7502     074B  3001               	movlw	1
  7503     074C  07B5               	addwf	___fldiv@b+3,f
  7504     074D                     l2705:
  7505     074D  1C35               	btfss	___fldiv@b+3,0
  7506     074E  2F50               	goto	u3771
  7507     074F  2F51               	goto	u3770
  7508     0750                     u3771:
  7509     0750  2F70               	goto	l2711
  7510     0751                     u3770:
  7511     0751                     l2707:
  7512     0751  0832               	movf	___fldiv@b,w
  7513     0752  00B6               	movwf	??___fldiv
  7514     0753  0833               	movf	___fldiv@b+1,w
  7515     0754  00B7               	movwf	??___fldiv+1
  7516     0755  0834               	movf	___fldiv@b+2,w
  7517     0756  00B8               	movwf	??___fldiv+2
  7518     0757  0835               	movf	___fldiv@b+3,w
  7519     0758  00B9               	movwf	??___fldiv+3
  7520     0759  3001               	movlw	1
  7521     075A  00BA               	movwf	??___fldiv+4
  7522     075B                     u3785:
  7523     075B  0D39               	rlf	??___fldiv+3,w
  7524     075C  0CB9               	rrf	??___fldiv+3,f
  7525     075D  0CB8               	rrf	??___fldiv+2,f
  7526     075E  0CB7               	rrf	??___fldiv+1,f
  7527     075F  0CB6               	rrf	??___fldiv,f
  7528     0760                     u3780:
  7529     0760  0BBA               	decfsz	??___fldiv+4,f
  7530     0761  2F5B               	goto	u3785
  7531     0762  0839               	movf	??___fldiv+3,w
  7532     0763  00B5               	movwf	___fldiv@b+3
  7533     0764  0838               	movf	??___fldiv+2,w
  7534     0765  00B4               	movwf	___fldiv@b+2
  7535     0766  0837               	movf	??___fldiv+1,w
  7536     0767  00B3               	movwf	___fldiv@b+1
  7537     0768  0836               	movf	??___fldiv,w
  7538     0769  00B2               	movwf	___fldiv@b
  7539     076A                     l2709:
  7540     076A  3001               	movlw	1
  7541     076B  07C0               	addwf	___fldiv@new_exp,f
  7542     076C  1803               	skipnc
  7543     076D  0AC1               	incf	___fldiv@new_exp+1,f
  7544     076E  3000               	movlw	0
  7545     076F  07C1               	addwf	___fldiv@new_exp+1,f
  7546     0770                     l2711:
  7547     0770  0841               	movf	___fldiv@new_exp+1,w
  7548     0771  3A80               	xorlw	128
  7549     0772  00FF               	movwf	btemp+1
  7550     0773  3080               	movlw	128
  7551     0774  027F               	subwf	btemp+1,w
  7552     0775  1D03               	skipz
  7553     0776  2F79               	goto	u3795
  7554     0777  30FF               	movlw	255
  7555     0778  0240               	subwf	___fldiv@new_exp,w
  7556     0779                     u3795:
  7557     0779  1C03               	skipc
  7558     077A  2F7C               	goto	u3791
  7559     077B  2F7D               	goto	u3790
  7560     077C                     u3791:
  7561     077C  2F8B               	goto	l2715
  7562     077D                     u3790:
  7563     077D                     l2713:
  7564     077D  30FF               	movlw	255
  7565     077E  1283               	bcf	3,5	;RP0=0, select bank0
  7566     077F  1303               	bcf	3,6	;RP1=0, select bank0
  7567     0780  00C0               	movwf	___fldiv@new_exp
  7568     0781  3000               	movlw	0
  7569     0782  00C1               	movwf	___fldiv@new_exp+1
  7570     0783  3000               	movlw	0
  7571     0784  00B5               	movwf	___fldiv@b+3
  7572     0785  3000               	movlw	0
  7573     0786  00B4               	movwf	___fldiv@b+2
  7574     0787  3000               	movlw	0
  7575     0788  00B3               	movwf	___fldiv@b+1
  7576     0789  3000               	movlw	0
  7577     078A  00B2               	movwf	___fldiv@b
  7578     078B                     l2715:
  7579     078B  1283               	bcf	3,5	;RP0=0, select bank0
  7580     078C  1303               	bcf	3,6	;RP1=0, select bank0
  7581     078D  0841               	movf	___fldiv@new_exp+1,w
  7582     078E  3A80               	xorlw	128
  7583     078F  00FF               	movwf	btemp+1
  7584     0790  3080               	movlw	128
  7585     0791  027F               	subwf	btemp+1,w
  7586     0792  1D03               	skipz
  7587     0793  2F96               	goto	u3805
  7588     0794  3001               	movlw	1
  7589     0795  0240               	subwf	___fldiv@new_exp,w
  7590     0796                     u3805:
  7591     0796  1803               	skipnc
  7592     0797  2F99               	goto	u3801
  7593     0798  2F9A               	goto	u3800
  7594     0799                     u3801:
  7595     0799  2FA7               	goto	l676
  7596     079A                     u3800:
  7597     079A                     l2717:
  7598     079A  1283               	bcf	3,5	;RP0=0, select bank0
  7599     079B  1303               	bcf	3,6	;RP1=0, select bank0
  7600     079C  01C0               	clrf	___fldiv@new_exp
  7601     079D  01C1               	clrf	___fldiv@new_exp+1
  7602     079E                     l2719:
  7603     079E  3000               	movlw	0
  7604     079F  00B5               	movwf	___fldiv@b+3
  7605     07A0  3000               	movlw	0
  7606     07A1  00B4               	movwf	___fldiv@b+2
  7607     07A2  3000               	movlw	0
  7608     07A3  00B3               	movwf	___fldiv@b+1
  7609     07A4  3000               	movlw	0
  7610     07A5  00B2               	movwf	___fldiv@b
  7611     07A6                     l2721:
  7612     07A6  01BF               	clrf	___fldiv@sign
  7613     07A7                     l676:
  7614     07A7  1283               	bcf	3,5	;RP0=0, select bank0
  7615     07A8  1303               	bcf	3,6	;RP1=0, select bank0
  7616     07A9  0840               	movf	___fldiv@new_exp,w
  7617     07AA  00C6               	movwf	___fldiv@bexp
  7618     07AB                     l2723:
  7619     07AB  1C46               	btfss	___fldiv@bexp,0
  7620     07AC  2FAE               	goto	u3811
  7621     07AD  2FAF               	goto	u3810
  7622     07AE                     u3811:
  7623     07AE  2FB1               	goto	l2727
  7624     07AF                     u3810:
  7625     07AF                     l2725:
  7626     07AF  17B4               	bsf	___fldiv@b+2,7
  7627     07B0  2FB5               	goto	l2729
  7628     07B1                     l2727:
  7629     07B1  307F               	movlw	127
  7630     07B2  00FF               	movwf	btemp+1
  7631     07B3  087F               	movf	btemp+1,w
  7632     07B4  05B4               	andwf	___fldiv@b+2,f
  7633     07B5                     l2729:
  7634     07B5  0846               	movf	___fldiv@bexp,w
  7635     07B6  00B6               	movwf	??___fldiv
  7636     07B7  1003               	clrc
  7637     07B8  0C36               	rrf	??___fldiv,w
  7638     07B9  00B5               	movwf	___fldiv@b+3
  7639     07BA  2E57               	goto	l2633
  7640     07BB                     l656:
  7641     07BB  0008               	return
  7642     07BC                     __end_of___fldiv:
  7643                           
  7644                           	psect	text25
  7645     19F8                     __ptext25:	
  7646 ;; *************** function _read_ADC *****************
  7647 ;; Defined at:
  7648 ;;		line 46 in file "ECU.c"
  7649 ;; Parameters:    Size  Location     Type
  7650 ;;		None
  7651 ;; Auto vars:     Size  Location     Type
  7652 ;;		None
  7653 ;; Return value:  Size  Location     Type
  7654 ;;                  2    0[BANK0 ] unsigned int 
  7655 ;; Registers used:
  7656 ;;		wreg
  7657 ;; Tracked objects:
  7658 ;;		On entry : 0/0
  7659 ;;		On exit  : 0/0
  7660 ;;		Unchanged: 0/0
  7661 ;; Data sizes:     COMMON   BANK0   BANK1   BANK3   BANK2
  7662 ;;      Params:         0       2       0       0       0
  7663 ;;      Locals:         0       0       0       0       0
  7664 ;;      Temps:          0       0       0       0       0
  7665 ;;      Totals:         0       2       0       0       0
  7666 ;;Total ram usage:        2 bytes
  7667 ;; Hardware stack levels used: 1
  7668 ;; Hardware stack levels required when called: 1
  7669 ;; This function calls:
  7670 ;;		Nothing
  7671 ;; This function is called by:
  7672 ;;		_main
  7673 ;; This function uses a non-reentrant model
  7674 ;;
  7675                           
  7676     19F8                     _read_ADC:	
  7677                           ;psect for function _read_ADC
  7678                           
  7679     19F8                     l4495:	
  7680                           ;incstack = 0
  7681                           ; Regs used in _read_ADC: [wreg]
  7682                           
  7683                           
  7684                           ;ECU.c: 47:     ADCON0bits.GO_DONE = 1;
  7685     19F8  1283               	bcf	3,5	;RP0=0, select bank0
  7686     19F9  1303               	bcf	3,6	;RP1=0, select bank0
  7687     19FA  151F               	bsf	31,2	;volatile
  7688     19FB                     l137:	
  7689                           ;ECU.c: 48:     while (ADCON0bits.GO_DONE);
  7690                           
  7691     19FB  191F               	btfsc	31,2	;volatile
  7692     19FC  29FE               	goto	u7411
  7693     19FD  29FF               	goto	u7410
  7694     19FE                     u7411:
  7695     19FE  29FB               	goto	l137
  7696     19FF                     u7410:
  7697     19FF                     l4497:
  7698                           
  7699                           ;ECU.c: 49:     return ((unsigned int)(ADRESH << 8) + ADRESL);
  7700     19FF  081E               	movf	30,w	;volatile
  7701     1A00  00A1               	movwf	?_read_ADC+1
  7702     1A01  1683               	bsf	3,5	;RP0=1, select bank1
  7703     1A02  1303               	bcf	3,6	;RP1=0, select bank1
  7704     1A03  081E               	movf	30,w	;volatile
  7705     1A04  1283               	bcf	3,5	;RP0=0, select bank0
  7706     1A05  1303               	bcf	3,6	;RP1=0, select bank0
  7707     1A06  00A0               	movwf	?_read_ADC
  7708     1A07                     l140:
  7709     1A07  0008               	return
  7710     1A08                     __end_of_read_ADC:
  7711                           
  7712                           	psect	text26
  7713     19E0                     __ptext26:	
  7714 ;; *************** function _init_timer *****************
  7715 ;; Defined at:
  7716 ;;		line 62 in file "ECU.c"
  7717 ;; Parameters:    Size  Location     Type
  7718 ;;		None
  7719 ;; Auto vars:     Size  Location     Type
  7720 ;;		None
  7721 ;; Return value:  Size  Location     Type
  7722 ;;                  1    wreg      void 
  7723 ;; Registers used:
  7724 ;;		wreg
  7725 ;; Tracked objects:
  7726 ;;		On entry : 0/0
  7727 ;;		On exit  : 0/0
  7728 ;;		Unchanged: 0/0
  7729 ;; Data sizes:     COMMON   BANK0   BANK1   BANK3   BANK2
  7730 ;;      Params:         0       0       0       0       0
  7731 ;;      Locals:         0       0       0       0       0
  7732 ;;      Temps:          0       0       0       0       0
  7733 ;;      Totals:         0       0       0       0       0
  7734 ;;Total ram usage:        0 bytes
  7735 ;; Hardware stack levels used: 1
  7736 ;; Hardware stack levels required when called: 1
  7737 ;; This function calls:
  7738 ;;		Nothing
  7739 ;; This function is called by:
  7740 ;;		_main
  7741 ;; This function uses a non-reentrant model
  7742 ;;
  7743                           
  7744     19E0                     _init_timer:	
  7745                           ;psect for function _init_timer
  7746                           
  7747     19E0                     l4503:	
  7748                           ;incstack = 0
  7749                           ; Regs used in _init_timer: [wreg]
  7750                           
  7751                           
  7752                           ;ECU.c: 63:    T1CONbits.TMR1CS = 0;
  7753     19E0  1283               	bcf	3,5	;RP0=0, select bank0
  7754     19E1  1303               	bcf	3,6	;RP1=0, select bank0
  7755     19E2  1090               	bcf	16,1	;volatile
  7756                           
  7757                           ;ECU.c: 64:    T1CONbits.T1CKPS0 = 1;
  7758     19E3  1610               	bsf	16,4	;volatile
  7759                           
  7760                           ;ECU.c: 65:    T1CONbits.T1CKPS1 = 1;
  7761     19E4  1690               	bsf	16,5	;volatile
  7762     19E5                     l4505:
  7763                           
  7764                           ;ECU.c: 66:    TMR1L = 0xDC;
  7765     19E5  30DC               	movlw	220
  7766     19E6  008E               	movwf	14	;volatile
  7767                           
  7768                           ;ECU.c: 67:    TMR1H = 0x0B;
  7769     19E7  300B               	movlw	11
  7770     19E8  008F               	movwf	15	;volatile
  7771     19E9                     l4507:
  7772                           
  7773                           ;ECU.c: 68:    T1CONbits.TMR1ON = 1;
  7774     19E9  1410               	bsf	16,0	;volatile
  7775     19EA                     l146:
  7776     19EA  0008               	return
  7777     19EB                     __end_of_init_timer:
  7778                           
  7779                           	psect	text27
  7780     19D0                     __ptext27:	
  7781 ;; *************** function _init_interrupt *****************
  7782 ;; Defined at:
  7783 ;;		line 53 in file "ECU.c"
  7784 ;; Parameters:    Size  Location     Type
  7785 ;;		None
  7786 ;; Auto vars:     Size  Location     Type
  7787 ;;		None
  7788 ;; Return value:  Size  Location     Type
  7789 ;;                  1    wreg      void 
  7790 ;; Registers used:
  7791 ;;		None
  7792 ;; Tracked objects:
  7793 ;;		On entry : 0/0
  7794 ;;		On exit  : 0/0
  7795 ;;		Unchanged: 0/0
  7796 ;; Data sizes:     COMMON   BANK0   BANK1   BANK3   BANK2
  7797 ;;      Params:         0       0       0       0       0
  7798 ;;      Locals:         0       0       0       0       0
  7799 ;;      Temps:          0       0       0       0       0
  7800 ;;      Totals:         0       0       0       0       0
  7801 ;;Total ram usage:        0 bytes
  7802 ;; Hardware stack levels used: 1
  7803 ;; Hardware stack levels required when called: 1
  7804 ;; This function calls:
  7805 ;;		Nothing
  7806 ;; This function is called by:
  7807 ;;		_main
  7808 ;; This function uses a non-reentrant model
  7809 ;;
  7810                           
  7811     19D0                     _init_interrupt:	
  7812                           ;psect for function _init_interrupt
  7813                           
  7814     19D0                     l4501:	
  7815                           ;incstack = 0
  7816                           ; Regs used in _init_interrupt: []
  7817                           
  7818                           
  7819                           ;ECU.c: 54:     INTCONbits.GIE = 1;
  7820     19D0  178B               	bsf	11,7	;volatile
  7821                           
  7822                           ;ECU.c: 55:     INTCONbits.PEIE = 1;
  7823     19D1  170B               	bsf	11,6	;volatile
  7824                           
  7825                           ;ECU.c: 56:     INTCONbits.INTE = 1;
  7826     19D2  160B               	bsf	11,4	;volatile
  7827                           
  7828                           ;ECU.c: 57:     OPTION_REGbits.INTEDG = 0;
  7829     19D3  1683               	bsf	3,5	;RP0=1, select bank1
  7830     19D4  1303               	bcf	3,6	;RP1=0, select bank1
  7831     19D5  1301               	bcf	1,6	;volatile
  7832                           
  7833                           ;ECU.c: 58:     PIE1bits.TMR1IE = 1;
  7834     19D6  140C               	bsf	12,0	;volatile
  7835     19D7                     l143:
  7836     19D7  0008               	return
  7837     19D8                     __end_of_init_interrupt:
  7838                           
  7839                           	psect	text28
  7840     1000                     __ptext28:	
  7841 ;; *************** function _init_ADC *****************
  7842 ;; Defined at:
  7843 ;;		line 40 in file "ECU.c"
  7844 ;; Parameters:    Size  Location     Type
  7845 ;;		None
  7846 ;; Auto vars:     Size  Location     Type
  7847 ;;		None
  7848 ;; Return value:  Size  Location     Type
  7849 ;;                  1    wreg      void 
  7850 ;; Registers used:
  7851 ;;		wreg
  7852 ;; Tracked objects:
  7853 ;;		On entry : 0/0
  7854 ;;		On exit  : 0/0
  7855 ;;		Unchanged: 0/0
  7856 ;; Data sizes:     COMMON   BANK0   BANK1   BANK3   BANK2
  7857 ;;      Params:         0       0       0       0       0
  7858 ;;      Locals:         0       0       0       0       0
  7859 ;;      Temps:          0       0       0       0       0
  7860 ;;      Totals:         0       0       0       0       0
  7861 ;;Total ram usage:        0 bytes
  7862 ;; Hardware stack levels used: 1
  7863 ;; Hardware stack levels required when called: 1
  7864 ;; This function calls:
  7865 ;;		Nothing
  7866 ;; This function is called by:
  7867 ;;		_main
  7868 ;; This function uses a non-reentrant model
  7869 ;;
  7870                           
  7871     1000                     _init_ADC:	
  7872                           ;psect for function _init_ADC
  7873                           
  7874     1000                     l4493:	
  7875                           ;incstack = 0
  7876                           ; Regs used in _init_ADC: [wreg]
  7877                           
  7878                           
  7879                           ;ECU.c: 41:     ADCON0 = 0x41;
  7880     1000  3041               	movlw	65
  7881     1001  1283               	bcf	3,5	;RP0=0, select bank0
  7882     1002  1303               	bcf	3,6	;RP1=0, select bank0
  7883     1003  009F               	movwf	31	;volatile
  7884                           
  7885                           ;ECU.c: 42:     ADCON1 = 0x80;
  7886     1004  3080               	movlw	128
  7887     1005  1683               	bsf	3,5	;RP0=1, select bank1
  7888     1006  1303               	bcf	3,6	;RP1=0, select bank1
  7889     1007  009F               	movwf	31	;volatile
  7890     1008                     l134:
  7891     1008  0008               	return
  7892     1009                     __end_of_init_ADC:
  7893                           
  7894                           	psect	text29
  7895     1F46                     __ptext29:	
  7896 ;; *************** function ___xxtofl *****************
  7897 ;; Defined at:
  7898 ;;		line 10 in file "C:\Program Files\Microchip\xc8\v2.46\pic\sources\c99\common\xxtofl.c"
  7899 ;; Parameters:    Size  Location     Type
  7900 ;;  sign            1    wreg     unsigned char 
  7901 ;;  val             4    0[BANK0 ] long 
  7902 ;; Auto vars:     Size  Location     Type
  7903 ;;  sign            1    8[BANK0 ] unsigned char 
  7904 ;;  arg             4   10[BANK0 ] unsigned long 
  7905 ;;  exp             1    9[BANK0 ] unsigned char 
  7906 ;; Return value:  Size  Location     Type
  7907 ;;                  4    0[BANK0 ] unsigned char 
  7908 ;; Registers used:
  7909 ;;		wreg, status,2, status,0, btemp+1
  7910 ;; Tracked objects:
  7911 ;;		On entry : 0/0
  7912 ;;		On exit  : 0/0
  7913 ;;		Unchanged: 0/0
  7914 ;; Data sizes:     COMMON   BANK0   BANK1   BANK3   BANK2
  7915 ;;      Params:         0       4       0       0       0
  7916 ;;      Locals:         0       6       0       0       0
  7917 ;;      Temps:          0       4       0       0       0
  7918 ;;      Totals:         0      14       0       0       0
  7919 ;;Total ram usage:       14 bytes
  7920 ;; Hardware stack levels used: 1
  7921 ;; Hardware stack levels required when called: 1
  7922 ;; This function calls:
  7923 ;;		Nothing
  7924 ;; This function is called by:
  7925 ;;		_main
  7926 ;; This function uses a non-reentrant model
  7927 ;;
  7928                           
  7929     1F46                     ___xxtofl:	
  7930                           ;psect for function ___xxtofl
  7931                           
  7932                           
  7933                           ;incstack = 0
  7934                           ; Regs used in ___xxtofl: [wreg+status,2+status,0+btemp+1]
  7935                           ;___xxtofl@sign stored from wreg
  7936     1F46  1283               	bcf	3,5	;RP0=0, select bank0
  7937     1F47  1303               	bcf	3,6	;RP1=0, select bank0
  7938     1F48  00A8               	movwf	___xxtofl@sign
  7939     1F49                     l4521:
  7940     1F49  0828               	movf	___xxtofl@sign,w
  7941     1F4A  1903               	btfsc	3,2
  7942     1F4B  2F4D               	goto	u7421
  7943     1F4C  2F4E               	goto	u7420
  7944     1F4D                     u7421:
  7945     1F4D  2F62               	goto	l4527
  7946     1F4E                     u7420:
  7947     1F4E                     l4523:
  7948     1F4E  1FA3               	btfss	___xxtofl@val+3,7
  7949     1F4F  2F51               	goto	u7431
  7950     1F50  2F52               	goto	u7430
  7951     1F51                     u7431:
  7952     1F51  2F62               	goto	l4527
  7953     1F52                     u7430:
  7954     1F52                     l4525:
  7955     1F52  0920               	comf	___xxtofl@val,w
  7956     1F53  00AA               	movwf	___xxtofl@arg
  7957     1F54  0921               	comf	___xxtofl@val+1,w
  7958     1F55  00AB               	movwf	___xxtofl@arg+1
  7959     1F56  0922               	comf	___xxtofl@val+2,w
  7960     1F57  00AC               	movwf	___xxtofl@arg+2
  7961     1F58  0923               	comf	___xxtofl@val+3,w
  7962     1F59  00AD               	movwf	___xxtofl@arg+3
  7963     1F5A  0AAA               	incf	___xxtofl@arg,f
  7964     1F5B  1903               	skipnz
  7965     1F5C  0AAB               	incf	___xxtofl@arg+1,f
  7966     1F5D  1903               	skipnz
  7967     1F5E  0AAC               	incf	___xxtofl@arg+2,f
  7968     1F5F  1903               	skipnz
  7969     1F60  0AAD               	incf	___xxtofl@arg+3,f
  7970     1F61  2F6A               	goto	l738
  7971     1F62                     l4527:
  7972     1F62  0823               	movf	___xxtofl@val+3,w
  7973     1F63  00AD               	movwf	___xxtofl@arg+3
  7974     1F64  0822               	movf	___xxtofl@val+2,w
  7975     1F65  00AC               	movwf	___xxtofl@arg+2
  7976     1F66  0821               	movf	___xxtofl@val+1,w
  7977     1F67  00AB               	movwf	___xxtofl@arg+1
  7978     1F68  0820               	movf	___xxtofl@val,w
  7979     1F69  00AA               	movwf	___xxtofl@arg
  7980     1F6A                     l738:
  7981     1F6A  0823               	movf	___xxtofl@val+3,w
  7982     1F6B  0422               	iorwf	___xxtofl@val+2,w
  7983     1F6C  0421               	iorwf	___xxtofl@val+1,w
  7984     1F6D  0420               	iorwf	___xxtofl@val,w
  7985     1F6E  1D03               	skipz
  7986     1F6F  2F71               	goto	u7441
  7987     1F70  2F72               	goto	u7440
  7988     1F71                     u7441:
  7989     1F71  2F7B               	goto	l4533
  7990     1F72                     u7440:
  7991     1F72                     l4529:
  7992     1F72  3000               	movlw	0
  7993     1F73  00A3               	movwf	?___xxtofl+3
  7994     1F74  3000               	movlw	0
  7995     1F75  00A2               	movwf	?___xxtofl+2
  7996     1F76  3000               	movlw	0
  7997     1F77  00A1               	movwf	?___xxtofl+1
  7998     1F78  3000               	movlw	0
  7999     1F79  00A0               	movwf	?___xxtofl
  8000     1F7A  2FFF               	goto	l740
  8001     1F7B                     l4533:
  8002     1F7B  3096               	movlw	150
  8003     1F7C  00A9               	movwf	___xxtofl@exp
  8004     1F7D  2F8B               	goto	l4539
  8005     1F7E                     l4535:
  8006     1F7E  3001               	movlw	1
  8007     1F7F  00FF               	movwf	btemp+1
  8008     1F80  087F               	movf	btemp+1,w
  8009     1F81  07A9               	addwf	___xxtofl@exp,f
  8010     1F82                     l4537:
  8011     1F82  3001               	movlw	1
  8012     1F83                     u7455:
  8013     1F83  1003               	clrc
  8014     1F84  0CAD               	rrf	___xxtofl@arg+3,f
  8015     1F85  0CAC               	rrf	___xxtofl@arg+2,f
  8016     1F86  0CAB               	rrf	___xxtofl@arg+1,f
  8017     1F87  0CAA               	rrf	___xxtofl@arg,f
  8018     1F88  3EFF               	addlw	-1
  8019     1F89  1D03               	skipz
  8020     1F8A  2F83               	goto	u7455
  8021     1F8B                     l4539:
  8022     1F8B  30FE               	movlw	254
  8023     1F8C  052D               	andwf	___xxtofl@arg+3,w
  8024     1F8D  1D03               	btfss	3,2
  8025     1F8E  2F90               	goto	u7461
  8026     1F8F  2F91               	goto	u7460
  8027     1F90                     u7461:
  8028     1F90  2F7E               	goto	l4535
  8029     1F91                     u7460:
  8030     1F91  2FAD               	goto	l4547
  8031     1F92                     l4541:
  8032     1F92  3001               	movlw	1
  8033     1F93  00FF               	movwf	btemp+1
  8034     1F94  087F               	movf	btemp+1,w
  8035     1F95  07A9               	addwf	___xxtofl@exp,f
  8036     1F96                     l4543:
  8037     1F96  3001               	movlw	1
  8038     1F97  07AA               	addwf	___xxtofl@arg,f
  8039     1F98  3000               	movlw	0
  8040     1F99  1803               	skipnc
  8041     1F9A  3001               	movlw	1
  8042     1F9B  07AB               	addwf	___xxtofl@arg+1,f
  8043     1F9C  3000               	movlw	0
  8044     1F9D  1803               	skipnc
  8045     1F9E  3001               	movlw	1
  8046     1F9F  07AC               	addwf	___xxtofl@arg+2,f
  8047     1FA0  3000               	movlw	0
  8048     1FA1  1803               	skipnc
  8049     1FA2  3001               	movlw	1
  8050     1FA3  07AD               	addwf	___xxtofl@arg+3,f
  8051     1FA4                     l4545:
  8052     1FA4  3001               	movlw	1
  8053     1FA5                     u7475:
  8054     1FA5  1003               	clrc
  8055     1FA6  0CAD               	rrf	___xxtofl@arg+3,f
  8056     1FA7  0CAC               	rrf	___xxtofl@arg+2,f
  8057     1FA8  0CAB               	rrf	___xxtofl@arg+1,f
  8058     1FA9  0CAA               	rrf	___xxtofl@arg,f
  8059     1FAA  3EFF               	addlw	-1
  8060     1FAB  1D03               	skipz
  8061     1FAC  2FA5               	goto	u7475
  8062     1FAD                     l4547:
  8063     1FAD  30FF               	movlw	255
  8064     1FAE  052D               	andwf	___xxtofl@arg+3,w
  8065     1FAF  1D03               	btfss	3,2
  8066     1FB0  2FB2               	goto	u7481
  8067     1FB1  2FB3               	goto	u7480
  8068     1FB2                     u7481:
  8069     1FB2  2F92               	goto	l4541
  8070     1FB3                     u7480:
  8071     1FB3  2FBF               	goto	l4551
  8072     1FB4                     l4549:
  8073     1FB4  3001               	movlw	1
  8074     1FB5  02A9               	subwf	___xxtofl@exp,f
  8075     1FB6  3001               	movlw	1
  8076     1FB7  00A4               	movwf	??___xxtofl
  8077     1FB8                     u7495:
  8078     1FB8  1003               	clrc
  8079     1FB9  0DAA               	rlf	___xxtofl@arg,f
  8080     1FBA  0DAB               	rlf	___xxtofl@arg+1,f
  8081     1FBB  0DAC               	rlf	___xxtofl@arg+2,f
  8082     1FBC  0DAD               	rlf	___xxtofl@arg+3,f
  8083     1FBD  0BA4               	decfsz	??___xxtofl,f
  8084     1FBE  2FB8               	goto	u7495
  8085     1FBF                     l4551:
  8086     1FBF  1BAC               	btfsc	___xxtofl@arg+2,7
  8087     1FC0  2FC2               	goto	u7501
  8088     1FC1  2FC3               	goto	u7500
  8089     1FC2                     u7501:
  8090     1FC2  2FC9               	goto	l751
  8091     1FC3                     u7500:
  8092     1FC3                     l4553:
  8093     1FC3  3002               	movlw	2
  8094     1FC4  0229               	subwf	___xxtofl@exp,w
  8095     1FC5  1803               	skipnc
  8096     1FC6  2FC8               	goto	u7511
  8097     1FC7  2FC9               	goto	u7510
  8098     1FC8                     u7511:
  8099     1FC8  2FB4               	goto	l4549
  8100     1FC9                     u7510:
  8101     1FC9                     l751:
  8102     1FC9  1829               	btfsc	___xxtofl@exp,0
  8103     1FCA  2FCC               	goto	u7521
  8104     1FCB  2FCD               	goto	u7520
  8105     1FCC                     u7521:
  8106     1FCC  2FD5               	goto	l752
  8107     1FCD                     u7520:
  8108     1FCD                     l4555:
  8109     1FCD  30FF               	movlw	255
  8110     1FCE  05AA               	andwf	___xxtofl@arg,f
  8111     1FCF  30FF               	movlw	255
  8112     1FD0  05AB               	andwf	___xxtofl@arg+1,f
  8113     1FD1  307F               	movlw	127
  8114     1FD2  05AC               	andwf	___xxtofl@arg+2,f
  8115     1FD3  30FF               	movlw	255
  8116     1FD4  05AD               	andwf	___xxtofl@arg+3,f
  8117     1FD5                     l752:
  8118     1FD5  1003               	clrc
  8119     1FD6  0CA9               	rrf	___xxtofl@exp,f
  8120     1FD7                     l4557:
  8121     1FD7  0829               	movf	___xxtofl@exp,w
  8122     1FD8  00A4               	movwf	??___xxtofl
  8123     1FD9  01A5               	clrf	??___xxtofl+1
  8124     1FDA  01A6               	clrf	??___xxtofl+2
  8125     1FDB  01A7               	clrf	??___xxtofl+3
  8126     1FDC  3018               	movlw	24
  8127     1FDD                     u7535:
  8128     1FDD  1003               	clrc
  8129     1FDE  0DA4               	rlf	??___xxtofl,f
  8130     1FDF  0DA5               	rlf	??___xxtofl+1,f
  8131     1FE0  0DA6               	rlf	??___xxtofl+2,f
  8132     1FE1  0DA7               	rlf	??___xxtofl+3,f
  8133     1FE2                     u7530:
  8134     1FE2  3EFF               	addlw	-1
  8135     1FE3  1D03               	skipz
  8136     1FE4  2FDD               	goto	u7535
  8137     1FE5  0824               	movf	??___xxtofl,w
  8138     1FE6  04AA               	iorwf	___xxtofl@arg,f
  8139     1FE7  0825               	movf	??___xxtofl+1,w
  8140     1FE8  04AB               	iorwf	___xxtofl@arg+1,f
  8141     1FE9  0826               	movf	??___xxtofl+2,w
  8142     1FEA  04AC               	iorwf	___xxtofl@arg+2,f
  8143     1FEB  0827               	movf	??___xxtofl+3,w
  8144     1FEC  04AD               	iorwf	___xxtofl@arg+3,f
  8145     1FED                     l4559:
  8146     1FED  0828               	movf	___xxtofl@sign,w
  8147     1FEE  1903               	btfsc	3,2
  8148     1FEF  2FF1               	goto	u7541
  8149     1FF0  2FF2               	goto	u7540
  8150     1FF1                     u7541:
  8151     1FF1  2FF7               	goto	l4565
  8152     1FF2                     u7540:
  8153     1FF2                     l4561:
  8154     1FF2  1FA3               	btfss	___xxtofl@val+3,7
  8155     1FF3  2FF5               	goto	u7551
  8156     1FF4  2FF6               	goto	u7550
  8157     1FF5                     u7551:
  8158     1FF5  2FF7               	goto	l4565
  8159     1FF6                     u7550:
  8160     1FF6                     l4563:
  8161     1FF6  17AD               	bsf	___xxtofl@arg+3,7
  8162     1FF7                     l4565:
  8163     1FF7  082D               	movf	___xxtofl@arg+3,w
  8164     1FF8  00A3               	movwf	?___xxtofl+3
  8165     1FF9  082C               	movf	___xxtofl@arg+2,w
  8166     1FFA  00A2               	movwf	?___xxtofl+2
  8167     1FFB  082B               	movf	___xxtofl@arg+1,w
  8168     1FFC  00A1               	movwf	?___xxtofl+1
  8169     1FFD  082A               	movf	___xxtofl@arg,w
  8170     1FFE  00A0               	movwf	?___xxtofl
  8171     1FFF                     l740:
  8172     1FFF  0008               	return
  8173     2000                     __end_of___xxtofl:
  8174                           
  8175                           	psect	text30
  8176     1B5D                     __ptext30:	
  8177 ;; *************** function _LCD_putrs *****************
  8178 ;; Defined at:
  8179 ;;		line 145 in file "lcd.c"
  8180 ;; Parameters:    Size  Location     Type
  8181 ;;  a               2    6[BANK0 ] PTR const unsigned char 
  8182 ;;		 -> STR_3(12), STR_2(13), main@buffer(16), 
  8183 ;; Auto vars:     Size  Location     Type
  8184 ;;  i               2   11[BANK0 ] int 
  8185 ;; Return value:  Size  Location     Type
  8186 ;;                  1    wreg      void 
  8187 ;; Registers used:
  8188 ;;		wreg, fsr0l, fsr0h, status,2, status,0, btemp+1, pclath, cstack
  8189 ;; Tracked objects:
  8190 ;;		On entry : 0/0
  8191 ;;		On exit  : 0/0
  8192 ;;		Unchanged: 0/0
  8193 ;; Data sizes:     COMMON   BANK0   BANK1   BANK3   BANK2
  8194 ;;      Params:         0       2       0       0       0
  8195 ;;      Locals:         0       2       0       0       0
  8196 ;;      Temps:          0       3       0       0       0
  8197 ;;      Totals:         0       7       0       0       0
  8198 ;;Total ram usage:        7 bytes
  8199 ;; Hardware stack levels used: 1
  8200 ;; Hardware stack levels required when called: 3
  8201 ;; This function calls:
  8202 ;;		_LCD_putc
  8203 ;; This function is called by:
  8204 ;;		_main
  8205 ;; This function uses a non-reentrant model
  8206 ;;
  8207                           
  8208     1B5D                     _LCD_putrs:	
  8209                           ;psect for function _LCD_putrs
  8210                           
  8211     1B5D                     l4485:	
  8212                           ;incstack = 0
  8213                           ; Regs used in _LCD_putrs: [wreg-fsr0h+status,2+status,0+btemp+1+pclath+cstack]
  8214                           
  8215                           
  8216                           ;lcd.c: 147:     for ( int i = 0; a[i] != '\0'; ++i ) {
  8217     1B5D  1283               	bcf	3,5	;RP0=0, select bank0
  8218     1B5E  1303               	bcf	3,6	;RP1=0, select bank0
  8219     1B5F  01AB               	clrf	LCD_putrs@i
  8220     1B60  01AC               	clrf	LCD_putrs@i+1
  8221     1B61  2B86               	goto	l4491
  8222     1B62                     l4487:
  8223                           
  8224                           ;lcd.c: 148:         LCD_putc(a[i]);
  8225     1B62  082B               	movf	LCD_putrs@i,w
  8226     1B63  0726               	addwf	LCD_putrs@a,w
  8227     1B64  00A9               	movwf	??_LCD_putrs+1
  8228     1B65  0827               	movf	LCD_putrs@a+1,w
  8229     1B66  00A8               	movwf	??_LCD_putrs
  8230     1B67  1803               	skipnc
  8231     1B68  0AA8               	incf	??_LCD_putrs,f
  8232     1B69  1FAB               	btfss	LCD_putrs@i,7
  8233     1B6A  2B6C               	goto	u7380
  8234     1B6B  03A8               	decf	??_LCD_putrs,f
  8235     1B6C                     u7380:
  8236     1B6C  1283               	bcf	3,5	;RP0=0, select bank0
  8237     1B6D  1303               	bcf	3,6	;RP1=0, select bank0
  8238     1B6E  0828               	movf	??_LCD_putrs,w
  8239     1B6F  00AA               	movwf	??_LCD_putrs+2
  8240     1B70  082A               	movf	??_LCD_putrs+2,w
  8241     1B71  00FF               	movwf	btemp+1
  8242     1B72  0829               	movf	??_LCD_putrs+1,w
  8243     1B73  0084               	movwf	4
  8244     1B74  120A  118A  27BC  160A  158A  	fcall	stringtab
  8245     1B79  160A  158A  2600  160A  158A  	fcall	_LCD_putc
  8246     1B7E                     l4489:
  8247                           
  8248                           ;lcd.c: 149:     }
  8249     1B7E  3001               	movlw	1
  8250     1B7F  1283               	bcf	3,5	;RP0=0, select bank0
  8251     1B80  1303               	bcf	3,6	;RP1=0, select bank0
  8252     1B81  07AB               	addwf	LCD_putrs@i,f
  8253     1B82  1803               	skipnc
  8254     1B83  0AAC               	incf	LCD_putrs@i+1,f
  8255     1B84  3000               	movlw	0
  8256     1B85  07AC               	addwf	LCD_putrs@i+1,f
  8257     1B86                     l4491:
  8258     1B86  082B               	movf	LCD_putrs@i,w
  8259     1B87  0726               	addwf	LCD_putrs@a,w
  8260     1B88  00A9               	movwf	??_LCD_putrs+1
  8261     1B89  0827               	movf	LCD_putrs@a+1,w
  8262     1B8A  00A8               	movwf	??_LCD_putrs
  8263     1B8B  1803               	skipnc
  8264     1B8C  0AA8               	incf	??_LCD_putrs,f
  8265     1B8D  1FAB               	btfss	LCD_putrs@i,7
  8266     1B8E  2B90               	goto	u7390
  8267     1B8F  03A8               	decf	??_LCD_putrs,f
  8268     1B90                     u7390:
  8269     1B90  1283               	bcf	3,5	;RP0=0, select bank0
  8270     1B91  1303               	bcf	3,6	;RP1=0, select bank0
  8271     1B92  0828               	movf	??_LCD_putrs,w
  8272     1B93  00AA               	movwf	??_LCD_putrs+2
  8273     1B94  082A               	movf	??_LCD_putrs+2,w
  8274     1B95  00FF               	movwf	btemp+1
  8275     1B96  0829               	movf	??_LCD_putrs+1,w
  8276     1B97  0084               	movwf	4
  8277     1B98  120A  118A  27BC  160A  158A  	fcall	stringtab
  8278     1B9D  3A00               	xorlw	0
  8279     1B9E  1D03               	skipz
  8280     1B9F  2BA1               	goto	u7401
  8281     1BA0  2BA2               	goto	u7400
  8282     1BA1                     u7401:
  8283     1BA1  2B62               	goto	l4487
  8284     1BA2                     u7400:
  8285     1BA2                     l79:
  8286     1BA2  0008               	return
  8287     1BA3                     __end_of_LCD_putrs:
  8288                           
  8289                           	psect	text31
  8290     1E00                     __ptext31:	
  8291 ;; *************** function _LCD_putc *****************
  8292 ;; Defined at:
  8293 ;;		line 120 in file "lcd.c"
  8294 ;; Parameters:    Size  Location     Type
  8295 ;;  c               1    wreg     unsigned char 
  8296 ;; Auto vars:     Size  Location     Type
  8297 ;;  c               1    5[BANK0 ] unsigned char 
  8298 ;; Return value:  Size  Location     Type
  8299 ;;                  1    wreg      void 
  8300 ;; Registers used:
  8301 ;;		wreg, fsr0l, fsr0h, status,2, status,0, btemp+1, pclath, cstack
  8302 ;; Tracked objects:
  8303 ;;		On entry : 0/0
  8304 ;;		On exit  : 0/0
  8305 ;;		Unchanged: 0/0
  8306 ;; Data sizes:     COMMON   BANK0   BANK1   BANK3   BANK2
  8307 ;;      Params:         0       0       0       0       0
  8308 ;;      Locals:         0       1       0       0       0
  8309 ;;      Temps:          0       2       0       0       0
  8310 ;;      Totals:         0       3       0       0       0
  8311 ;;Total ram usage:        3 bytes
  8312 ;; Hardware stack levels used: 1
  8313 ;; Hardware stack levels required when called: 2
  8314 ;; This function calls:
  8315 ;;		_LCD_Out
  8316 ;; This function is called by:
  8317 ;;		_LCD_putrs
  8318 ;;		_LCD_puts
  8319 ;; This function uses a non-reentrant model
  8320 ;;
  8321                           
  8322     1E00                     _LCD_putc:	
  8323                           ;psect for function _LCD_putc
  8324                           
  8325                           
  8326                           ;incstack = 0
  8327                           ; Regs used in _LCD_putc: [wreg-fsr0h+status,2+status,0+btemp+1+pclath+cstack]
  8328                           ;LCD_putc@c stored from wreg
  8329     1E00  1283               	bcf	3,5	;RP0=0, select bank0
  8330     1E01  1303               	bcf	3,6	;RP1=0, select bank0
  8331     1E02  00A5               	movwf	LCD_putc@c
  8332     1E03                     l4405:
  8333                           
  8334                           ;lcd.c: 122:    *(lcd.PORT) |= 1 << lcd.RS;
  8335     1E03  3001               	movlw	1
  8336     1E04  00A3               	movwf	??_LCD_putc
  8337     1E05  0872               	movf	_lcd+2,w
  8338     1E06  3907               	andlw	7
  8339     1E07  3E01               	addlw	1
  8340     1E08  2E0B               	goto	u7254
  8341     1E09                     u7255:
  8342     1E09  1003               	clrc
  8343     1E0A  0DA3               	rlf	??_LCD_putc,f
  8344     1E0B                     u7254:
  8345     1E0B  3EFF               	addlw	-1
  8346     1E0C  1D03               	skipz
  8347     1E0D  2E09               	goto	u7255
  8348     1E0E  0823               	movf	??_LCD_putc,w
  8349     1E0F  00FF               	movwf	btemp+1
  8350     1E10  0870               	movf	_lcd,w
  8351     1E11  0084               	movwf	4
  8352     1E12  1783               	bsf	3,7
  8353     1E13  1C71               	btfss	_lcd+1,0
  8354     1E14  1383               	bcf	3,7
  8355     1E15  087F               	movf	btemp+1,w
  8356     1E16  0480               	iorwf	0,f
  8357     1E17                     l4407:
  8358                           
  8359                           ;lcd.c: 123:     LCD_Out((c & 0xF0) >> 4);
  8360     1E17  0825               	movf	LCD_putc@c,w
  8361     1E18  00A3               	movwf	??_LCD_putc
  8362     1E19  3004               	movlw	4
  8363     1E1A                     u7265:
  8364     1E1A  1003               	clrc
  8365     1E1B  0CA3               	rrf	??_LCD_putc,f
  8366     1E1C  3EFF               	addlw	-1
  8367     1E1D  1D03               	skipz
  8368     1E1E  2E1A               	goto	u7265
  8369     1E1F  0823               	movf	??_LCD_putc,w
  8370     1E20  390F               	andlw	15
  8371     1E21  160A  118A  2096  160A  158A  	fcall	_LCD_Out
  8372     1E26                     l4409:
  8373                           
  8374                           ;lcd.c: 125:     *(lcd.PORT) |= 1 << lcd.EN;
  8375     1E26  3001               	movlw	1
  8376     1E27  1283               	bcf	3,5	;RP0=0, select bank0
  8377     1E28  1303               	bcf	3,6	;RP1=0, select bank0
  8378     1E29  00A3               	movwf	??_LCD_putc
  8379     1E2A  0C72               	rrf	_lcd+2,w
  8380     1E2B  00A4               	movwf	??_LCD_putc+1
  8381     1E2C  0CA4               	rrf	??_LCD_putc+1,f
  8382     1E2D  0C24               	rrf	??_LCD_putc+1,w
  8383     1E2E  3907               	andlw	7
  8384     1E2F  3E01               	addlw	1
  8385     1E30  2E33               	goto	u7274
  8386     1E31                     u7275:
  8387     1E31  1003               	clrc
  8388     1E32  0DA3               	rlf	??_LCD_putc,f
  8389     1E33                     u7274:
  8390     1E33  3EFF               	addlw	-1
  8391     1E34  1D03               	skipz
  8392     1E35  2E31               	goto	u7275
  8393     1E36  0823               	movf	??_LCD_putc,w
  8394     1E37  00FF               	movwf	btemp+1
  8395     1E38  0870               	movf	_lcd,w
  8396     1E39  0084               	movwf	4
  8397     1E3A  1783               	bsf	3,7
  8398     1E3B  1C71               	btfss	_lcd+1,0
  8399     1E3C  1383               	bcf	3,7
  8400     1E3D  087F               	movf	btemp+1,w
  8401     1E3E  0480               	iorwf	0,f
  8402     1E3F                     l4411:
  8403                           
  8404                           ;lcd.c: 126:     _delay((unsigned long)((40)*(2000000/4000000.0)));
  8405     1E3F  3005               	movlw	5
  8406     1E40  1283               	bcf	3,5	;RP0=0, select bank0
  8407     1E41  1303               	bcf	3,6	;RP1=0, select bank0
  8408     1E42  00A3               	movwf	??_LCD_putc
  8409     1E43                     u7657:
  8410     1E43  0BA3               	decfsz	??_LCD_putc,f
  8411     1E44  2E43               	goto	u7657
  8412     1E45  2E46               	nop2
  8413     1E46                     l4413:
  8414                           
  8415                           ;lcd.c: 127:     *(lcd.PORT) &= ~(1 << lcd.EN);
  8416     1E46  3001               	movlw	1
  8417     1E47  1283               	bcf	3,5	;RP0=0, select bank0
  8418     1E48  1303               	bcf	3,6	;RP1=0, select bank0
  8419     1E49  00A3               	movwf	??_LCD_putc
  8420     1E4A  0C72               	rrf	_lcd+2,w
  8421     1E4B  00A4               	movwf	??_LCD_putc+1
  8422     1E4C  0CA4               	rrf	??_LCD_putc+1,f
  8423     1E4D  0C24               	rrf	??_LCD_putc+1,w
  8424     1E4E  3907               	andlw	7
  8425     1E4F  3E01               	addlw	1
  8426     1E50  2E53               	goto	u7284
  8427     1E51                     u7285:
  8428     1E51  1003               	clrc
  8429     1E52  0DA3               	rlf	??_LCD_putc,f
  8430     1E53                     u7284:
  8431     1E53  3EFF               	addlw	-1
  8432     1E54  1D03               	skipz
  8433     1E55  2E51               	goto	u7285
  8434     1E56  0823               	movf	??_LCD_putc,w
  8435     1E57  3AFF               	xorlw	255
  8436     1E58  00FF               	movwf	btemp+1
  8437     1E59  0870               	movf	_lcd,w
  8438     1E5A  0084               	movwf	4
  8439     1E5B  1783               	bsf	3,7
  8440     1E5C  1C71               	btfss	_lcd+1,0
  8441     1E5D  1383               	bcf	3,7
  8442     1E5E  087F               	movf	btemp+1,w
  8443     1E5F  0580               	andwf	0,f
  8444     1E60                     l4415:
  8445                           
  8446                           ;lcd.c: 129:     LCD_Out(c & 0x0F);
  8447     1E60  0825               	movf	LCD_putc@c,w
  8448     1E61  390F               	andlw	15
  8449     1E62  160A  118A  2096  160A  158A  	fcall	_LCD_Out
  8450     1E67                     l4417:
  8451                           
  8452                           ;lcd.c: 131:     *(lcd.PORT) |= 1 << lcd.EN;
  8453     1E67  3001               	movlw	1
  8454     1E68  1283               	bcf	3,5	;RP0=0, select bank0
  8455     1E69  1303               	bcf	3,6	;RP1=0, select bank0
  8456     1E6A  00A3               	movwf	??_LCD_putc
  8457     1E6B  0C72               	rrf	_lcd+2,w
  8458     1E6C  00A4               	movwf	??_LCD_putc+1
  8459     1E6D  0CA4               	rrf	??_LCD_putc+1,f
  8460     1E6E  0C24               	rrf	??_LCD_putc+1,w
  8461     1E6F  3907               	andlw	7
  8462     1E70  3E01               	addlw	1
  8463     1E71  2E74               	goto	u7294
  8464     1E72                     u7295:
  8465     1E72  1003               	clrc
  8466     1E73  0DA3               	rlf	??_LCD_putc,f
  8467     1E74                     u7294:
  8468     1E74  3EFF               	addlw	-1
  8469     1E75  1D03               	skipz
  8470     1E76  2E72               	goto	u7295
  8471     1E77  0823               	movf	??_LCD_putc,w
  8472     1E78  00FF               	movwf	btemp+1
  8473     1E79  0870               	movf	_lcd,w
  8474     1E7A  0084               	movwf	4
  8475     1E7B  1783               	bsf	3,7
  8476     1E7C  1C71               	btfss	_lcd+1,0
  8477     1E7D  1383               	bcf	3,7
  8478     1E7E  087F               	movf	btemp+1,w
  8479     1E7F  0480               	iorwf	0,f
  8480                           
  8481                           ;lcd.c: 132:     _delay((unsigned long)((40)*(2000000/4000000.0)));
  8482     1E80  3005               	movlw	5
  8483     1E81  1283               	bcf	3,5	;RP0=0, select bank0
  8484     1E82  1303               	bcf	3,6	;RP1=0, select bank0
  8485     1E83  00A3               	movwf	??_LCD_putc
  8486     1E84                     u7667:
  8487     1E84  0BA3               	decfsz	??_LCD_putc,f
  8488     1E85  2E84               	goto	u7667
  8489     1E86  2E87               	nop2
  8490     1E87                     l4419:
  8491                           
  8492                           ;lcd.c: 133:     *(lcd.PORT) &= ~(1 << lcd.EN);
  8493     1E87  3001               	movlw	1
  8494     1E88  1283               	bcf	3,5	;RP0=0, select bank0
  8495     1E89  1303               	bcf	3,6	;RP1=0, select bank0
  8496     1E8A  00A3               	movwf	??_LCD_putc
  8497     1E8B  0C72               	rrf	_lcd+2,w
  8498     1E8C  00A4               	movwf	??_LCD_putc+1
  8499     1E8D  0CA4               	rrf	??_LCD_putc+1,f
  8500     1E8E  0C24               	rrf	??_LCD_putc+1,w
  8501     1E8F  3907               	andlw	7
  8502     1E90  3E01               	addlw	1
  8503     1E91  2E94               	goto	u7304
  8504     1E92                     u7305:
  8505     1E92  1003               	clrc
  8506     1E93  0DA3               	rlf	??_LCD_putc,f
  8507     1E94                     u7304:
  8508     1E94  3EFF               	addlw	-1
  8509     1E95  1D03               	skipz
  8510     1E96  2E92               	goto	u7305
  8511     1E97  0823               	movf	??_LCD_putc,w
  8512     1E98  3AFF               	xorlw	255
  8513     1E99  00FF               	movwf	btemp+1
  8514     1E9A  0870               	movf	_lcd,w
  8515     1E9B  0084               	movwf	4
  8516     1E9C  1783               	bsf	3,7
  8517     1E9D  1C71               	btfss	_lcd+1,0
  8518     1E9E  1383               	bcf	3,7
  8519     1E9F  087F               	movf	btemp+1,w
  8520     1EA0  0580               	andwf	0,f
  8521     1EA1                     l67:
  8522     1EA1  0008               	return
  8523     1EA2                     __end_of_LCD_putc:
  8524                           
  8525                           	psect	text32
  8526     115E                     __ptext32:	
  8527 ;; *************** function _LCD_Init *****************
  8528 ;; Defined at:
  8529 ;;		line 62 in file "lcd.c"
  8530 ;; Parameters:    Size  Location     Type
  8531 ;;  display         5    6[BANK0 ] struct .
  8532 ;; Auto vars:     Size  Location     Type
  8533 ;;  cmd             1   13[BANK0 ] unsigned char 
  8534 ;; Return value:  Size  Location     Type
  8535 ;;                  1    wreg      _Bool 
  8536 ;; Registers used:
  8537 ;;		wreg, fsr0l, fsr0h, status,2, status,0, btemp+1, pclath, cstack
  8538 ;; Tracked objects:
  8539 ;;		On entry : 0/0
  8540 ;;		On exit  : 0/0
  8541 ;;		Unchanged: 0/0
  8542 ;; Data sizes:     COMMON   BANK0   BANK1   BANK3   BANK2
  8543 ;;      Params:         0       5       0       0       0
  8544 ;;      Locals:         0       1       0       0       0
  8545 ;;      Temps:          0       2       0       0       0
  8546 ;;      Totals:         0       8       0       0       0
  8547 ;;Total ram usage:        8 bytes
  8548 ;; Hardware stack levels used: 1
  8549 ;; Hardware stack levels required when called: 3
  8550 ;; This function calls:
  8551 ;;		_LCD_Write
  8552 ;; This function is called by:
  8553 ;;		_main
  8554 ;; This function uses a non-reentrant model
  8555 ;;
  8556                           
  8557     115E                     _LCD_Init:	
  8558                           ;psect for function _LCD_Init
  8559                           
  8560     115E                     l4431:	
  8561                           ;incstack = 0
  8562                           ; Regs used in _LCD_Init: [wreg-fsr0h+status,2+status,0+btemp+1+pclath+cstack]
  8563                           
  8564                           
  8565                           ;lcd.c: 64:     lcd = display;
  8566     115E  3070               	movlw	_lcd& (0+255)
  8567     115F  0084               	movwf	4
  8568     1160  1283               	bcf	3,5	;RP0=0, select bank0
  8569     1161  1303               	bcf	3,6	;RP1=0, select bank0
  8570     1162  0826               	movf	LCD_Init@display,w
  8571     1163  0080               	movwf	0
  8572     1164  0A84               	incf	4,f
  8573     1165  0827               	movf	LCD_Init@display+1,w
  8574     1166  0080               	movwf	0
  8575     1167  0A84               	incf	4,f
  8576     1168  0828               	movf	LCD_Init@display+2,w
  8577     1169  0080               	movwf	0
  8578     116A  0A84               	incf	4,f
  8579     116B  0829               	movf	LCD_Init@display+3,w
  8580     116C  0080               	movwf	0
  8581     116D  0A84               	incf	4,f
  8582     116E  082A               	movf	LCD_Init@display+4,w
  8583     116F  0080               	movwf	0
  8584     1170                     l4433:
  8585                           
  8586                           ;lcd.c: 73:     if ( lcd.PORT == &PORTA ) {
  8587     1170  3000               	movlw	0
  8588     1171  0671               	xorwf	_lcd+1,w
  8589     1172  1D03               	skipz
  8590     1173  2976               	goto	u7325
  8591     1174  3005               	movlw	5
  8592     1175  0670               	xorwf	_lcd,w
  8593     1176                     u7325:
  8594     1176  1D03               	skipz
  8595     1177  2979               	goto	u7321
  8596     1178  297A               	goto	u7320
  8597     1179                     u7321:
  8598     1179  297E               	goto	l4437
  8599     117A                     u7320:
  8600     117A                     l4435:
  8601                           
  8602                           ;lcd.c: 74:         TRISA = 0x00;
  8603     117A  1683               	bsf	3,5	;RP0=1, select bank1
  8604     117B  1303               	bcf	3,6	;RP1=0, select bank1
  8605     117C  0185               	clrf	5	;volatile
  8606                           
  8607                           ;lcd.c: 75:     }
  8608     117D  29B5               	goto	l4453
  8609     117E                     l4437:
  8610     117E  3000               	movlw	0
  8611     117F  0671               	xorwf	_lcd+1,w
  8612     1180  1D03               	skipz
  8613     1181  2984               	goto	u7335
  8614     1182  3006               	movlw	6
  8615     1183  0670               	xorwf	_lcd,w
  8616     1184                     u7335:
  8617     1184  1D03               	skipz
  8618     1185  2987               	goto	u7331
  8619     1186  2988               	goto	u7330
  8620     1187                     u7331:
  8621     1187  298C               	goto	l4441
  8622     1188                     u7330:
  8623     1188                     l4439:
  8624                           
  8625                           ;lcd.c: 77:         TRISB = 0x00;
  8626     1188  1683               	bsf	3,5	;RP0=1, select bank1
  8627     1189  1303               	bcf	3,6	;RP1=0, select bank1
  8628     118A  0186               	clrf	6	;volatile
  8629                           
  8630                           ;lcd.c: 78:     }
  8631     118B  29B5               	goto	l4453
  8632     118C                     l4441:
  8633     118C  3000               	movlw	0
  8634     118D  0671               	xorwf	_lcd+1,w
  8635     118E  1D03               	skipz
  8636     118F  2992               	goto	u7345
  8637     1190  3007               	movlw	7
  8638     1191  0670               	xorwf	_lcd,w
  8639     1192                     u7345:
  8640     1192  1D03               	skipz
  8641     1193  2995               	goto	u7341
  8642     1194  2996               	goto	u7340
  8643     1195                     u7341:
  8644     1195  299A               	goto	l4445
  8645     1196                     u7340:
  8646     1196                     l4443:
  8647                           
  8648                           ;lcd.c: 80:         TRISC = 0x00;
  8649     1196  1683               	bsf	3,5	;RP0=1, select bank1
  8650     1197  1303               	bcf	3,6	;RP1=0, select bank1
  8651     1198  0187               	clrf	7	;volatile
  8652                           
  8653                           ;lcd.c: 81:     }
  8654     1199  29B5               	goto	l4453
  8655     119A                     l4445:
  8656     119A  3000               	movlw	0
  8657     119B  0671               	xorwf	_lcd+1,w
  8658     119C  1D03               	skipz
  8659     119D  29A0               	goto	u7355
  8660     119E  3008               	movlw	8
  8661     119F  0670               	xorwf	_lcd,w
  8662     11A0                     u7355:
  8663     11A0  1D03               	skipz
  8664     11A1  29A3               	goto	u7351
  8665     11A2  29A4               	goto	u7350
  8666     11A3                     u7351:
  8667     11A3  29A8               	goto	l4449
  8668     11A4                     u7350:
  8669     11A4                     l4447:
  8670                           
  8671                           ;lcd.c: 84:         TRISD = 0x00;
  8672     11A4  1683               	bsf	3,5	;RP0=1, select bank1
  8673     11A5  1303               	bcf	3,6	;RP1=0, select bank1
  8674     11A6  0188               	clrf	8	;volatile
  8675                           
  8676                           ;lcd.c: 85:     }
  8677     11A7  29B5               	goto	l4453
  8678     11A8                     l4449:
  8679     11A8  3000               	movlw	0
  8680     11A9  0671               	xorwf	_lcd+1,w
  8681     11AA  1D03               	skipz
  8682     11AB  29AE               	goto	u7365
  8683     11AC  3009               	movlw	9
  8684     11AD  0670               	xorwf	_lcd,w
  8685     11AE                     u7365:
  8686     11AE  1D03               	skipz
  8687     11AF  29B1               	goto	u7361
  8688     11B0  29B2               	goto	u7360
  8689     11B1                     u7361:
  8690     11B1  2A2D               	goto	l51
  8691     11B2                     u7360:
  8692     11B2                     l4451:
  8693                           
  8694                           ;lcd.c: 87:         TRISE = 0x00;
  8695     11B2  1683               	bsf	3,5	;RP0=1, select bank1
  8696     11B3  1303               	bcf	3,6	;RP1=0, select bank1
  8697     11B4  0189               	clrf	9	;volatile
  8698     11B5                     l4453:	
  8699                           ;lcd.c: 88:     }
  8700                           
  8701                           
  8702                           ;lcd.c: 95:     _delay((unsigned long)((20)*(2000000/4000.0)));
  8703     11B5  300D               	movlw	13
  8704     11B6  1283               	bcf	3,5	;RP0=0, select bank0
  8705     11B7  1303               	bcf	3,6	;RP1=0, select bank0
  8706     11B8  00AC               	movwf	??_LCD_Init+1
  8707     11B9  30FB               	movlw	251
  8708     11BA  00AB               	movwf	??_LCD_Init
  8709     11BB                     u7677:
  8710     11BB  0BAB               	decfsz	??_LCD_Init,f
  8711     11BC  29BB               	goto	u7677
  8712     11BD  0BAC               	decfsz	??_LCD_Init+1,f
  8713     11BE  29BB               	goto	u7677
  8714     11BF                     l4455:
  8715                           
  8716                           ;lcd.c: 98:     LCD_Write(0x03);
  8717     11BF  3003               	movlw	3
  8718     11C0  160A  158A  244D  160A  118A  	fcall	_LCD_Write
  8719     11C5                     l4457:
  8720                           
  8721                           ;lcd.c: 99:     _delay((unsigned long)((5)*(2000000/4000.0)));
  8722     11C5  3004               	movlw	4
  8723     11C6  1283               	bcf	3,5	;RP0=0, select bank0
  8724     11C7  1303               	bcf	3,6	;RP1=0, select bank0
  8725     11C8  00AC               	movwf	??_LCD_Init+1
  8726     11C9  303D               	movlw	61
  8727     11CA  00AB               	movwf	??_LCD_Init
  8728     11CB                     u7687:
  8729     11CB  0BAB               	decfsz	??_LCD_Init,f
  8730     11CC  29CB               	goto	u7687
  8731     11CD  0BAC               	decfsz	??_LCD_Init+1,f
  8732     11CE  29CB               	goto	u7687
  8733                           
  8734                           ;lcd.c: 100:     LCD_Write(0x03);
  8735     11CF  3003               	movlw	3
  8736     11D0  160A  158A  244D  160A  118A  	fcall	_LCD_Write
  8737     11D5                     l4459:
  8738                           
  8739                           ;lcd.c: 101:     _delay((unsigned long)((16)*(2000000/4000.0)));
  8740     11D5  300B               	movlw	11
  8741     11D6  1283               	bcf	3,5	;RP0=0, select bank0
  8742     11D7  1303               	bcf	3,6	;RP1=0, select bank0
  8743     11D8  00AC               	movwf	??_LCD_Init+1
  8744     11D9  3061               	movlw	97
  8745     11DA  00AB               	movwf	??_LCD_Init
  8746     11DB                     u7697:
  8747     11DB  0BAB               	decfsz	??_LCD_Init,f
  8748     11DC  29DB               	goto	u7697
  8749     11DD  0BAC               	decfsz	??_LCD_Init+1,f
  8750     11DE  29DB               	goto	u7697
  8751     11DF  29E0               	nop2
  8752     11E0                     l4461:
  8753                           
  8754                           ;lcd.c: 102:     LCD_Write(0x03);
  8755     11E0  3003               	movlw	3
  8756     11E1  160A  158A  244D  160A  118A  	fcall	_LCD_Write
  8757     11E6                     l4463:
  8758                           
  8759                           ;lcd.c: 105:     LCD_Write(0x02);
  8760     11E6  3002               	movlw	2
  8761     11E7  160A  158A  244D  160A  118A  	fcall	_LCD_Write
  8762     11EC                     l4465:
  8763     11EC  3002               	movlw	2
  8764     11ED  160A  158A  244D  160A  118A  	fcall	_LCD_Write
  8765     11F2                     l4467:
  8766     11F2  3008               	movlw	8
  8767     11F3  160A  158A  244D  160A  118A  	fcall	_LCD_Write
  8768     11F8                     l4469:
  8769     11F8  3000               	movlw	0
  8770     11F9  160A  158A  244D  160A  118A  	fcall	_LCD_Write
  8771     11FE                     l4471:
  8772     11FE  3006               	movlw	6
  8773     11FF  160A  158A  244D  160A  118A  	fcall	_LCD_Write
  8774     1204                     l4473:
  8775     1204  3008               	movlw	8
  8776     1205  1283               	bcf	3,5	;RP0=0, select bank0
  8777     1206  1303               	bcf	3,6	;RP1=0, select bank0
  8778     1207  00AD               	movwf	LCD_Init@cmd
  8779     1208                     l4475:
  8780     1208  152D               	bsf	LCD_Init@cmd,2
  8781     1209                     l4481:
  8782     1209  082D               	movf	LCD_Init@cmd,w
  8783     120A  00AB               	movwf	??_LCD_Init
  8784     120B  3004               	movlw	4
  8785     120C                     u7375:
  8786     120C  1003               	clrc
  8787     120D  0CAB               	rrf	??_LCD_Init,f
  8788     120E  3EFF               	addlw	-1
  8789     120F  1D03               	skipz
  8790     1210  2A0C               	goto	u7375
  8791     1211  082B               	movf	??_LCD_Init,w
  8792     1212  390F               	andlw	15
  8793     1213  160A  158A  244D  160A  118A  	fcall	_LCD_Write
  8794     1218  1283               	bcf	3,5	;RP0=0, select bank0
  8795     1219  1303               	bcf	3,6	;RP1=0, select bank0
  8796     121A  082D               	movf	LCD_Init@cmd,w
  8797     121B  390F               	andlw	15
  8798     121C  160A  158A  244D  160A  118A  	fcall	_LCD_Write
  8799     1221                     l63:	
  8800                           ;lcd.c: 115:     do { LCD_Write( (0x01 & 0xF0) >> 4 ); LCD_Write( 0x01 & 0x0F); } while 
      +                          ( 0 );
  8801                           
  8802     1221  3000               	movlw	0
  8803     1222  160A  158A  244D  160A  118A  	fcall	_LCD_Write
  8804     1227  3001               	movlw	1
  8805     1228  160A  158A  244D  160A  118A  	fcall	_LCD_Write
  8806     122D                     l51:
  8807     122D  0008               	return
  8808     122E                     __end_of_LCD_Init:
  8809                           
  8810                           	psect	text33
  8811     1C4D                     __ptext33:	
  8812 ;; *************** function _LCD_Write *****************
  8813 ;; Defined at:
  8814 ;;		line 51 in file "lcd.c"
  8815 ;; Parameters:    Size  Location     Type
  8816 ;;  c               1    wreg     unsigned char 
  8817 ;; Auto vars:     Size  Location     Type
  8818 ;;  c               1    5[BANK0 ] unsigned char 
  8819 ;; Return value:  Size  Location     Type
  8820 ;;                  1    wreg      void 
  8821 ;; Registers used:
  8822 ;;		wreg, fsr0l, fsr0h, status,2, status,0, btemp+1, pclath, cstack
  8823 ;; Tracked objects:
  8824 ;;		On entry : 0/0
  8825 ;;		On exit  : 0/0
  8826 ;;		Unchanged: 0/0
  8827 ;; Data sizes:     COMMON   BANK0   BANK1   BANK3   BANK2
  8828 ;;      Params:         0       0       0       0       0
  8829 ;;      Locals:         0       1       0       0       0
  8830 ;;      Temps:          0       2       0       0       0
  8831 ;;      Totals:         0       3       0       0       0
  8832 ;;Total ram usage:        3 bytes
  8833 ;; Hardware stack levels used: 1
  8834 ;; Hardware stack levels required when called: 2
  8835 ;; This function calls:
  8836 ;;		_LCD_Out
  8837 ;; This function is called by:
  8838 ;;		_LCD_Init
  8839 ;;		_main
  8840 ;; This function uses a non-reentrant model
  8841 ;;
  8842                           
  8843     1C4D                     _LCD_Write:	
  8844                           ;psect for function _LCD_Write
  8845                           
  8846                           
  8847                           ;incstack = 0
  8848                           ; Regs used in _LCD_Write: [wreg-fsr0h+status,2+status,0+btemp+1+pclath+cstack]
  8849                           ;LCD_Write@c stored from wreg
  8850     1C4D  1283               	bcf	3,5	;RP0=0, select bank0
  8851     1C4E  1303               	bcf	3,6	;RP1=0, select bank0
  8852     1C4F  00A5               	movwf	LCD_Write@c
  8853     1C50                     l4395:
  8854                           
  8855                           ;lcd.c: 53:     *(lcd.PORT) &= ~(1 << lcd.RS);
  8856     1C50  3001               	movlw	1
  8857     1C51  00A3               	movwf	??_LCD_Write
  8858     1C52  0872               	movf	_lcd+2,w
  8859     1C53  3907               	andlw	7
  8860     1C54  3E01               	addlw	1
  8861     1C55  2C58               	goto	u7224
  8862     1C56                     u7225:
  8863     1C56  1003               	clrc
  8864     1C57  0DA3               	rlf	??_LCD_Write,f
  8865     1C58                     u7224:
  8866     1C58  3EFF               	addlw	-1
  8867     1C59  1D03               	skipz
  8868     1C5A  2C56               	goto	u7225
  8869     1C5B  0823               	movf	??_LCD_Write,w
  8870     1C5C  3AFF               	xorlw	255
  8871     1C5D  00FF               	movwf	btemp+1
  8872     1C5E  0870               	movf	_lcd,w
  8873     1C5F  0084               	movwf	4
  8874     1C60  1783               	bsf	3,7
  8875     1C61  1C71               	btfss	_lcd+1,0
  8876     1C62  1383               	bcf	3,7
  8877     1C63  087F               	movf	btemp+1,w
  8878     1C64  0580               	andwf	0,f
  8879     1C65                     l4397:
  8880                           
  8881                           ;lcd.c: 54:     LCD_Out(c);
  8882     1C65  0825               	movf	LCD_Write@c,w
  8883     1C66  160A  118A  2096  160A  158A  	fcall	_LCD_Out
  8884     1C6B                     l4399:
  8885                           
  8886                           ;lcd.c: 56:     *(lcd.PORT) |= 1 << lcd.EN;
  8887     1C6B  3001               	movlw	1
  8888     1C6C  1283               	bcf	3,5	;RP0=0, select bank0
  8889     1C6D  1303               	bcf	3,6	;RP1=0, select bank0
  8890     1C6E  00A3               	movwf	??_LCD_Write
  8891     1C6F  0C72               	rrf	_lcd+2,w
  8892     1C70  00A4               	movwf	??_LCD_Write+1
  8893     1C71  0CA4               	rrf	??_LCD_Write+1,f
  8894     1C72  0C24               	rrf	??_LCD_Write+1,w
  8895     1C73  3907               	andlw	7
  8896     1C74  3E01               	addlw	1
  8897     1C75  2C78               	goto	u7234
  8898     1C76                     u7235:
  8899     1C76  1003               	clrc
  8900     1C77  0DA3               	rlf	??_LCD_Write,f
  8901     1C78                     u7234:
  8902     1C78  3EFF               	addlw	-1
  8903     1C79  1D03               	skipz
  8904     1C7A  2C76               	goto	u7235
  8905     1C7B  0823               	movf	??_LCD_Write,w
  8906     1C7C  00FF               	movwf	btemp+1
  8907     1C7D  0870               	movf	_lcd,w
  8908     1C7E  0084               	movwf	4
  8909     1C7F  1783               	bsf	3,7
  8910     1C80  1C71               	btfss	_lcd+1,0
  8911     1C81  1383               	bcf	3,7
  8912     1C82  087F               	movf	btemp+1,w
  8913     1C83  0480               	iorwf	0,f
  8914     1C84                     l4401:
  8915                           
  8916                           ;lcd.c: 57:     _delay((unsigned long)((4)*(2000000/4000.0)));
  8917     1C84  3003               	movlw	3
  8918     1C85  1283               	bcf	3,5	;RP0=0, select bank0
  8919     1C86  1303               	bcf	3,6	;RP1=0, select bank0
  8920     1C87  00A4               	movwf	??_LCD_Write+1
  8921     1C88  3097               	movlw	151
  8922     1C89  00A3               	movwf	??_LCD_Write
  8923     1C8A                     u7707:
  8924     1C8A  0BA3               	decfsz	??_LCD_Write,f
  8925     1C8B  2C8A               	goto	u7707
  8926     1C8C  0BA4               	decfsz	??_LCD_Write+1,f
  8927     1C8D  2C8A               	goto	u7707
  8928     1C8E                     l4403:
  8929                           
  8930                           ;lcd.c: 58:     *(lcd.PORT) &= ~(1 << lcd.EN);
  8931     1C8E  3001               	movlw	1
  8932     1C8F  1283               	bcf	3,5	;RP0=0, select bank0
  8933     1C90  1303               	bcf	3,6	;RP1=0, select bank0
  8934     1C91  00A3               	movwf	??_LCD_Write
  8935     1C92  0C72               	rrf	_lcd+2,w
  8936     1C93  00A4               	movwf	??_LCD_Write+1
  8937     1C94  0CA4               	rrf	??_LCD_Write+1,f
  8938     1C95  0C24               	rrf	??_LCD_Write+1,w
  8939     1C96  3907               	andlw	7
  8940     1C97  3E01               	addlw	1
  8941     1C98  2C9B               	goto	u7244
  8942     1C99                     u7245:
  8943     1C99  1003               	clrc
  8944     1C9A  0DA3               	rlf	??_LCD_Write,f
  8945     1C9B                     u7244:
  8946     1C9B  3EFF               	addlw	-1
  8947     1C9C  1D03               	skipz
  8948     1C9D  2C99               	goto	u7245
  8949     1C9E  0823               	movf	??_LCD_Write,w
  8950     1C9F  3AFF               	xorlw	255
  8951     1CA0  00FF               	movwf	btemp+1
  8952     1CA1  0870               	movf	_lcd,w
  8953     1CA2  0084               	movwf	4
  8954     1CA3  1783               	bsf	3,7
  8955     1CA4  1C71               	btfss	_lcd+1,0
  8956     1CA5  1383               	bcf	3,7
  8957     1CA6  087F               	movf	btemp+1,w
  8958     1CA7  0580               	andwf	0,f
  8959     1CA8                     l38:
  8960     1CA8  0008               	return
  8961     1CA9                     __end_of_LCD_Write:
  8962                           
  8963                           	psect	text34
  8964     1096                     __ptext34:	
  8965 ;; *************** function _LCD_Out *****************
  8966 ;; Defined at:
  8967 ;;		line 19 in file "lcd.c"
  8968 ;; Parameters:    Size  Location     Type
  8969 ;;  c               1    wreg     unsigned char 
  8970 ;; Auto vars:     Size  Location     Type
  8971 ;;  c               1    2[BANK0 ] unsigned char 
  8972 ;; Return value:  Size  Location     Type
  8973 ;;                  1    wreg      void 
  8974 ;; Registers used:
  8975 ;;		wreg, fsr0l, fsr0h, status,2, status,0, btemp+1
  8976 ;; Tracked objects:
  8977 ;;		On entry : 0/0
  8978 ;;		On exit  : 0/0
  8979 ;;		Unchanged: 0/0
  8980 ;; Data sizes:     COMMON   BANK0   BANK1   BANK3   BANK2
  8981 ;;      Params:         0       0       0       0       0
  8982 ;;      Locals:         0       1       0       0       0
  8983 ;;      Temps:          0       2       0       0       0
  8984 ;;      Totals:         0       3       0       0       0
  8985 ;;Total ram usage:        3 bytes
  8986 ;; Hardware stack levels used: 1
  8987 ;; Hardware stack levels required when called: 1
  8988 ;; This function calls:
  8989 ;;		Nothing
  8990 ;; This function is called by:
  8991 ;;		_LCD_Write
  8992 ;;		_LCD_putc
  8993 ;; This function uses a non-reentrant model
  8994 ;;
  8995                           
  8996     1096                     _LCD_Out:	
  8997                           ;psect for function _LCD_Out
  8998                           
  8999                           
  9000                           ;incstack = 0
  9001                           ; Regs used in _LCD_Out: [wreg-fsr0h+status,2+status,0+btemp+1]
  9002                           ;LCD_Out@c stored from wreg
  9003     1096  1283               	bcf	3,5	;RP0=0, select bank0
  9004     1097  1303               	bcf	3,6	;RP1=0, select bank0
  9005     1098  00A2               	movwf	LCD_Out@c
  9006     1099                     l4305:
  9007                           
  9008                           ;lcd.c: 21:     if ( c & 1 ){
  9009     1099  1C22               	btfss	LCD_Out@c,0
  9010     109A  289C               	goto	u7061
  9011     109B  289D               	goto	u7060
  9012     109C                     u7061:
  9013     109C  28B2               	goto	l4309
  9014     109D                     u7060:
  9015     109D                     l4307:
  9016                           
  9017                           ;lcd.c: 22:         *(lcd.PORT) |= 1 << lcd.D4;
  9018     109D  3001               	movlw	1
  9019     109E  00A0               	movwf	??_LCD_Out
  9020     109F  0873               	movf	_lcd+3,w
  9021     10A0  3907               	andlw	7
  9022     10A1  3E01               	addlw	1
  9023     10A2  28A5               	goto	u7074
  9024     10A3                     u7075:
  9025     10A3  1003               	clrc
  9026     10A4  0DA0               	rlf	??_LCD_Out,f
  9027     10A5                     u7074:
  9028     10A5  3EFF               	addlw	-1
  9029     10A6  1D03               	skipz
  9030     10A7  28A3               	goto	u7075
  9031     10A8  0820               	movf	??_LCD_Out,w
  9032     10A9  00FF               	movwf	btemp+1
  9033     10AA  0870               	movf	_lcd,w
  9034     10AB  0084               	movwf	4
  9035     10AC  1783               	bsf	3,7
  9036     10AD  1C71               	btfss	_lcd+1,0
  9037     10AE  1383               	bcf	3,7
  9038     10AF  087F               	movf	btemp+1,w
  9039     10B0  0480               	iorwf	0,f
  9040                           
  9041                           ;lcd.c: 23:     }
  9042     10B1  28C7               	goto	l4311
  9043     10B2                     l4309:
  9044                           
  9045                           ;lcd.c: 25:          *(lcd.PORT) &= ~(1 << lcd.D4);
  9046     10B2  3001               	movlw	1
  9047     10B3  00A0               	movwf	??_LCD_Out
  9048     10B4  0873               	movf	_lcd+3,w
  9049     10B5  3907               	andlw	7
  9050     10B6  3E01               	addlw	1
  9051     10B7  28BA               	goto	u7084
  9052     10B8                     u7085:
  9053     10B8  1003               	clrc
  9054     10B9  0DA0               	rlf	??_LCD_Out,f
  9055     10BA                     u7084:
  9056     10BA  3EFF               	addlw	-1
  9057     10BB  1D03               	skipz
  9058     10BC  28B8               	goto	u7085
  9059     10BD  0820               	movf	??_LCD_Out,w
  9060     10BE  3AFF               	xorlw	255
  9061     10BF  00FF               	movwf	btemp+1
  9062     10C0  0870               	movf	_lcd,w
  9063     10C1  0084               	movwf	4
  9064     10C2  1783               	bsf	3,7
  9065     10C3  1C71               	btfss	_lcd+1,0
  9066     10C4  1383               	bcf	3,7
  9067     10C5  087F               	movf	btemp+1,w
  9068     10C6  0580               	andwf	0,f
  9069     10C7                     l4311:
  9070                           
  9071                           ;lcd.c: 28:     if ( c & 2 ) {
  9072     10C7  1CA2               	btfss	LCD_Out@c,1
  9073     10C8  28CA               	goto	u7091
  9074     10C9  28CB               	goto	u7090
  9075     10CA                     u7091:
  9076     10CA  28E3               	goto	l4315
  9077     10CB                     u7090:
  9078     10CB                     l4313:
  9079                           
  9080                           ;lcd.c: 29:         *(lcd.PORT) |= 1 << lcd.D5;
  9081     10CB  3001               	movlw	1
  9082     10CC  00A0               	movwf	??_LCD_Out
  9083     10CD  0C73               	rrf	_lcd+3,w
  9084     10CE  00A1               	movwf	??_LCD_Out+1
  9085     10CF  0CA1               	rrf	??_LCD_Out+1,f
  9086     10D0  0C21               	rrf	??_LCD_Out+1,w
  9087     10D1  3907               	andlw	7
  9088     10D2  3E01               	addlw	1
  9089     10D3  28D6               	goto	u7104
  9090     10D4                     u7105:
  9091     10D4  1003               	clrc
  9092     10D5  0DA0               	rlf	??_LCD_Out,f
  9093     10D6                     u7104:
  9094     10D6  3EFF               	addlw	-1
  9095     10D7  1D03               	skipz
  9096     10D8  28D4               	goto	u7105
  9097     10D9  0820               	movf	??_LCD_Out,w
  9098     10DA  00FF               	movwf	btemp+1
  9099     10DB  0870               	movf	_lcd,w
  9100     10DC  0084               	movwf	4
  9101     10DD  1783               	bsf	3,7
  9102     10DE  1C71               	btfss	_lcd+1,0
  9103     10DF  1383               	bcf	3,7
  9104     10E0  087F               	movf	btemp+1,w
  9105     10E1  0480               	iorwf	0,f
  9106                           
  9107                           ;lcd.c: 30:     }
  9108     10E2  28FB               	goto	l4317
  9109     10E3                     l4315:
  9110                           
  9111                           ;lcd.c: 32:         *(lcd.PORT) &= ~(1 << lcd.D5);
  9112     10E3  3001               	movlw	1
  9113     10E4  00A0               	movwf	??_LCD_Out
  9114     10E5  0C73               	rrf	_lcd+3,w
  9115     10E6  00A1               	movwf	??_LCD_Out+1
  9116     10E7  0CA1               	rrf	??_LCD_Out+1,f
  9117     10E8  0C21               	rrf	??_LCD_Out+1,w
  9118     10E9  3907               	andlw	7
  9119     10EA  3E01               	addlw	1
  9120     10EB  28EE               	goto	u7114
  9121     10EC                     u7115:
  9122     10EC  1003               	clrc
  9123     10ED  0DA0               	rlf	??_LCD_Out,f
  9124     10EE                     u7114:
  9125     10EE  3EFF               	addlw	-1
  9126     10EF  1D03               	skipz
  9127     10F0  28EC               	goto	u7115
  9128     10F1  0820               	movf	??_LCD_Out,w
  9129     10F2  3AFF               	xorlw	255
  9130     10F3  00FF               	movwf	btemp+1
  9131     10F4  0870               	movf	_lcd,w
  9132     10F5  0084               	movwf	4
  9133     10F6  1783               	bsf	3,7
  9134     10F7  1C71               	btfss	_lcd+1,0
  9135     10F8  1383               	bcf	3,7
  9136     10F9  087F               	movf	btemp+1,w
  9137     10FA  0580               	andwf	0,f
  9138     10FB                     l4317:
  9139                           
  9140                           ;lcd.c: 35:     if ( c & 4 ) {
  9141     10FB  1D22               	btfss	LCD_Out@c,2
  9142     10FC  28FE               	goto	u7121
  9143     10FD  28FF               	goto	u7120
  9144     10FE                     u7121:
  9145     10FE  2914               	goto	l4321
  9146     10FF                     u7120:
  9147     10FF                     l4319:
  9148                           
  9149                           ;lcd.c: 36:         *(lcd.PORT) |= 1 << lcd.D6;
  9150     10FF  3001               	movlw	1
  9151     1100  00A0               	movwf	??_LCD_Out
  9152     1101  0874               	movf	_lcd+4,w
  9153     1102  3907               	andlw	7
  9154     1103  3E01               	addlw	1
  9155     1104  2907               	goto	u7134
  9156     1105                     u7135:
  9157     1105  1003               	clrc
  9158     1106  0DA0               	rlf	??_LCD_Out,f
  9159     1107                     u7134:
  9160     1107  3EFF               	addlw	-1
  9161     1108  1D03               	skipz
  9162     1109  2905               	goto	u7135
  9163     110A  0820               	movf	??_LCD_Out,w
  9164     110B  00FF               	movwf	btemp+1
  9165     110C  0870               	movf	_lcd,w
  9166     110D  0084               	movwf	4
  9167     110E  1783               	bsf	3,7
  9168     110F  1C71               	btfss	_lcd+1,0
  9169     1110  1383               	bcf	3,7
  9170     1111  087F               	movf	btemp+1,w
  9171     1112  0480               	iorwf	0,f
  9172                           
  9173                           ;lcd.c: 37:     }
  9174     1113  2929               	goto	l4323
  9175     1114                     l4321:
  9176                           
  9177                           ;lcd.c: 39:         *(lcd.PORT) &= ~(1 << lcd.D6);
  9178     1114  3001               	movlw	1
  9179     1115  00A0               	movwf	??_LCD_Out
  9180     1116  0874               	movf	_lcd+4,w
  9181     1117  3907               	andlw	7
  9182     1118  3E01               	addlw	1
  9183     1119  291C               	goto	u7144
  9184     111A                     u7145:
  9185     111A  1003               	clrc
  9186     111B  0DA0               	rlf	??_LCD_Out,f
  9187     111C                     u7144:
  9188     111C  3EFF               	addlw	-1
  9189     111D  1D03               	skipz
  9190     111E  291A               	goto	u7145
  9191     111F  0820               	movf	??_LCD_Out,w
  9192     1120  3AFF               	xorlw	255
  9193     1121  00FF               	movwf	btemp+1
  9194     1122  0870               	movf	_lcd,w
  9195     1123  0084               	movwf	4
  9196     1124  1783               	bsf	3,7
  9197     1125  1C71               	btfss	_lcd+1,0
  9198     1126  1383               	bcf	3,7
  9199     1127  087F               	movf	btemp+1,w
  9200     1128  0580               	andwf	0,f
  9201     1129                     l4323:
  9202                           
  9203                           ;lcd.c: 42:     if ( c & 8 ) {
  9204     1129  1DA2               	btfss	LCD_Out@c,3
  9205     112A  292C               	goto	u7151
  9206     112B  292D               	goto	u7150
  9207     112C                     u7151:
  9208     112C  2945               	goto	l4327
  9209     112D                     u7150:
  9210     112D                     l4325:
  9211                           
  9212                           ;lcd.c: 43:          *(lcd.PORT) |= 1 << lcd.D7;
  9213     112D  3001               	movlw	1
  9214     112E  00A0               	movwf	??_LCD_Out
  9215     112F  0C74               	rrf	_lcd+4,w
  9216     1130  00A1               	movwf	??_LCD_Out+1
  9217     1131  0CA1               	rrf	??_LCD_Out+1,f
  9218     1132  0C21               	rrf	??_LCD_Out+1,w
  9219     1133  3907               	andlw	7
  9220     1134  3E01               	addlw	1
  9221     1135  2938               	goto	u7164
  9222     1136                     u7165:
  9223     1136  1003               	clrc
  9224     1137  0DA0               	rlf	??_LCD_Out,f
  9225     1138                     u7164:
  9226     1138  3EFF               	addlw	-1
  9227     1139  1D03               	skipz
  9228     113A  2936               	goto	u7165
  9229     113B  0820               	movf	??_LCD_Out,w
  9230     113C  00FF               	movwf	btemp+1
  9231     113D  0870               	movf	_lcd,w
  9232     113E  0084               	movwf	4
  9233     113F  1783               	bsf	3,7
  9234     1140  1C71               	btfss	_lcd+1,0
  9235     1141  1383               	bcf	3,7
  9236     1142  087F               	movf	btemp+1,w
  9237     1143  0480               	iorwf	0,f
  9238                           
  9239                           ;lcd.c: 44:     }
  9240     1144  295D               	goto	l35
  9241     1145                     l4327:
  9242                           
  9243                           ;lcd.c: 46:          *(lcd.PORT) &= ~(1 << lcd.D7);
  9244     1145  3001               	movlw	1
  9245     1146  00A0               	movwf	??_LCD_Out
  9246     1147  0C74               	rrf	_lcd+4,w
  9247     1148  00A1               	movwf	??_LCD_Out+1
  9248     1149  0CA1               	rrf	??_LCD_Out+1,f
  9249     114A  0C21               	rrf	??_LCD_Out+1,w
  9250     114B  3907               	andlw	7
  9251     114C  3E01               	addlw	1
  9252     114D  2950               	goto	u7174
  9253     114E                     u7175:
  9254     114E  1003               	clrc
  9255     114F  0DA0               	rlf	??_LCD_Out,f
  9256     1150                     u7174:
  9257     1150  3EFF               	addlw	-1
  9258     1151  1D03               	skipz
  9259     1152  294E               	goto	u7175
  9260     1153  0820               	movf	??_LCD_Out,w
  9261     1154  3AFF               	xorlw	255
  9262     1155  00FF               	movwf	btemp+1
  9263     1156  0870               	movf	_lcd,w
  9264     1157  0084               	movwf	4
  9265     1158  1783               	bsf	3,7
  9266     1159  1C71               	btfss	_lcd+1,0
  9267     115A  1383               	bcf	3,7
  9268     115B  087F               	movf	btemp+1,w
  9269     115C  0580               	andwf	0,f
  9270     115D                     l35:
  9271     115D  0008               	return
  9272     115E                     __end_of_LCD_Out:
  9273                           
  9274                           	psect	text35
  9275     1D7F                     __ptext35:	
  9276 ;; *************** function _ISR *****************
  9277 ;; Defined at:
  9278 ;;		line 72 in file "ECU.c"
  9279 ;; Parameters:    Size  Location     Type
  9280 ;;		None
  9281 ;; Auto vars:     Size  Location     Type
  9282 ;;		None
  9283 ;; Return value:  Size  Location     Type
  9284 ;;                  1    wreg      void 
  9285 ;; Registers used:
  9286 ;;		wreg, status,2, status,0
  9287 ;; Tracked objects:
  9288 ;;		On entry : 0/0
  9289 ;;		On exit  : 0/0
  9290 ;;		Unchanged: 0/0
  9291 ;; Data sizes:     COMMON   BANK0   BANK1   BANK3   BANK2
  9292 ;;      Params:         0       0       0       0       0
  9293 ;;      Locals:         0       0       0       0       0
  9294 ;;      Temps:          5       0       0       0       0
  9295 ;;      Totals:         5       0       0       0       0
  9296 ;;Total ram usage:        5 bytes
  9297 ;; Hardware stack levels used: 1
  9298 ;; This function calls:
  9299 ;;		Nothing
  9300 ;; This function is called by:
  9301 ;;		Interrupt level 1
  9302 ;; This function uses a non-reentrant model
  9303 ;;
  9304                           
  9305     1D7F                     _ISR:	
  9306                           ;psect for function _ISR
  9307                           
  9308     1D7F                     i1l3463:
  9309                           
  9310                           ;ECU.c: 73:     if (INTCONbits.INTF) {
  9311     1D7F  1C8B               	btfss	11,1	;volatile
  9312     1D80  2D82               	goto	u532_21
  9313     1D81  2D83               	goto	u532_20
  9314     1D82                     u532_21:
  9315     1D82  2D8E               	goto	i1l3469
  9316     1D83                     u532_20:
  9317     1D83                     i1l3465:
  9318                           
  9319                           ;ECU.c: 74:         mode = !mode;
  9320     1D83  1683               	bsf	3,5	;RP0=1, select bank3
  9321     1D84  1703               	bsf	3,6	;RP1=1, select bank3
  9322     1D85  084A               	movf	_mode^(0+384),w	;volatile
  9323     1D86  1903               	btfsc	3,2
  9324     1D87  2D89               	goto	u533_21
  9325     1D88  2D8B               	goto	u533_20
  9326     1D89                     u533_21:
  9327     1D89  3001               	movlw	1
  9328     1D8A  2D8C               	goto	u534_20
  9329     1D8B                     u533_20:
  9330     1D8B  3000               	movlw	0
  9331     1D8C                     u534_20:
  9332     1D8C  00CA               	movwf	_mode^(0+384)	;volatile
  9333     1D8D                     i1l3467:
  9334                           
  9335                           ;ECU.c: 75:         INTCONbits.INTF = 0;
  9336     1D8D  108B               	bcf	11,1	;volatile
  9337     1D8E                     i1l3469:
  9338                           
  9339                           ;ECU.c: 78:     if (PIR1bits.TMR1IF) {
  9340     1D8E  1283               	bcf	3,5	;RP0=0, select bank0
  9341     1D8F  1303               	bcf	3,6	;RP1=0, select bank0
  9342     1D90  1C0C               	btfss	12,0	;volatile
  9343     1D91  2D93               	goto	u535_21
  9344     1D92  2D94               	goto	u535_20
  9345     1D93                     u535_21:
  9346     1D93  2DF9               	goto	i1l158
  9347     1D94                     u535_20:
  9348     1D94                     i1l3471:
  9349                           
  9350                           ;ECU.c: 79:         PIR1bits.TMR1IF = 0;
  9351     1D94  100C               	bcf	12,0	;volatile
  9352     1D95                     i1l3473:
  9353                           
  9354                           ;ECU.c: 80:         TMR1L = 0xDC;
  9355     1D95  30DC               	movlw	220
  9356     1D96  008E               	movwf	14	;volatile
  9357                           
  9358                           ;ECU.c: 81:         TMR1H = 0x0B;
  9359     1D97  300B               	movlw	11
  9360     1D98  008F               	movwf	15	;volatile
  9361     1D99                     i1l3475:
  9362                           
  9363                           ;ECU.c: 83:         if (turbo_active) {
  9364     1D99  1683               	bsf	3,5	;RP0=1, select bank3
  9365     1D9A  1703               	bsf	3,6	;RP1=1, select bank3
  9366     1D9B  0849               	movf	_turbo_active^(0+384),w	;volatile
  9367     1D9C  1903               	btfsc	3,2
  9368     1D9D  2D9F               	goto	u536_21
  9369     1D9E  2DA0               	goto	u536_20
  9370     1D9F                     u536_21:
  9371     1D9F  2DCF               	goto	i1l3487
  9372     1DA0                     u536_20:
  9373     1DA0                     i1l3477:
  9374                           
  9375                           ;ECU.c: 84:             turbo_timer++;
  9376     1DA0  3001               	movlw	1
  9377     1DA1  07C3               	addwf	_turbo_timer^(0+384),f	;volatile
  9378     1DA2  3000               	movlw	0
  9379     1DA3  1803               	skipnc
  9380     1DA4  3001               	movlw	1
  9381     1DA5  07C4               	addwf	(_turbo_timer+1)^(0+384),f	;volatile
  9382     1DA6  3000               	movlw	0
  9383     1DA7  1803               	skipnc
  9384     1DA8  3001               	movlw	1
  9385     1DA9  07C5               	addwf	(_turbo_timer+2)^(0+384),f	;volatile
  9386     1DAA  3000               	movlw	0
  9387     1DAB  1803               	skipnc
  9388     1DAC  3001               	movlw	1
  9389     1DAD  07C6               	addwf	(_turbo_timer+3)^(0+384),f	;volatile
  9390     1DAE                     i1l3479:
  9391                           
  9392                           ;ECU.c: 85:             if (turbo_timer >= 20) {
  9393     1DAE  0846               	movf	(_turbo_timer+3)^(0+384),w	;volatile
  9394     1DAF  1D03               	btfss	3,2
  9395     1DB0  2DBF               	goto	u537_20
  9396     1DB1  0845               	movf	(_turbo_timer+2)^(0+384),w	;volatile
  9397     1DB2  1D03               	btfss	3,2
  9398     1DB3  2DBF               	goto	u537_20
  9399     1DB4  0844               	movf	(_turbo_timer+1)^(0+384),w	;volatile
  9400     1DB5  1D03               	btfss	3,2
  9401     1DB6  2DBF               	goto	u537_20
  9402     1DB7  3014               	movlw	20
  9403     1DB8  0243               	subwf	_turbo_timer^(0+384),w	;volatile
  9404     1DB9  1D03               	skipz
  9405     1DBA  2DBB               	goto	u537_23
  9406     1DBB                     u537_23:
  9407     1DBB  1C03               	btfss	3,0
  9408     1DBC  2DBE               	goto	u537_21
  9409     1DBD  2DBF               	goto	u537_20
  9410     1DBE                     u537_21:
  9411     1DBE  2DF9               	goto	i1l158
  9412     1DBF                     u537_20:
  9413     1DBF                     i1l3481:
  9414                           
  9415                           ;ECU.c: 86:                 turbo_active = 0;
  9416     1DBF  1683               	bsf	3,5	;RP0=1, select bank3
  9417     1DC0  1703               	bsf	3,6	;RP1=1, select bank3
  9418     1DC1  01C9               	clrf	_turbo_active^(0+384)	;volatile
  9419     1DC2                     i1l3483:
  9420                           
  9421                           ;ECU.c: 87:                 turbo_timer = 0;
  9422     1DC2  3000               	movlw	0
  9423     1DC3  00C6               	movwf	(_turbo_timer+3)^(0+384)	;volatile
  9424     1DC4  3000               	movlw	0
  9425     1DC5  00C5               	movwf	(_turbo_timer+2)^(0+384)	;volatile
  9426     1DC6  3000               	movlw	0
  9427     1DC7  00C4               	movwf	(_turbo_timer+1)^(0+384)	;volatile
  9428     1DC8  3000               	movlw	0
  9429     1DC9  00C3               	movwf	_turbo_timer^(0+384)	;volatile
  9430     1DCA                     i1l3485:
  9431                           
  9432                           ;ECU.c: 88:                 timer_counter = 10;
  9433     1DCA  300A               	movlw	10
  9434     1DCB  00C7               	movwf	_timer_counter^(0+384)	;volatile
  9435     1DCC  3000               	movlw	0
  9436     1DCD  00C8               	movwf	(_timer_counter^(0+384)+1)	;volatile
  9437     1DCE  2DF9               	goto	i1l158
  9438     1DCF                     i1l3487:
  9439     1DCF  0847               	movf	_timer_counter^(0+384),w	;volatile
  9440     1DD0  0448               	iorwf	(_timer_counter+1)^(0+384),w	;volatile
  9441     1DD1  1903               	btfsc	3,2
  9442     1DD2  2DD4               	goto	u538_21
  9443     1DD3  2DD5               	goto	u538_20
  9444     1DD4                     u538_21:
  9445     1DD4  2DF9               	goto	i1l158
  9446     1DD5                     u538_20:
  9447     1DD5                     i1l3489:
  9448                           
  9449                           ;ECU.c: 91:             timer_counter--;
  9450     1DD5  3001               	movlw	1
  9451     1DD6  02C7               	subwf	_timer_counter^(0+384),f	;volatile
  9452     1DD7  3000               	movlw	0
  9453     1DD8  1C03               	skipc
  9454     1DD9  03C8               	decf	(_timer_counter+1)^(0+384),f	;volatile
  9455     1DDA  02C8               	subwf	(_timer_counter+1)^(0+384),f	;volatile
  9456                           
  9457                           ;ECU.c: 92:             RC4 = !RC4;
  9458     1DDB  3010               	movlw	16
  9459     1DDC  1283               	bcf	3,5	;RP0=0, select bank0
  9460     1DDD  1303               	bcf	3,6	;RP1=0, select bank0
  9461     1DDE  0687               	xorwf	7,f
  9462                           
  9463                           ;ECU.c: 93:             _delay((unsigned long)((500)*(4000000/4000.0)));
  9464     1DDF  3003               	movlw	3
  9465     1DE0  00F7               	movwf	??_ISR+2
  9466     1DE1  308A               	movlw	138
  9467     1DE2  00F6               	movwf	??_ISR+1
  9468     1DE3  3055               	movlw	85
  9469     1DE4  00F5               	movwf	??_ISR
  9470     1DE5                     u771_27:
  9471     1DE5  0BF5               	decfsz	??_ISR,f
  9472     1DE6  2DE5               	goto	u771_27
  9473     1DE7  0BF6               	decfsz	??_ISR+1,f
  9474     1DE8  2DE5               	goto	u771_27
  9475     1DE9  0BF7               	decfsz	??_ISR+2,f
  9476     1DEA  2DE5               	goto	u771_27
  9477     1DEB  2DEC               	nop2
  9478     1DEC                     i1l3491:
  9479                           
  9480                           ;ECU.c: 94:             if (timer_counter == 0) {
  9481     1DEC  1683               	bsf	3,5	;RP0=1, select bank3
  9482     1DED  1703               	bsf	3,6	;RP1=1, select bank3
  9483     1DEE  0847               	movf	_timer_counter^(0+384),w	;volatile
  9484     1DEF  0448               	iorwf	(_timer_counter+1)^(0+384),w	;volatile
  9485     1DF0  1D03               	btfss	3,2
  9486     1DF1  2DF3               	goto	u539_21
  9487     1DF2  2DF4               	goto	u539_20
  9488     1DF3                     u539_21:
  9489     1DF3  2DF9               	goto	i1l155
  9490     1DF4                     u539_20:
  9491     1DF4                     i1l3493:
  9492                           
  9493                           ;ECU.c: 95:                 mode = 0;
  9494     1DF4  01CA               	clrf	_mode^(0+384)	;volatile
  9495     1DF5                     i1l3495:
  9496                           
  9497                           ;ECU.c: 96:                 RC4 = 0;
  9498     1DF5  1283               	bcf	3,5	;RP0=0, select bank0
  9499     1DF6  1303               	bcf	3,6	;RP1=0, select bank0
  9500     1DF7  1207               	bcf	7,4	;volatile
  9501     1DF8  2DF9               	goto	i1l158
  9502     1DF9                     i1l155:
  9503     1DF9                     i1l158:
  9504     1DF9  0879               	movf	??_ISR+4,w
  9505     1DFA  008A               	movwf	10
  9506     1DFB  0E78               	swapf	??_ISR+3,w
  9507     1DFC  0083               	movwf	3
  9508     1DFD  0EFE               	swapf	btemp,f
  9509     1DFE  0E7E               	swapf	btemp,w
  9510     1DFF  0009               	retfie
  9511     1E00                     __end_of_ISR:
  9512     007E                     btemp	set	126	;btemp
  9513     007E                     wtemp0	set	126
  9514                           
  9515                           	psect	intentry
  9516     0004                     __pintentry:	
  9517                           ;incstack = 0
  9518 ;; hardware stack exceeded
  9519                           ; Regs used in _ISR: [wreg+status,2+status,0]
  9520                           
  9521     0004                     interrupt_function:
  9522     007E                     saved_w	set	btemp
  9523     0004  00FE               	movwf	btemp
  9524     0005  0E03               	swapf	3,w
  9525     0006  00F8               	movwf	??_ISR+3
  9526     0007  080A               	movf	10,w
  9527     0008  00F9               	movwf	??_ISR+4
  9528     0009  160A  158A  2D7F   	ljmp	_ISR
  9529                           
  9530                           	psect	config
  9531                           
  9532                           ;Config register CONFIG @ 0x2007
  9533                           ;	Oscillator Selection bits
  9534                           ;	FOSC = HS, HS oscillator
  9535                           ;	Watchdog Timer Enable bit
  9536                           ;	WDTE = OFF, WDT disabled
  9537                           ;	Power-up Timer Enable bit
  9538                           ;	PWRTE = OFF, PWRT disabled
  9539                           ;	Brown-out Reset Enable bit
  9540                           ;	BOREN = ON, BOR enabled
  9541                           ;	Low-Voltage (Single-Supply) In-Circuit Serial Programming Enable bit
  9542                           ;	LVP = OFF, RB3 is digital I/O, HV on MCLR must be used for programming
  9543                           ;	Data EEPROM Memory Code Protection bit
  9544                           ;	CPD = OFF, Data EEPROM code protection off
  9545                           ;	Flash Program Memory Write Enable bits
  9546                           ;	WRT = OFF, Write protection off; all program memory may be written to by EECON control
  9547                           ;	In-Circuit Debugger Mode bit
  9548                           ;	DEBUG = 0x1, unprogrammed default
  9549                           ;	Flash Program Memory Code Protection bit
  9550                           ;	CP = OFF, Code protection off
  9551     2007                     	org	8199
  9552     2007  3F7A               	dw	16250
  9553                           
  9554                           	psect	text6_split_1
  9555     0823                     l4131:
  9556                           
  9557                           ;C:\Program Files\Microchip\xc8\v2.46\pic\sources\c99\common\doprnt.c: 657:     u.f = 1.
      +                          0;
  9558     0823  303F               	movlw	63
  9559     0824  1683               	bsf	3,5	;RP0=1, select bank1
  9560     0825  1303               	bcf	3,6	;RP1=0, select bank1
  9561     0826  00D5               	movwf	(efgtoa@u+3)^(0+128)
  9562     0827  3080               	movlw	128
  9563     0828  00D4               	movwf	(efgtoa@u+2)^(0+128)
  9564     0829  3000               	movlw	0
  9565     082A  00D3               	movwf	(efgtoa@u+1)^(0+128)
  9566     082B  3000               	movlw	0
  9567     082C  00D2               	movwf	efgtoa@u^(0+128)
  9568     082D                     l4133:
  9569                           
  9570                           ;C:\Program Files\Microchip\xc8\v2.46\pic\sources\c99\common\doprnt.c: 658:     e = 0;
  9571     082D  01B9               	clrf	efgtoa@e^(0+128)
  9572     082E  01BA               	clrf	(efgtoa@e+1)^(0+128)
  9573     082F                     l4135:
  9574                           
  9575                           ;C:\Program Files\Microchip\xc8\v2.46\pic\sources\c99\common\doprnt.c: 659:  if (!(g.f =
      +                          = 0.0)) {
  9576     082F  084F               	movf	(efgtoa@g+3)^(0+128),w
  9577     0830  1283               	bcf	3,5	;RP0=0, select bank0
  9578     0831  1303               	bcf	3,6	;RP1=0, select bank0
  9579     0832  00A3               	movwf	___fleq@ff1+3
  9580     0833  1683               	bsf	3,5	;RP0=1, select bank1
  9581     0834  1303               	bcf	3,6	;RP1=0, select bank1
  9582     0835  084E               	movf	(efgtoa@g+2)^(0+128),w
  9583     0836  1283               	bcf	3,5	;RP0=0, select bank0
  9584     0837  1303               	bcf	3,6	;RP1=0, select bank0
  9585     0838  00A2               	movwf	___fleq@ff1+2
  9586     0839  1683               	bsf	3,5	;RP0=1, select bank1
  9587     083A  1303               	bcf	3,6	;RP1=0, select bank1
  9588     083B  084D               	movf	(efgtoa@g+1)^(0+128),w
  9589     083C  1283               	bcf	3,5	;RP0=0, select bank0
  9590     083D  1303               	bcf	3,6	;RP1=0, select bank0
  9591     083E  00A1               	movwf	___fleq@ff1+1
  9592     083F  1683               	bsf	3,5	;RP0=1, select bank1
  9593     0840  1303               	bcf	3,6	;RP1=0, select bank1
  9594     0841  084C               	movf	efgtoa@g^(0+128),w
  9595     0842  1283               	bcf	3,5	;RP0=0, select bank0
  9596     0843  1303               	bcf	3,6	;RP1=0, select bank0
  9597     0844  00A0               	movwf	___fleq@ff1
  9598     0845  3000               	movlw	0
  9599     0846  00A7               	movwf	___fleq@ff2+3
  9600     0847  3000               	movlw	0
  9601     0848  00A6               	movwf	___fleq@ff2+2
  9602     0849  3000               	movlw	0
  9603     084A  00A5               	movwf	___fleq@ff2+1
  9604     084B  3000               	movlw	0
  9605     084C  00A4               	movwf	___fleq@ff2
  9606     084D  160A  158A  23A3  120A  158A  	fcall	___fleq
  9607     0852  1803               	btfsc	3,0
  9608     0853  2855               	goto	u6761
  9609     0854  2856               	goto	u6760
  9610     0855                     u6761:
  9611     0855  2A4F               	goto	l4161
  9612     0856                     u6760:
  9613     0856  2867               	goto	l4141
  9614     0857                     l4139:
  9615                           
  9616                           ;C:\Program Files\Microchip\xc8\v2.46\pic\sources\c99\common\doprnt.c: 661:    u = ou;
  9617     0857  1683               	bsf	3,5	;RP0=1, select bank1
  9618     0858  1303               	bcf	3,6	;RP1=0, select bank1
  9619     0859  0840               	movf	(efgtoa@ou+3)^(0+128),w
  9620     085A  00D5               	movwf	(efgtoa@u+3)^(0+128)
  9621     085B  083F               	movf	(efgtoa@ou+2)^(0+128),w
  9622     085C  00D4               	movwf	(efgtoa@u+2)^(0+128)
  9623     085D  083E               	movf	(efgtoa@ou+1)^(0+128),w
  9624     085E  00D3               	movwf	(efgtoa@u+1)^(0+128)
  9625     085F  083D               	movf	efgtoa@ou^(0+128),w
  9626     0860  00D2               	movwf	efgtoa@u^(0+128)
  9627                           
  9628                           ;C:\Program Files\Microchip\xc8\v2.46\pic\sources\c99\common\doprnt.c: 662:    ++e;
  9629     0861  3001               	movlw	1
  9630     0862  07B9               	addwf	efgtoa@e^(0+128),f
  9631     0863  1803               	skipnc
  9632     0864  0ABA               	incf	(efgtoa@e+1)^(0+128),f
  9633     0865  3000               	movlw	0
  9634     0866  07BA               	addwf	(efgtoa@e+1)^(0+128),f
  9635     0867                     l4141:
  9636                           
  9637                           ;C:\Program Files\Microchip\xc8\v2.46\pic\sources\c99\common\doprnt.c: 660:   while ((la
      +                          bs((g).u-((ou.f = u.f*10.0,ou)).u) <= 1) || g.f > ou.f) {
  9638     0867  3041               	movlw	65
  9639     0868  1283               	bcf	3,5	;RP0=0, select bank0
  9640     0869  1303               	bcf	3,6	;RP1=0, select bank0
  9641     086A  00CB               	movwf	___flmul@b+3
  9642     086B  3020               	movlw	32
  9643     086C  00CA               	movwf	___flmul@b+2
  9644     086D  3000               	movlw	0
  9645     086E  00C9               	movwf	___flmul@b+1
  9646     086F  3000               	movlw	0
  9647     0870  00C8               	movwf	___flmul@b
  9648     0871  1683               	bsf	3,5	;RP0=1, select bank1
  9649     0872  1303               	bcf	3,6	;RP1=0, select bank1
  9650     0873  0855               	movf	(efgtoa@u+3)^(0+128),w
  9651     0874  1283               	bcf	3,5	;RP0=0, select bank0
  9652     0875  1303               	bcf	3,6	;RP1=0, select bank0
  9653     0876  00CF               	movwf	___flmul@a+3
  9654     0877  1683               	bsf	3,5	;RP0=1, select bank1
  9655     0878  1303               	bcf	3,6	;RP1=0, select bank1
  9656     0879  0854               	movf	(efgtoa@u+2)^(0+128),w
  9657     087A  1283               	bcf	3,5	;RP0=0, select bank0
  9658     087B  1303               	bcf	3,6	;RP1=0, select bank0
  9659     087C  00CE               	movwf	___flmul@a+2
  9660     087D  1683               	bsf	3,5	;RP0=1, select bank1
  9661     087E  1303               	bcf	3,6	;RP1=0, select bank1
  9662     087F  0853               	movf	(efgtoa@u+1)^(0+128),w
  9663     0880  1283               	bcf	3,5	;RP0=0, select bank0
  9664     0881  1303               	bcf	3,6	;RP1=0, select bank0
  9665     0882  00CD               	movwf	___flmul@a+1
  9666     0883  1683               	bsf	3,5	;RP0=1, select bank1
  9667     0884  1303               	bcf	3,6	;RP1=0, select bank1
  9668     0885  0852               	movf	efgtoa@u^(0+128),w
  9669     0886  1283               	bcf	3,5	;RP0=0, select bank0
  9670     0887  1303               	bcf	3,6	;RP1=0, select bank0
  9671     0888  00CC               	movwf	___flmul@a
  9672     0889  120A  118A  2050  120A  158A  	fcall	___flmul
  9673     088E  1283               	bcf	3,5	;RP0=0, select bank0
  9674     088F  1303               	bcf	3,6	;RP1=0, select bank0
  9675     0890  084B               	movf	?___flmul+3,w
  9676     0891  1683               	bsf	3,5	;RP0=1, select bank1
  9677     0892  1303               	bcf	3,6	;RP1=0, select bank1
  9678     0893  00C0               	movwf	(efgtoa@ou+3)^(0+128)
  9679     0894  1283               	bcf	3,5	;RP0=0, select bank0
  9680     0895  1303               	bcf	3,6	;RP1=0, select bank0
  9681     0896  084A               	movf	?___flmul+2,w
  9682     0897  1683               	bsf	3,5	;RP0=1, select bank1
  9683     0898  1303               	bcf	3,6	;RP1=0, select bank1
  9684     0899  00BF               	movwf	(efgtoa@ou+2)^(0+128)
  9685     089A  1283               	bcf	3,5	;RP0=0, select bank0
  9686     089B  1303               	bcf	3,6	;RP1=0, select bank0
  9687     089C  0849               	movf	?___flmul+1,w
  9688     089D  1683               	bsf	3,5	;RP0=1, select bank1
  9689     089E  1303               	bcf	3,6	;RP1=0, select bank1
  9690     089F  00BE               	movwf	(efgtoa@ou+1)^(0+128)
  9691     08A0  1283               	bcf	3,5	;RP0=0, select bank0
  9692     08A1  1303               	bcf	3,6	;RP1=0, select bank0
  9693     08A2  0848               	movf	?___flmul,w
  9694     08A3  1683               	bsf	3,5	;RP0=1, select bank1
  9695     08A4  1303               	bcf	3,6	;RP1=0, select bank1
  9696     08A5  00BD               	movwf	efgtoa@ou^(0+128)
  9697     08A6                     l4143:
  9698     08A6  084C               	movf	efgtoa@g^(0+128),w
  9699     08A7  00A5               	movwf	??_efgtoa^(0+128)
  9700     08A8  084D               	movf	(efgtoa@g+1)^(0+128),w
  9701     08A9  00A6               	movwf	(??_efgtoa^(0+128)+1)
  9702     08AA  084E               	movf	(efgtoa@g+2)^(0+128),w
  9703     08AB  00A7               	movwf	(??_efgtoa^(0+128)+2)
  9704     08AC  084F               	movf	(efgtoa@g+3)^(0+128),w
  9705     08AD  00A8               	movwf	(??_efgtoa^(0+128)+3)
  9706     08AE  083D               	movf	efgtoa@ou^(0+128),w
  9707     08AF  02A5               	subwf	??_efgtoa^(0+128),f
  9708     08B0  083E               	movf	(efgtoa@ou+1)^(0+128),w
  9709     08B1  1C03               	skipc
  9710     08B2  0F3E               	incfsz	(efgtoa@ou+1)^(0+128),w
  9711     08B3  28B5               	goto	u6771
  9712     08B4  28B6               	goto	u6772
  9713     08B5                     u6771:
  9714     08B5  02A6               	subwf	(??_efgtoa^(0+128)+1),f
  9715     08B6                     u6772:
  9716     08B6  083F               	movf	(efgtoa@ou+2)^(0+128),w
  9717     08B7  1C03               	skipc
  9718     08B8  0F3F               	incfsz	(efgtoa@ou+2)^(0+128),w
  9719     08B9  28BB               	goto	u6773
  9720     08BA  28BC               	goto	u6774
  9721     08BB                     u6773:
  9722     08BB  02A7               	subwf	(??_efgtoa^(0+128)+2),f
  9723     08BC                     u6774:
  9724     08BC  0840               	movf	(efgtoa@ou+3)^(0+128),w
  9725     08BD  1C03               	skipc
  9726     08BE  0F40               	incfsz	(efgtoa@ou+3)^(0+128),w
  9727     08BF  28C1               	goto	u6775
  9728     08C0  28C2               	goto	u6776
  9729     08C1                     u6775:
  9730     08C1  02A8               	subwf	(??_efgtoa^(0+128)+3),f
  9731     08C2                     u6776:
  9732     08C2  0828               	movf	(??_efgtoa+3)^(0+128),w
  9733     08C3  1283               	bcf	3,5	;RP0=0, select bank0
  9734     08C4  1303               	bcf	3,6	;RP1=0, select bank0
  9735     08C5  00A3               	movwf	labs@a+3
  9736     08C6  1683               	bsf	3,5	;RP0=1, select bank1
  9737     08C7  1303               	bcf	3,6	;RP1=0, select bank1
  9738     08C8  0827               	movf	(??_efgtoa+2)^(0+128),w
  9739     08C9  1283               	bcf	3,5	;RP0=0, select bank0
  9740     08CA  1303               	bcf	3,6	;RP1=0, select bank0
  9741     08CB  00A2               	movwf	labs@a+2
  9742     08CC  1683               	bsf	3,5	;RP0=1, select bank1
  9743     08CD  1303               	bcf	3,6	;RP1=0, select bank1
  9744     08CE  0826               	movf	(??_efgtoa+1)^(0+128),w
  9745     08CF  1283               	bcf	3,5	;RP0=0, select bank0
  9746     08D0  1303               	bcf	3,6	;RP1=0, select bank0
  9747     08D1  00A1               	movwf	labs@a+1
  9748     08D2  1683               	bsf	3,5	;RP0=1, select bank1
  9749     08D3  1303               	bcf	3,6	;RP1=0, select bank1
  9750     08D4  0825               	movf	??_efgtoa^(0+128),w
  9751     08D5  1283               	bcf	3,5	;RP0=0, select bank0
  9752     08D6  1303               	bcf	3,6	;RP1=0, select bank0
  9753     08D7  00A0               	movwf	labs@a
  9754     08D8  160A  158A  2208  120A  158A  	fcall	_labs
  9755     08DD  1283               	bcf	3,5	;RP0=0, select bank0
  9756     08DE  1303               	bcf	3,6	;RP1=0, select bank0
  9757     08DF  1BA3               	btfsc	?_labs+3,7
  9758     08E0  28F1               	goto	u6781
  9759     08E1  0823               	movf	?_labs+3,w
  9760     08E2  1D03               	btfss	3,2
  9761     08E3  28F2               	goto	u6780
  9762     08E4  0822               	movf	?_labs+2,w
  9763     08E5  1D03               	btfss	3,2
  9764     08E6  28F2               	goto	u6780
  9765     08E7  0821               	movf	?_labs+1,w
  9766     08E8  1D03               	btfss	3,2
  9767     08E9  28F2               	goto	u6780
  9768     08EA  3002               	movlw	2
  9769     08EB  0220               	subwf	?_labs,w
  9770     08EC  1D03               	skipz
  9771     08ED  28EE               	goto	u6783
  9772     08EE                     u6783:
  9773     08EE  1C03               	btfss	3,0
  9774     08EF  28F1               	goto	u6781
  9775     08F0  28F2               	goto	u6780
  9776     08F1                     u6781:
  9777     08F1  2857               	goto	l4139
  9778     08F2                     u6780:
  9779     08F2                     l4145:
  9780     08F2  1683               	bsf	3,5	;RP0=1, select bank1
  9781     08F3  1303               	bcf	3,6	;RP1=0, select bank1
  9782     08F4  0840               	movf	(efgtoa@ou+3)^(0+128),w
  9783     08F5  1283               	bcf	3,5	;RP0=0, select bank0
  9784     08F6  1303               	bcf	3,6	;RP1=0, select bank0
  9785     08F7  00E5               	movwf	___flge@ff1+3
  9786     08F8  1683               	bsf	3,5	;RP0=1, select bank1
  9787     08F9  1303               	bcf	3,6	;RP1=0, select bank1
  9788     08FA  083F               	movf	(efgtoa@ou+2)^(0+128),w
  9789     08FB  1283               	bcf	3,5	;RP0=0, select bank0
  9790     08FC  1303               	bcf	3,6	;RP1=0, select bank0
  9791     08FD  00E4               	movwf	___flge@ff1+2
  9792     08FE  1683               	bsf	3,5	;RP0=1, select bank1
  9793     08FF  1303               	bcf	3,6	;RP1=0, select bank1
  9794     0900  083E               	movf	(efgtoa@ou+1)^(0+128),w
  9795     0901  1283               	bcf	3,5	;RP0=0, select bank0
  9796     0902  1303               	bcf	3,6	;RP1=0, select bank0
  9797     0903  00E3               	movwf	___flge@ff1+1
  9798     0904  1683               	bsf	3,5	;RP0=1, select bank1
  9799     0905  1303               	bcf	3,6	;RP1=0, select bank1
  9800     0906  083D               	movf	efgtoa@ou^(0+128),w
  9801     0907  1283               	bcf	3,5	;RP0=0, select bank0
  9802     0908  1303               	bcf	3,6	;RP1=0, select bank0
  9803     0909  00E2               	movwf	___flge@ff1
  9804     090A  1683               	bsf	3,5	;RP0=1, select bank1
  9805     090B  1303               	bcf	3,6	;RP1=0, select bank1
  9806     090C  084F               	movf	(efgtoa@g+3)^(0+128),w
  9807     090D  1283               	bcf	3,5	;RP0=0, select bank0
  9808     090E  1303               	bcf	3,6	;RP1=0, select bank0
  9809     090F  00E9               	movwf	___flge@ff2+3
  9810     0910  1683               	bsf	3,5	;RP0=1, select bank1
  9811     0911  1303               	bcf	3,6	;RP1=0, select bank1
  9812     0912  084E               	movf	(efgtoa@g+2)^(0+128),w
  9813     0913  1283               	bcf	3,5	;RP0=0, select bank0
  9814     0914  1303               	bcf	3,6	;RP1=0, select bank0
  9815     0915  00E8               	movwf	___flge@ff2+2
  9816     0916  1683               	bsf	3,5	;RP0=1, select bank1
  9817     0917  1303               	bcf	3,6	;RP1=0, select bank1
  9818     0918  084D               	movf	(efgtoa@g+1)^(0+128),w
  9819     0919  1283               	bcf	3,5	;RP0=0, select bank0
  9820     091A  1303               	bcf	3,6	;RP1=0, select bank0
  9821     091B  00E7               	movwf	___flge@ff2+1
  9822     091C  1683               	bsf	3,5	;RP0=1, select bank1
  9823     091D  1303               	bcf	3,6	;RP1=0, select bank1
  9824     091E  084C               	movf	efgtoa@g^(0+128),w
  9825     091F  1283               	bcf	3,5	;RP0=0, select bank0
  9826     0920  1303               	bcf	3,6	;RP1=0, select bank0
  9827     0921  00E6               	movwf	___flge@ff2
  9828     0922  160A  158A  26A2  120A  158A  	fcall	___flge
  9829     0927  1C03               	btfss	3,0
  9830     0928  292A               	goto	u6791
  9831     0929  292B               	goto	u6790
  9832     092A                     u6791:
  9833     092A  2857               	goto	l4139
  9834     092B                     u6790:
  9835     092B                     l4147:
  9836                           
  9837                           ;C:\Program Files\Microchip\xc8\v2.46\pic\sources\c99\common\doprnt.c: 664:   if ((labs(
      +                          (g).u-(u).u) <= 1)) {
  9838     092B  1683               	bsf	3,5	;RP0=1, select bank1
  9839     092C  1303               	bcf	3,6	;RP1=0, select bank1
  9840     092D  084C               	movf	efgtoa@g^(0+128),w
  9841     092E  00A5               	movwf	??_efgtoa^(0+128)
  9842     092F  084D               	movf	(efgtoa@g+1)^(0+128),w
  9843     0930  00A6               	movwf	(??_efgtoa^(0+128)+1)
  9844     0931  084E               	movf	(efgtoa@g+2)^(0+128),w
  9845     0932  00A7               	movwf	(??_efgtoa^(0+128)+2)
  9846     0933  084F               	movf	(efgtoa@g+3)^(0+128),w
  9847     0934  00A8               	movwf	(??_efgtoa^(0+128)+3)
  9848     0935  0852               	movf	efgtoa@u^(0+128),w
  9849     0936  02A5               	subwf	??_efgtoa^(0+128),f
  9850     0937  0853               	movf	(efgtoa@u+1)^(0+128),w
  9851     0938  1C03               	skipc
  9852     0939  0F53               	incfsz	(efgtoa@u+1)^(0+128),w
  9853     093A  293C               	goto	u6801
  9854     093B  293D               	goto	u6802
  9855     093C                     u6801:
  9856     093C  02A6               	subwf	(??_efgtoa^(0+128)+1),f
  9857     093D                     u6802:
  9858     093D  0854               	movf	(efgtoa@u+2)^(0+128),w
  9859     093E  1C03               	skipc
  9860     093F  0F54               	incfsz	(efgtoa@u+2)^(0+128),w
  9861     0940  2942               	goto	u6803
  9862     0941  2943               	goto	u6804
  9863     0942                     u6803:
  9864     0942  02A7               	subwf	(??_efgtoa^(0+128)+2),f
  9865     0943                     u6804:
  9866     0943  0855               	movf	(efgtoa@u+3)^(0+128),w
  9867     0944  1C03               	skipc
  9868     0945  0F55               	incfsz	(efgtoa@u+3)^(0+128),w
  9869     0946  2948               	goto	u6805
  9870     0947  2949               	goto	u6806
  9871     0948                     u6805:
  9872     0948  02A8               	subwf	(??_efgtoa^(0+128)+3),f
  9873     0949                     u6806:
  9874     0949  0828               	movf	(??_efgtoa+3)^(0+128),w
  9875     094A  1283               	bcf	3,5	;RP0=0, select bank0
  9876     094B  1303               	bcf	3,6	;RP1=0, select bank0
  9877     094C  00A3               	movwf	labs@a+3
  9878     094D  1683               	bsf	3,5	;RP0=1, select bank1
  9879     094E  1303               	bcf	3,6	;RP1=0, select bank1
  9880     094F  0827               	movf	(??_efgtoa+2)^(0+128),w
  9881     0950  1283               	bcf	3,5	;RP0=0, select bank0
  9882     0951  1303               	bcf	3,6	;RP1=0, select bank0
  9883     0952  00A2               	movwf	labs@a+2
  9884     0953  1683               	bsf	3,5	;RP0=1, select bank1
  9885     0954  1303               	bcf	3,6	;RP1=0, select bank1
  9886     0955  0826               	movf	(??_efgtoa+1)^(0+128),w
  9887     0956  1283               	bcf	3,5	;RP0=0, select bank0
  9888     0957  1303               	bcf	3,6	;RP1=0, select bank0
  9889     0958  00A1               	movwf	labs@a+1
  9890     0959  1683               	bsf	3,5	;RP0=1, select bank1
  9891     095A  1303               	bcf	3,6	;RP1=0, select bank1
  9892     095B  0825               	movf	??_efgtoa^(0+128),w
  9893     095C  1283               	bcf	3,5	;RP0=0, select bank0
  9894     095D  1303               	bcf	3,6	;RP1=0, select bank0
  9895     095E  00A0               	movwf	labs@a
  9896     095F  160A  158A  2208  120A  158A  	fcall	_labs
  9897     0964  1283               	bcf	3,5	;RP0=0, select bank0
  9898     0965  1303               	bcf	3,6	;RP1=0, select bank0
  9899     0966  1BA3               	btfsc	?_labs+3,7
  9900     0967  2979               	goto	u6810
  9901     0968  0823               	movf	?_labs+3,w
  9902     0969  1D03               	btfss	3,2
  9903     096A  2978               	goto	u6811
  9904     096B  0822               	movf	?_labs+2,w
  9905     096C  1D03               	btfss	3,2
  9906     096D  2978               	goto	u6811
  9907     096E  0821               	movf	?_labs+1,w
  9908     096F  1D03               	btfss	3,2
  9909     0970  2978               	goto	u6811
  9910     0971  3002               	movlw	2
  9911     0972  0220               	subwf	?_labs,w
  9912     0973  1D03               	skipz
  9913     0974  2975               	goto	u6813
  9914     0975                     u6813:
  9915     0975  1803               	btfsc	3,0
  9916     0976  2978               	goto	u6811
  9917     0977  2979               	goto	u6810
  9918     0978                     u6811:
  9919     0978  2A16               	goto	l4159
  9920     0979                     u6810:
  9921     0979                     l4149:
  9922                           
  9923                           ;C:\Program Files\Microchip\xc8\v2.46\pic\sources\c99\common\doprnt.c: 665:    g = u;
  9924     0979  1683               	bsf	3,5	;RP0=1, select bank1
  9925     097A  1303               	bcf	3,6	;RP1=0, select bank1
  9926     097B  0855               	movf	(efgtoa@u+3)^(0+128),w
  9927     097C  00CF               	movwf	(efgtoa@g+3)^(0+128)
  9928     097D  0854               	movf	(efgtoa@u+2)^(0+128),w
  9929     097E  00CE               	movwf	(efgtoa@g+2)^(0+128)
  9930     097F  0853               	movf	(efgtoa@u+1)^(0+128),w
  9931     0980  00CD               	movwf	(efgtoa@g+1)^(0+128)
  9932     0981  0852               	movf	efgtoa@u^(0+128),w
  9933     0982  00CC               	movwf	efgtoa@g^(0+128)
  9934                           
  9935                           ;C:\Program Files\Microchip\xc8\v2.46\pic\sources\c99\common\doprnt.c: 666:   }
  9936     0983  2A4F               	goto	l4161
  9937     0984                     l4151:
  9938                           
  9939                           ;C:\Program Files\Microchip\xc8\v2.46\pic\sources\c99\common\doprnt.c: 669:     u.f = u.
      +                          f/10.0;
  9940     0984  3041               	movlw	65
  9941     0985  1283               	bcf	3,5	;RP0=0, select bank0
  9942     0986  1303               	bcf	3,6	;RP1=0, select bank0
  9943     0987  00B1               	movwf	___fldiv@a+3
  9944     0988  3020               	movlw	32
  9945     0989  00B0               	movwf	___fldiv@a+2
  9946     098A  3000               	movlw	0
  9947     098B  00AF               	movwf	___fldiv@a+1
  9948     098C  3000               	movlw	0
  9949     098D  00AE               	movwf	___fldiv@a
  9950     098E  1683               	bsf	3,5	;RP0=1, select bank1
  9951     098F  1303               	bcf	3,6	;RP1=0, select bank1
  9952     0990  0855               	movf	(efgtoa@u+3)^(0+128),w
  9953     0991  1283               	bcf	3,5	;RP0=0, select bank0
  9954     0992  1303               	bcf	3,6	;RP1=0, select bank0
  9955     0993  00B5               	movwf	___fldiv@b+3
  9956     0994  1683               	bsf	3,5	;RP0=1, select bank1
  9957     0995  1303               	bcf	3,6	;RP1=0, select bank1
  9958     0996  0854               	movf	(efgtoa@u+2)^(0+128),w
  9959     0997  1283               	bcf	3,5	;RP0=0, select bank0
  9960     0998  1303               	bcf	3,6	;RP1=0, select bank0
  9961     0999  00B4               	movwf	___fldiv@b+2
  9962     099A  1683               	bsf	3,5	;RP0=1, select bank1
  9963     099B  1303               	bcf	3,6	;RP1=0, select bank1
  9964     099C  0853               	movf	(efgtoa@u+1)^(0+128),w
  9965     099D  1283               	bcf	3,5	;RP0=0, select bank0
  9966     099E  1303               	bcf	3,6	;RP1=0, select bank0
  9967     099F  00B3               	movwf	___fldiv@b+1
  9968     09A0  1683               	bsf	3,5	;RP0=1, select bank1
  9969     09A1  1303               	bcf	3,6	;RP1=0, select bank1
  9970     09A2  0852               	movf	efgtoa@u^(0+128),w
  9971     09A3  1283               	bcf	3,5	;RP0=0, select bank0
  9972     09A4  1303               	bcf	3,6	;RP1=0, select bank0
  9973     09A5  00B2               	movwf	___fldiv@b
  9974     09A6  120A  118A  25ED  120A  158A  	fcall	___fldiv
  9975     09AB  1283               	bcf	3,5	;RP0=0, select bank0
  9976     09AC  1303               	bcf	3,6	;RP1=0, select bank0
  9977     09AD  0831               	movf	?___fldiv+3,w
  9978     09AE  1683               	bsf	3,5	;RP0=1, select bank1
  9979     09AF  1303               	bcf	3,6	;RP1=0, select bank1
  9980     09B0  00D5               	movwf	(efgtoa@u+3)^(0+128)
  9981     09B1  1283               	bcf	3,5	;RP0=0, select bank0
  9982     09B2  1303               	bcf	3,6	;RP1=0, select bank0
  9983     09B3  0830               	movf	?___fldiv+2,w
  9984     09B4  1683               	bsf	3,5	;RP0=1, select bank1
  9985     09B5  1303               	bcf	3,6	;RP1=0, select bank1
  9986     09B6  00D4               	movwf	(efgtoa@u+2)^(0+128)
  9987     09B7  1283               	bcf	3,5	;RP0=0, select bank0
  9988     09B8  1303               	bcf	3,6	;RP1=0, select bank0
  9989     09B9  082F               	movf	?___fldiv+1,w
  9990     09BA  1683               	bsf	3,5	;RP0=1, select bank1
  9991     09BB  1303               	bcf	3,6	;RP1=0, select bank1
  9992     09BC  00D3               	movwf	(efgtoa@u+1)^(0+128)
  9993     09BD  1283               	bcf	3,5	;RP0=0, select bank0
  9994     09BE  1303               	bcf	3,6	;RP1=0, select bank0
  9995     09BF  082E               	movf	?___fldiv,w
  9996     09C0  1683               	bsf	3,5	;RP0=1, select bank1
  9997     09C1  1303               	bcf	3,6	;RP1=0, select bank1
  9998     09C2  00D2               	movwf	efgtoa@u^(0+128)
  9999     09C3                     l4153:
 10000                           
 10001                           ;C:\Program Files\Microchip\xc8\v2.46\pic\sources\c99\common\doprnt.c: 670:     --e;
 10002     09C3  30FF               	movlw	255
 10003     09C4  07B9               	addwf	efgtoa@e^(0+128),f
 10004     09C5  1803               	skipnc
 10005     09C6  0ABA               	incf	(efgtoa@e+1)^(0+128),f
 10006     09C7  30FF               	movlw	255
 10007     09C8  07BA               	addwf	(efgtoa@e+1)^(0+128),f
 10008     09C9                     l4155:
 10009                           
 10010                           ;C:\Program Files\Microchip\xc8\v2.46\pic\sources\c99\common\doprnt.c: 671:     if ((lab
      +                          s((g).u-(u).u) <= 1)) {
 10011     09C9  084C               	movf	efgtoa@g^(0+128),w
 10012     09CA  00A5               	movwf	??_efgtoa^(0+128)
 10013     09CB  084D               	movf	(efgtoa@g+1)^(0+128),w
 10014     09CC  00A6               	movwf	(??_efgtoa^(0+128)+1)
 10015     09CD  084E               	movf	(efgtoa@g+2)^(0+128),w
 10016     09CE  00A7               	movwf	(??_efgtoa^(0+128)+2)
 10017     09CF  084F               	movf	(efgtoa@g+3)^(0+128),w
 10018     09D0  00A8               	movwf	(??_efgtoa^(0+128)+3)
 10019     09D1  0852               	movf	efgtoa@u^(0+128),w
 10020     09D2  02A5               	subwf	??_efgtoa^(0+128),f
 10021     09D3  0853               	movf	(efgtoa@u+1)^(0+128),w
 10022     09D4  1C03               	skipc
 10023     09D5  0F53               	incfsz	(efgtoa@u+1)^(0+128),w
 10024     09D6  29D8               	goto	u6821
 10025     09D7  29D9               	goto	u6822
 10026     09D8                     u6821:
 10027     09D8  02A6               	subwf	(??_efgtoa^(0+128)+1),f
 10028     09D9                     u6822:
 10029     09D9  0854               	movf	(efgtoa@u+2)^(0+128),w
 10030     09DA  1C03               	skipc
 10031     09DB  0F54               	incfsz	(efgtoa@u+2)^(0+128),w
 10032     09DC  29DE               	goto	u6823
 10033     09DD  29DF               	goto	u6824
 10034     09DE                     u6823:
 10035     09DE  02A7               	subwf	(??_efgtoa^(0+128)+2),f
 10036     09DF                     u6824:
 10037     09DF  0855               	movf	(efgtoa@u+3)^(0+128),w
 10038     09E0  1C03               	skipc
 10039     09E1  0F55               	incfsz	(efgtoa@u+3)^(0+128),w
 10040     09E2  29E4               	goto	u6825
 10041     09E3  29E5               	goto	u6826
 10042     09E4                     u6825:
 10043     09E4  02A8               	subwf	(??_efgtoa^(0+128)+3),f
 10044     09E5                     u6826:
 10045     09E5  0828               	movf	(??_efgtoa+3)^(0+128),w
 10046     09E6  1283               	bcf	3,5	;RP0=0, select bank0
 10047     09E7  1303               	bcf	3,6	;RP1=0, select bank0
 10048     09E8  00A3               	movwf	labs@a+3
 10049     09E9  1683               	bsf	3,5	;RP0=1, select bank1
 10050     09EA  1303               	bcf	3,6	;RP1=0, select bank1
 10051     09EB  0827               	movf	(??_efgtoa+2)^(0+128),w
 10052     09EC  1283               	bcf	3,5	;RP0=0, select bank0
 10053     09ED  1303               	bcf	3,6	;RP1=0, select bank0
 10054     09EE  00A2               	movwf	labs@a+2
 10055     09EF  1683               	bsf	3,5	;RP0=1, select bank1
 10056     09F0  1303               	bcf	3,6	;RP1=0, select bank1
 10057     09F1  0826               	movf	(??_efgtoa+1)^(0+128),w
 10058     09F2  1283               	bcf	3,5	;RP0=0, select bank0
 10059     09F3  1303               	bcf	3,6	;RP1=0, select bank0
 10060     09F4  00A1               	movwf	labs@a+1
 10061     09F5  1683               	bsf	3,5	;RP0=1, select bank1
 10062     09F6  1303               	bcf	3,6	;RP1=0, select bank1
 10063     09F7  0825               	movf	??_efgtoa^(0+128),w
 10064     09F8  1283               	bcf	3,5	;RP0=0, select bank0
 10065     09F9  1303               	bcf	3,6	;RP1=0, select bank0
 10066     09FA  00A0               	movwf	labs@a
 10067     09FB  160A  158A  2208  120A  158A  	fcall	_labs
 10068     0A00  1283               	bcf	3,5	;RP0=0, select bank0
 10069     0A01  1303               	bcf	3,6	;RP1=0, select bank0
 10070     0A02  1BA3               	btfsc	?_labs+3,7
 10071     0A03  2A15               	goto	u6830
 10072     0A04  0823               	movf	?_labs+3,w
 10073     0A05  1D03               	btfss	3,2
 10074     0A06  2A14               	goto	u6831
 10075     0A07  0822               	movf	?_labs+2,w
 10076     0A08  1D03               	btfss	3,2
 10077     0A09  2A14               	goto	u6831
 10078     0A0A  0821               	movf	?_labs+1,w
 10079     0A0B  1D03               	btfss	3,2
 10080     0A0C  2A14               	goto	u6831
 10081     0A0D  3002               	movlw	2
 10082     0A0E  0220               	subwf	?_labs,w
 10083     0A0F  1D03               	skipz
 10084     0A10  2A11               	goto	u6833
 10085     0A11                     u6833:
 10086     0A11  1803               	btfsc	3,0
 10087     0A12  2A14               	goto	u6831
 10088     0A13  2A15               	goto	u6830
 10089     0A14                     u6831:
 10090     0A14  2A16               	goto	l4159
 10091     0A15                     u6830:
 10092     0A15  2979               	goto	l4149
 10093     0A16                     l4159:
 10094                           
 10095                           ;C:\Program Files\Microchip\xc8\v2.46\pic\sources\c99\common\doprnt.c: 668:    while (g.
      +                          f < u.f) {
 10096     0A16  1683               	bsf	3,5	;RP0=1, select bank1
 10097     0A17  1303               	bcf	3,6	;RP1=0, select bank1
 10098     0A18  084F               	movf	(efgtoa@g+3)^(0+128),w
 10099     0A19  1283               	bcf	3,5	;RP0=0, select bank0
 10100     0A1A  1303               	bcf	3,6	;RP1=0, select bank0
 10101     0A1B  00E5               	movwf	___flge@ff1+3
 10102     0A1C  1683               	bsf	3,5	;RP0=1, select bank1
 10103     0A1D  1303               	bcf	3,6	;RP1=0, select bank1
 10104     0A1E  084E               	movf	(efgtoa@g+2)^(0+128),w
 10105     0A1F  1283               	bcf	3,5	;RP0=0, select bank0
 10106     0A20  1303               	bcf	3,6	;RP1=0, select bank0
 10107     0A21  00E4               	movwf	___flge@ff1+2
 10108     0A22  1683               	bsf	3,5	;RP0=1, select bank1
 10109     0A23  1303               	bcf	3,6	;RP1=0, select bank1
 10110     0A24  084D               	movf	(efgtoa@g+1)^(0+128),w
 10111     0A25  1283               	bcf	3,5	;RP0=0, select bank0
 10112     0A26  1303               	bcf	3,6	;RP1=0, select bank0
 10113     0A27  00E3               	movwf	___flge@ff1+1
 10114     0A28  1683               	bsf	3,5	;RP0=1, select bank1
 10115     0A29  1303               	bcf	3,6	;RP1=0, select bank1
 10116     0A2A  084C               	movf	efgtoa@g^(0+128),w
 10117     0A2B  1283               	bcf	3,5	;RP0=0, select bank0
 10118     0A2C  1303               	bcf	3,6	;RP1=0, select bank0
 10119     0A2D  00E2               	movwf	___flge@ff1
 10120     0A2E  1683               	bsf	3,5	;RP0=1, select bank1
 10121     0A2F  1303               	bcf	3,6	;RP1=0, select bank1
 10122     0A30  0855               	movf	(efgtoa@u+3)^(0+128),w
 10123     0A31  1283               	bcf	3,5	;RP0=0, select bank0
 10124     0A32  1303               	bcf	3,6	;RP1=0, select bank0
 10125     0A33  00E9               	movwf	___flge@ff2+3
 10126     0A34  1683               	bsf	3,5	;RP0=1, select bank1
 10127     0A35  1303               	bcf	3,6	;RP1=0, select bank1
 10128     0A36  0854               	movf	(efgtoa@u+2)^(0+128),w
 10129     0A37  1283               	bcf	3,5	;RP0=0, select bank0
 10130     0A38  1303               	bcf	3,6	;RP1=0, select bank0
 10131     0A39  00E8               	movwf	___flge@ff2+2
 10132     0A3A  1683               	bsf	3,5	;RP0=1, select bank1
 10133     0A3B  1303               	bcf	3,6	;RP1=0, select bank1
 10134     0A3C  0853               	movf	(efgtoa@u+1)^(0+128),w
 10135     0A3D  1283               	bcf	3,5	;RP0=0, select bank0
 10136     0A3E  1303               	bcf	3,6	;RP1=0, select bank0
 10137     0A3F  00E7               	movwf	___flge@ff2+1
 10138     0A40  1683               	bsf	3,5	;RP0=1, select bank1
 10139     0A41  1303               	bcf	3,6	;RP1=0, select bank1
 10140     0A42  0852               	movf	efgtoa@u^(0+128),w
 10141     0A43  1283               	bcf	3,5	;RP0=0, select bank0
 10142     0A44  1303               	bcf	3,6	;RP1=0, select bank0
 10143     0A45  00E6               	movwf	___flge@ff2
 10144     0A46  160A  158A  26A2  120A  158A  	fcall	___flge
 10145     0A4B  1C03               	btfss	3,0
 10146     0A4C  2A4E               	goto	u6841
 10147     0A4D  2A4F               	goto	u6840
 10148     0A4E                     u6841:
 10149     0A4E  2984               	goto	l4151
 10150     0A4F                     u6840:
 10151     0A4F                     l4161:
 10152                           
 10153                           ;C:\Program Files\Microchip\xc8\v2.46\pic\sources\c99\common\doprnt.c: 683:  mode = c;
 10154     0A4F  1683               	bsf	3,5	;RP0=1, select bank1
 10155     0A50  1303               	bcf	3,6	;RP1=0, select bank1
 10156     0A51  0824               	movf	efgtoa@c^(0+128),w
 10157     0A52  00B2               	movwf	efgtoa@mode^(0+128)
 10158                           
 10159                           ;C:\Program Files\Microchip\xc8\v2.46\pic\sources\c99\common\doprnt.c: 685:     nmode = 
      +                          mode;
 10160     0A53  0832               	movf	efgtoa@mode^(0+128),w
 10161     0A54  00B3               	movwf	efgtoa@nmode^(0+128)
 10162     0A55                     l4163:
 10163                           
 10164                           ;C:\Program Files\Microchip\xc8\v2.46\pic\sources\c99\common\doprnt.c: 695:  {;C:\Progra
      +                          m Files\Microchip\xc8\v2.46\pic\sources\c99\common\doprnt.c: 696:         p = (prec < 0)
      +                           ? 6 : prec;
 10165     0A55  1BEC               	btfsc	(_prec+1)^(0+128),7
 10166     0A56  2A58               	goto	u6851
 10167     0A57  2A59               	goto	u6850
 10168     0A58                     u6851:
 10169     0A58  2A5E               	goto	l4167
 10170     0A59                     u6850:
 10171     0A59                     l4165:
 10172     0A59  086C               	movf	(_prec+1)^(0+128),w
 10173     0A5A  00AC               	movwf	(efgtoa@p+1)^(0+128)
 10174     0A5B  086B               	movf	_prec^(0+128),w
 10175     0A5C  00AB               	movwf	efgtoa@p^(0+128)
 10176     0A5D  2A62               	goto	l818
 10177     0A5E                     l4167:
 10178     0A5E  3006               	movlw	6
 10179     0A5F  00AB               	movwf	efgtoa@p^(0+128)
 10180     0A60  3000               	movlw	0
 10181     0A61  00AC               	movwf	(efgtoa@p^(0+128)+1)
 10182     0A62                     l818:
 10183                           
 10184                           ;C:\Program Files\Microchip\xc8\v2.46\pic\sources\c99\common\doprnt.c: 697:     };C:\Pro
      +                          gram Files\Microchip\xc8\v2.46\pic\sources\c99\common\doprnt.c: 711:     m = p;
 10185     0A62  082C               	movf	(efgtoa@p+1)^(0+128),w
 10186     0A63  00B7               	movwf	(efgtoa@m+1)^(0+128)
 10187     0A64  082B               	movf	efgtoa@p^(0+128),w
 10188     0A65  00B6               	movwf	efgtoa@m^(0+128)
 10189                           
 10190                           ;C:\Program Files\Microchip\xc8\v2.46\pic\sources\c99\common\doprnt.c: 715:  {;C:\Progra
      +                          m Files\Microchip\xc8\v2.46\pic\sources\c99\common\doprnt.c: 716:         ++m;
 10191     0A66  3001               	movlw	1
 10192     0A67  07B6               	addwf	efgtoa@m^(0+128),f
 10193     0A68  1803               	skipnc
 10194     0A69  0AB7               	incf	(efgtoa@m+1)^(0+128),f
 10195     0A6A  3000               	movlw	0
 10196     0A6B  07B7               	addwf	(efgtoa@m+1)^(0+128),f
 10197     0A6C                     l4169:
 10198                           
 10199                           ;C:\Program Files\Microchip\xc8\v2.46\pic\sources\c99\common\doprnt.c: 717:     };C:\Pro
      +                          gram Files\Microchip\xc8\v2.46\pic\sources\c99\common\doprnt.c: 721:     if (nmode == 'f
      +                          ') {
 10200     0A6C  3066               	movlw	102
 10201     0A6D  0633               	xorwf	efgtoa@nmode^(0+128),w
 10202     0A6E  1D03               	btfss	3,2
 10203     0A6F  2A71               	goto	u6861
 10204     0A70  2A72               	goto	u6860
 10205     0A71                     u6861:
 10206     0A71  2A8C               	goto	l4181
 10207     0A72                     u6860:
 10208     0A72                     l4171:
 10209                           
 10210                           ;C:\Program Files\Microchip\xc8\v2.46\pic\sources\c99\common\doprnt.c: 722:         if (
      +                          e < 0) {
 10211     0A72  1FBA               	btfss	(efgtoa@e+1)^(0+128),7
 10212     0A73  2A75               	goto	u6871
 10213     0A74  2A76               	goto	u6870
 10214     0A75                     u6871:
 10215     0A75  2A80               	goto	l4177
 10216     0A76                     u6870:
 10217     0A76                     l4173:
 10218                           
 10219                           ;C:\Program Files\Microchip\xc8\v2.46\pic\sources\c99\common\doprnt.c: 723:             
      +                          u.f = 1.0;
 10220     0A76  303F               	movlw	63
 10221     0A77  00D5               	movwf	(efgtoa@u+3)^(0+128)
 10222     0A78  3080               	movlw	128
 10223     0A79  00D4               	movwf	(efgtoa@u+2)^(0+128)
 10224     0A7A  3000               	movlw	0
 10225     0A7B  00D3               	movwf	(efgtoa@u+1)^(0+128)
 10226     0A7C  3000               	movlw	0
 10227     0A7D  00D2               	movwf	efgtoa@u^(0+128)
 10228     0A7E                     l4175:
 10229                           
 10230                           ;C:\Program Files\Microchip\xc8\v2.46\pic\sources\c99\common\doprnt.c: 724:             
      +                          e = 0;
 10231     0A7E  01B9               	clrf	efgtoa@e^(0+128)
 10232     0A7F  01BA               	clrf	(efgtoa@e+1)^(0+128)
 10233     0A80                     l4177:
 10234                           
 10235                           ;C:\Program Files\Microchip\xc8\v2.46\pic\sources\c99\common\doprnt.c: 726:         if (
      +                          !(mode == 'g')) {
 10236     0A80  3067               	movlw	103
 10237     0A81  0632               	xorwf	efgtoa@mode^(0+128),w
 10238     0A82  1903               	btfsc	3,2
 10239     0A83  2A85               	goto	u6881
 10240     0A84  2A86               	goto	u6880
 10241     0A85                     u6881:
 10242     0A85  2A8C               	goto	l4181
 10243     0A86                     u6880:
 10244     0A86                     l4179:
 10245                           
 10246                           ;C:\Program Files\Microchip\xc8\v2.46\pic\sources\c99\common\doprnt.c: 727:             
      +                          m += e;
 10247     0A86  0839               	movf	efgtoa@e^(0+128),w
 10248     0A87  07B6               	addwf	efgtoa@m^(0+128),f
 10249     0A88  1803               	skipnc
 10250     0A89  0AB7               	incf	(efgtoa@m+1)^(0+128),f
 10251     0A8A  083A               	movf	(efgtoa@e+1)^(0+128),w
 10252     0A8B  07B7               	addwf	(efgtoa@m+1)^(0+128),f
 10253     0A8C                     l4181:
 10254                           
 10255                           ;C:\Program Files\Microchip\xc8\v2.46\pic\sources\c99\common\doprnt.c: 733:     i = 0;
 10256     0A8C  01C1               	clrf	efgtoa@i^(0+128)
 10257     0A8D  01C2               	clrf	(efgtoa@i+1)^(0+128)
 10258     0A8E                     l4183:
 10259                           
 10260                           ;C:\Program Files\Microchip\xc8\v2.46\pic\sources\c99\common\doprnt.c: 734:     h = g.f;
 10261     0A8E  084F               	movf	(efgtoa@g+3)^(0+128),w
 10262     0A8F  00C6               	movwf	(efgtoa@h+3)^(0+128)
 10263     0A90  084E               	movf	(efgtoa@g+2)^(0+128),w
 10264     0A91  00C5               	movwf	(efgtoa@h+2)^(0+128)
 10265     0A92  084D               	movf	(efgtoa@g+1)^(0+128),w
 10266     0A93  00C4               	movwf	(efgtoa@h+1)^(0+128)
 10267     0A94  084C               	movf	efgtoa@g^(0+128),w
 10268     0A95  00C3               	movwf	efgtoa@h^(0+128)
 10269     0A96                     l4185:
 10270                           
 10271                           ;C:\Program Files\Microchip\xc8\v2.46\pic\sources\c99\common\doprnt.c: 735:     ou = u;
 10272     0A96  0855               	movf	(efgtoa@u+3)^(0+128),w
 10273     0A97  00C0               	movwf	(efgtoa@ou+3)^(0+128)
 10274     0A98  0854               	movf	(efgtoa@u+2)^(0+128),w
 10275     0A99  00BF               	movwf	(efgtoa@ou+2)^(0+128)
 10276     0A9A  0853               	movf	(efgtoa@u+1)^(0+128),w
 10277     0A9B  00BE               	movwf	(efgtoa@ou+1)^(0+128)
 10278     0A9C  0852               	movf	efgtoa@u^(0+128),w
 10279     0A9D  00BD               	movwf	efgtoa@ou^(0+128)
 10280                           
 10281                           ;C:\Program Files\Microchip\xc8\v2.46\pic\sources\c99\common\doprnt.c: 736:     while (i
      +                           < m) {
 10282     0A9E  2BD9               	goto	l4191
 10283     0A9F                     l4187:
 10284                           
 10285                           ;C:\Program Files\Microchip\xc8\v2.46\pic\sources\c99\common\doprnt.c: 737:         l = 
      +                          floorf(h/u.f);
 10286     0A9F  1683               	bsf	3,5	;RP0=1, select bank1
 10287     0AA0  1303               	bcf	3,6	;RP1=0, select bank1
 10288     0AA1  0855               	movf	(efgtoa@u+3)^(0+128),w
 10289     0AA2  1283               	bcf	3,5	;RP0=0, select bank0
 10290     0AA3  1303               	bcf	3,6	;RP1=0, select bank0
 10291     0AA4  00B1               	movwf	___fldiv@a+3
 10292     0AA5  1683               	bsf	3,5	;RP0=1, select bank1
 10293     0AA6  1303               	bcf	3,6	;RP1=0, select bank1
 10294     0AA7  0854               	movf	(efgtoa@u+2)^(0+128),w
 10295     0AA8  1283               	bcf	3,5	;RP0=0, select bank0
 10296     0AA9  1303               	bcf	3,6	;RP1=0, select bank0
 10297     0AAA  00B0               	movwf	___fldiv@a+2
 10298     0AAB  1683               	bsf	3,5	;RP0=1, select bank1
 10299     0AAC  1303               	bcf	3,6	;RP1=0, select bank1
 10300     0AAD  0853               	movf	(efgtoa@u+1)^(0+128),w
 10301     0AAE  1283               	bcf	3,5	;RP0=0, select bank0
 10302     0AAF  1303               	bcf	3,6	;RP1=0, select bank0
 10303     0AB0  00AF               	movwf	___fldiv@a+1
 10304     0AB1  1683               	bsf	3,5	;RP0=1, select bank1
 10305     0AB2  1303               	bcf	3,6	;RP1=0, select bank1
 10306     0AB3  0852               	movf	efgtoa@u^(0+128),w
 10307     0AB4  1283               	bcf	3,5	;RP0=0, select bank0
 10308     0AB5  1303               	bcf	3,6	;RP1=0, select bank0
 10309     0AB6  00AE               	movwf	___fldiv@a
 10310     0AB7  1683               	bsf	3,5	;RP0=1, select bank1
 10311     0AB8  1303               	bcf	3,6	;RP1=0, select bank1
 10312     0AB9  0846               	movf	(efgtoa@h+3)^(0+128),w
 10313     0ABA  1283               	bcf	3,5	;RP0=0, select bank0
 10314     0ABB  1303               	bcf	3,6	;RP1=0, select bank0
 10315     0ABC  00B5               	movwf	___fldiv@b+3
 10316     0ABD  1683               	bsf	3,5	;RP0=1, select bank1
 10317     0ABE  1303               	bcf	3,6	;RP1=0, select bank1
 10318     0ABF  0845               	movf	(efgtoa@h+2)^(0+128),w
 10319     0AC0  1283               	bcf	3,5	;RP0=0, select bank0
 10320     0AC1  1303               	bcf	3,6	;RP1=0, select bank0
 10321     0AC2  00B4               	movwf	___fldiv@b+2
 10322     0AC3  1683               	bsf	3,5	;RP0=1, select bank1
 10323     0AC4  1303               	bcf	3,6	;RP1=0, select bank1
 10324     0AC5  0844               	movf	(efgtoa@h+1)^(0+128),w
 10325     0AC6  1283               	bcf	3,5	;RP0=0, select bank0
 10326     0AC7  1303               	bcf	3,6	;RP1=0, select bank0
 10327     0AC8  00B3               	movwf	___fldiv@b+1
 10328     0AC9  1683               	bsf	3,5	;RP0=1, select bank1
 10329     0ACA  1303               	bcf	3,6	;RP1=0, select bank1
 10330     0ACB  0843               	movf	efgtoa@h^(0+128),w
 10331     0ACC  1283               	bcf	3,5	;RP0=0, select bank0
 10332     0ACD  1303               	bcf	3,6	;RP1=0, select bank0
 10333     0ACE  00B2               	movwf	___fldiv@b
 10334     0ACF  120A  118A  25ED  120A  158A  	fcall	___fldiv
 10335     0AD4  1283               	bcf	3,5	;RP0=0, select bank0
 10336     0AD5  1303               	bcf	3,6	;RP1=0, select bank0
 10337     0AD6  0831               	movf	?___fldiv+3,w
 10338     0AD7  00CB               	movwf	floorf@x+3
 10339     0AD8  0830               	movf	?___fldiv+2,w
 10340     0AD9  00CA               	movwf	floorf@x+2
 10341     0ADA  082F               	movf	?___fldiv+1,w
 10342     0ADB  00C9               	movwf	floorf@x+1
 10343     0ADC  082E               	movf	?___fldiv,w
 10344     0ADD  00C8               	movwf	floorf@x
 10345     0ADE  160A  118A  222E  120A  158A  	fcall	_floorf
 10346     0AE3  1283               	bcf	3,5	;RP0=0, select bank0
 10347     0AE4  1303               	bcf	3,6	;RP1=0, select bank0
 10348     0AE5  084B               	movf	?_floorf+3,w
 10349     0AE6  1683               	bsf	3,5	;RP0=1, select bank1
 10350     0AE7  1303               	bcf	3,6	;RP1=0, select bank1
 10351     0AE8  00CA               	movwf	(efgtoa@l+3)^(0+128)
 10352     0AE9  1283               	bcf	3,5	;RP0=0, select bank0
 10353     0AEA  1303               	bcf	3,6	;RP1=0, select bank0
 10354     0AEB  084A               	movf	?_floorf+2,w
 10355     0AEC  1683               	bsf	3,5	;RP0=1, select bank1
 10356     0AED  1303               	bcf	3,6	;RP1=0, select bank1
 10357     0AEE  00C9               	movwf	(efgtoa@l+2)^(0+128)
 10358     0AEF  1283               	bcf	3,5	;RP0=0, select bank0
 10359     0AF0  1303               	bcf	3,6	;RP1=0, select bank0
 10360     0AF1  0849               	movf	?_floorf+1,w
 10361     0AF2  1683               	bsf	3,5	;RP0=1, select bank1
 10362     0AF3  1303               	bcf	3,6	;RP1=0, select bank1
 10363     0AF4  00C8               	movwf	(efgtoa@l+1)^(0+128)
 10364     0AF5  1283               	bcf	3,5	;RP0=0, select bank0
 10365     0AF6  1303               	bcf	3,6	;RP1=0, select bank0
 10366     0AF7  0848               	movf	?_floorf,w
 10367     0AF8  1683               	bsf	3,5	;RP0=1, select bank1
 10368     0AF9  1303               	bcf	3,6	;RP1=0, select bank1
 10369     0AFA  00C7               	movwf	efgtoa@l^(0+128)
 10370                           
 10371                           ;C:\Program Files\Microchip\xc8\v2.46\pic\sources\c99\common\doprnt.c: 738:         d = 
      +                          (int)l;
 10372     0AFB  084A               	movf	(efgtoa@l+3)^(0+128),w
 10373     0AFC  1283               	bcf	3,5	;RP0=0, select bank0
 10374     0AFD  1303               	bcf	3,6	;RP1=0, select bank0
 10375     0AFE  00A3               	movwf	___fltol@f1+3
 10376     0AFF  1683               	bsf	3,5	;RP0=1, select bank1
 10377     0B00  1303               	bcf	3,6	;RP1=0, select bank1
 10378     0B01  0849               	movf	(efgtoa@l+2)^(0+128),w
 10379     0B02  1283               	bcf	3,5	;RP0=0, select bank0
 10380     0B03  1303               	bcf	3,6	;RP1=0, select bank0
 10381     0B04  00A2               	movwf	___fltol@f1+2
 10382     0B05  1683               	bsf	3,5	;RP0=1, select bank1
 10383     0B06  1303               	bcf	3,6	;RP1=0, select bank1
 10384     0B07  0848               	movf	(efgtoa@l+1)^(0+128),w
 10385     0B08  1283               	bcf	3,5	;RP0=0, select bank0
 10386     0B09  1303               	bcf	3,6	;RP1=0, select bank0
 10387     0B0A  00A1               	movwf	___fltol@f1+1
 10388     0B0B  1683               	bsf	3,5	;RP0=1, select bank1
 10389     0B0C  1303               	bcf	3,6	;RP1=0, select bank1
 10390     0B0D  0847               	movf	efgtoa@l^(0+128),w
 10391     0B0E  1283               	bcf	3,5	;RP0=0, select bank0
 10392     0B0F  1303               	bcf	3,6	;RP1=0, select bank0
 10393     0B10  00A0               	movwf	___fltol@f1
 10394     0B11  160A  158A  2507  120A  158A  	fcall	___fltol
 10395     0B16  1283               	bcf	3,5	;RP0=0, select bank0
 10396     0B17  1303               	bcf	3,6	;RP1=0, select bank0
 10397     0B18  0821               	movf	?___fltol+1,w
 10398     0B19  1683               	bsf	3,5	;RP0=1, select bank1
 10399     0B1A  1303               	bcf	3,6	;RP1=0, select bank1
 10400     0B1B  00B5               	movwf	(efgtoa@d+1)^(0+128)
 10401     0B1C  1283               	bcf	3,5	;RP0=0, select bank0
 10402     0B1D  1303               	bcf	3,6	;RP1=0, select bank0
 10403     0B1E  0820               	movf	?___fltol,w
 10404     0B1F  1683               	bsf	3,5	;RP0=1, select bank1
 10405     0B20  1303               	bcf	3,6	;RP1=0, select bank1
 10406     0B21  00B4               	movwf	efgtoa@d^(0+128)
 10407                           
 10408                           ;C:\Program Files\Microchip\xc8\v2.46\pic\sources\c99\common\doprnt.c: 739:         h -=
      +                           l*u.f;
 10409     0B22  0855               	movf	(efgtoa@u+3)^(0+128),w
 10410     0B23  1283               	bcf	3,5	;RP0=0, select bank0
 10411     0B24  1303               	bcf	3,6	;RP1=0, select bank0
 10412     0B25  00CF               	movwf	___flmul@a+3
 10413     0B26  1683               	bsf	3,5	;RP0=1, select bank1
 10414     0B27  1303               	bcf	3,6	;RP1=0, select bank1
 10415     0B28  0854               	movf	(efgtoa@u+2)^(0+128),w
 10416     0B29  1283               	bcf	3,5	;RP0=0, select bank0
 10417     0B2A  1303               	bcf	3,6	;RP1=0, select bank0
 10418     0B2B  00CE               	movwf	___flmul@a+2
 10419     0B2C  1683               	bsf	3,5	;RP0=1, select bank1
 10420     0B2D  1303               	bcf	3,6	;RP1=0, select bank1
 10421     0B2E  0853               	movf	(efgtoa@u+1)^(0+128),w
 10422     0B2F  1283               	bcf	3,5	;RP0=0, select bank0
 10423     0B30  1303               	bcf	3,6	;RP1=0, select bank0
 10424     0B31  00CD               	movwf	___flmul@a+1
 10425     0B32  1683               	bsf	3,5	;RP0=1, select bank1
 10426     0B33  1303               	bcf	3,6	;RP1=0, select bank1
 10427     0B34  0852               	movf	efgtoa@u^(0+128),w
 10428     0B35  1283               	bcf	3,5	;RP0=0, select bank0
 10429     0B36  1303               	bcf	3,6	;RP1=0, select bank0
 10430     0B37  00CC               	movwf	___flmul@a
 10431     0B38  1683               	bsf	3,5	;RP0=1, select bank1
 10432     0B39  1303               	bcf	3,6	;RP1=0, select bank1
 10433     0B3A  084A               	movf	(efgtoa@l+3)^(0+128),w
 10434     0B3B  1283               	bcf	3,5	;RP0=0, select bank0
 10435     0B3C  1303               	bcf	3,6	;RP1=0, select bank0
 10436     0B3D  00CB               	movwf	___flmul@b+3
 10437     0B3E  1683               	bsf	3,5	;RP0=1, select bank1
 10438     0B3F  1303               	bcf	3,6	;RP1=0, select bank1
 10439     0B40  0849               	movf	(efgtoa@l+2)^(0+128),w
 10440     0B41  1283               	bcf	3,5	;RP0=0, select bank0
 10441     0B42  1303               	bcf	3,6	;RP1=0, select bank0
 10442     0B43  00CA               	movwf	___flmul@b+2
 10443     0B44  1683               	bsf	3,5	;RP0=1, select bank1
 10444     0B45  1303               	bcf	3,6	;RP1=0, select bank1
 10445     0B46  0848               	movf	(efgtoa@l+1)^(0+128),w
 10446     0B47  1283               	bcf	3,5	;RP0=0, select bank0
 10447     0B48  1303               	bcf	3,6	;RP1=0, select bank0
 10448     0B49  00C9               	movwf	___flmul@b+1
 10449     0B4A  1683               	bsf	3,5	;RP0=1, select bank1
 10450     0B4B  1303               	bcf	3,6	;RP1=0, select bank1
 10451     0B4C  0847               	movf	efgtoa@l^(0+128),w
 10452     0B4D  1283               	bcf	3,5	;RP0=0, select bank0
 10453     0B4E  1303               	bcf	3,6	;RP1=0, select bank0
 10454     0B4F  00C8               	movwf	___flmul@b
 10455     0B50  120A  118A  2050  120A  158A  	fcall	___flmul
 10456     0B55  1283               	bcf	3,5	;RP0=0, select bank0
 10457     0B56  1303               	bcf	3,6	;RP1=0, select bank0
 10458     0B57  084B               	movf	?___flmul+3,w
 10459     0B58  00E5               	movwf	___flsub@a+3
 10460     0B59  084A               	movf	?___flmul+2,w
 10461     0B5A  00E4               	movwf	___flsub@a+2
 10462     0B5B  0849               	movf	?___flmul+1,w
 10463     0B5C  00E3               	movwf	___flsub@a+1
 10464     0B5D  0848               	movf	?___flmul,w
 10465     0B5E  00E2               	movwf	___flsub@a
 10466     0B5F  1683               	bsf	3,5	;RP0=1, select bank1
 10467     0B60  1303               	bcf	3,6	;RP1=0, select bank1
 10468     0B61  0846               	movf	(efgtoa@h+3)^(0+128),w
 10469     0B62  1283               	bcf	3,5	;RP0=0, select bank0
 10470     0B63  1303               	bcf	3,6	;RP1=0, select bank0
 10471     0B64  00E9               	movwf	___flsub@b+3
 10472     0B65  1683               	bsf	3,5	;RP0=1, select bank1
 10473     0B66  1303               	bcf	3,6	;RP1=0, select bank1
 10474     0B67  0845               	movf	(efgtoa@h+2)^(0+128),w
 10475     0B68  1283               	bcf	3,5	;RP0=0, select bank0
 10476     0B69  1303               	bcf	3,6	;RP1=0, select bank0
 10477     0B6A  00E8               	movwf	___flsub@b+2
 10478     0B6B  1683               	bsf	3,5	;RP0=1, select bank1
 10479     0B6C  1303               	bcf	3,6	;RP1=0, select bank1
 10480     0B6D  0844               	movf	(efgtoa@h+1)^(0+128),w
 10481     0B6E  1283               	bcf	3,5	;RP0=0, select bank0
 10482     0B6F  1303               	bcf	3,6	;RP1=0, select bank0
 10483     0B70  00E7               	movwf	___flsub@b+1
 10484     0B71  1683               	bsf	3,5	;RP0=1, select bank1
 10485     0B72  1303               	bcf	3,6	;RP1=0, select bank1
 10486     0B73  0843               	movf	efgtoa@h^(0+128),w
 10487     0B74  1283               	bcf	3,5	;RP0=0, select bank0
 10488     0B75  1303               	bcf	3,6	;RP1=0, select bank0
 10489     0B76  00E6               	movwf	___flsub@b
 10490     0B77  160A  158A  225D  120A  158A  	fcall	___flsub
 10491     0B7C  1283               	bcf	3,5	;RP0=0, select bank0
 10492     0B7D  1303               	bcf	3,6	;RP1=0, select bank0
 10493     0B7E  0865               	movf	?___flsub+3,w
 10494     0B7F  1683               	bsf	3,5	;RP0=1, select bank1
 10495     0B80  1303               	bcf	3,6	;RP1=0, select bank1
 10496     0B81  00C6               	movwf	(efgtoa@h+3)^(0+128)
 10497     0B82  1283               	bcf	3,5	;RP0=0, select bank0
 10498     0B83  1303               	bcf	3,6	;RP1=0, select bank0
 10499     0B84  0864               	movf	?___flsub+2,w
 10500     0B85  1683               	bsf	3,5	;RP0=1, select bank1
 10501     0B86  1303               	bcf	3,6	;RP1=0, select bank1
 10502     0B87  00C5               	movwf	(efgtoa@h+2)^(0+128)
 10503     0B88  1283               	bcf	3,5	;RP0=0, select bank0
 10504     0B89  1303               	bcf	3,6	;RP1=0, select bank0
 10505     0B8A  0863               	movf	?___flsub+1,w
 10506     0B8B  1683               	bsf	3,5	;RP0=1, select bank1
 10507     0B8C  1303               	bcf	3,6	;RP1=0, select bank1
 10508     0B8D  00C4               	movwf	(efgtoa@h+1)^(0+128)
 10509     0B8E  1283               	bcf	3,5	;RP0=0, select bank0
 10510     0B8F  1303               	bcf	3,6	;RP1=0, select bank0
 10511     0B90  0862               	movf	?___flsub,w
 10512     0B91  1683               	bsf	3,5	;RP0=1, select bank1
 10513     0B92  1303               	bcf	3,6	;RP1=0, select bank1
 10514     0B93  00C3               	movwf	efgtoa@h^(0+128)
 10515                           
 10516                           ;C:\Program Files\Microchip\xc8\v2.46\pic\sources\c99\common\doprnt.c: 740:         u.f 
      +                          = u.f/10.0;
 10517     0B94  3041               	movlw	65
 10518     0B95  1283               	bcf	3,5	;RP0=0, select bank0
 10519     0B96  1303               	bcf	3,6	;RP1=0, select bank0
 10520     0B97  00B1               	movwf	___fldiv@a+3
 10521     0B98  3020               	movlw	32
 10522     0B99  00B0               	movwf	___fldiv@a+2
 10523     0B9A  3000               	movlw	0
 10524     0B9B  00AF               	movwf	___fldiv@a+1
 10525     0B9C  3000               	movlw	0
 10526     0B9D  00AE               	movwf	___fldiv@a
 10527     0B9E  1683               	bsf	3,5	;RP0=1, select bank1
 10528     0B9F  1303               	bcf	3,6	;RP1=0, select bank1
 10529     0BA0  0855               	movf	(efgtoa@u+3)^(0+128),w
 10530     0BA1  1283               	bcf	3,5	;RP0=0, select bank0
 10531     0BA2  1303               	bcf	3,6	;RP1=0, select bank0
 10532     0BA3  00B5               	movwf	___fldiv@b+3
 10533     0BA4  1683               	bsf	3,5	;RP0=1, select bank1
 10534     0BA5  1303               	bcf	3,6	;RP1=0, select bank1
 10535     0BA6  0854               	movf	(efgtoa@u+2)^(0+128),w
 10536     0BA7  1283               	bcf	3,5	;RP0=0, select bank0
 10537     0BA8  1303               	bcf	3,6	;RP1=0, select bank0
 10538     0BA9  00B4               	movwf	___fldiv@b+2
 10539     0BAA  1683               	bsf	3,5	;RP0=1, select bank1
 10540     0BAB  1303               	bcf	3,6	;RP1=0, select bank1
 10541     0BAC  0853               	movf	(efgtoa@u+1)^(0+128),w
 10542     0BAD  1283               	bcf	3,5	;RP0=0, select bank0
 10543     0BAE  1303               	bcf	3,6	;RP1=0, select bank0
 10544     0BAF  00B3               	movwf	___fldiv@b+1
 10545     0BB0  1683               	bsf	3,5	;RP0=1, select bank1
 10546     0BB1  1303               	bcf	3,6	;RP1=0, select bank1
 10547     0BB2  0852               	movf	efgtoa@u^(0+128),w
 10548     0BB3  1283               	bcf	3,5	;RP0=0, select bank0
 10549     0BB4  1303               	bcf	3,6	;RP1=0, select bank0
 10550     0BB5  00B2               	movwf	___fldiv@b
 10551     0BB6  120A  118A  25ED  120A  158A  	fcall	___fldiv
 10552     0BBB  1283               	bcf	3,5	;RP0=0, select bank0
 10553     0BBC  1303               	bcf	3,6	;RP1=0, select bank0
 10554     0BBD  0831               	movf	?___fldiv+3,w
 10555     0BBE  1683               	bsf	3,5	;RP0=1, select bank1
 10556     0BBF  1303               	bcf	3,6	;RP1=0, select bank1
 10557     0BC0  00D5               	movwf	(efgtoa@u+3)^(0+128)
 10558     0BC1  1283               	bcf	3,5	;RP0=0, select bank0
 10559     0BC2  1303               	bcf	3,6	;RP1=0, select bank0
 10560     0BC3  0830               	movf	?___fldiv+2,w
 10561     0BC4  1683               	bsf	3,5	;RP0=1, select bank1
 10562     0BC5  1303               	bcf	3,6	;RP1=0, select bank1
 10563     0BC6  00D4               	movwf	(efgtoa@u+2)^(0+128)
 10564     0BC7  1283               	bcf	3,5	;RP0=0, select bank0
 10565     0BC8  1303               	bcf	3,6	;RP1=0, select bank0
 10566     0BC9  082F               	movf	?___fldiv+1,w
 10567     0BCA  1683               	bsf	3,5	;RP0=1, select bank1
 10568     0BCB  1303               	bcf	3,6	;RP1=0, select bank1
 10569     0BCC  00D3               	movwf	(efgtoa@u+1)^(0+128)
 10570     0BCD  1283               	bcf	3,5	;RP0=0, select bank0
 10571     0BCE  1303               	bcf	3,6	;RP1=0, select bank0
 10572     0BCF  082E               	movf	?___fldiv,w
 10573     0BD0  1683               	bsf	3,5	;RP0=1, select bank1
 10574     0BD1  1303               	bcf	3,6	;RP1=0, select bank1
 10575     0BD2  00D2               	movwf	efgtoa@u^(0+128)
 10576     0BD3                     l4189:
 10577                           
 10578                           ;C:\Program Files\Microchip\xc8\v2.46\pic\sources\c99\common\doprnt.c: 741:         ++i;
 10579     0BD3  3001               	movlw	1
 10580     0BD4  07C1               	addwf	efgtoa@i^(0+128),f
 10581     0BD5  1803               	skipnc
 10582     0BD6  0AC2               	incf	(efgtoa@i+1)^(0+128),f
 10583     0BD7  3000               	movlw	0
 10584     0BD8  07C2               	addwf	(efgtoa@i+1)^(0+128),f
 10585     0BD9                     l4191:
 10586                           
 10587                           ;C:\Program Files\Microchip\xc8\v2.46\pic\sources\c99\common\doprnt.c: 736:     while (i
      +                           < m) {
 10588     0BD9  0842               	movf	(efgtoa@i+1)^(0+128),w
 10589     0BDA  3A80               	xorlw	128
 10590     0BDB  00A5               	movwf	??_efgtoa^(0+128)
 10591     0BDC  0837               	movf	(efgtoa@m+1)^(0+128),w
 10592     0BDD  3A80               	xorlw	128
 10593     0BDE  0225               	subwf	??_efgtoa^(0+128),w
 10594     0BDF  1D03               	skipz
 10595     0BE0  2BE3               	goto	u6895
 10596     0BE1  0836               	movf	efgtoa@m^(0+128),w
 10597     0BE2  0241               	subwf	efgtoa@i^(0+128),w
 10598     0BE3                     u6895:
 10599     0BE3  1C03               	skipc
 10600     0BE4  2BE6               	goto	u6891
 10601     0BE5  2BE7               	goto	u6890
 10602     0BE6                     u6891:
 10603     0BE6  2A9F               	goto	l4187
 10604     0BE7                     u6890:
 10605     0BE7                     l4193:
 10606                           
 10607                           ;C:\Program Files\Microchip\xc8\v2.46\pic\sources\c99\common\doprnt.c: 745:     l = u.f*
      +                          5.0;
 10608     0BE7  3040               	movlw	64
 10609     0BE8  1283               	bcf	3,5	;RP0=0, select bank0
 10610     0BE9  1303               	bcf	3,6	;RP1=0, select bank0
 10611     0BEA  00CB               	movwf	___flmul@b+3
 10612     0BEB  30A0               	movlw	160
 10613     0BEC  00CA               	movwf	___flmul@b+2
 10614     0BED  3000               	movlw	0
 10615     0BEE  00C9               	movwf	___flmul@b+1
 10616     0BEF  3000               	movlw	0
 10617     0BF0  00C8               	movwf	___flmul@b
 10618     0BF1  1683               	bsf	3,5	;RP0=1, select bank1
 10619     0BF2  1303               	bcf	3,6	;RP1=0, select bank1
 10620     0BF3  0855               	movf	(efgtoa@u+3)^(0+128),w
 10621     0BF4  1283               	bcf	3,5	;RP0=0, select bank0
 10622     0BF5  1303               	bcf	3,6	;RP1=0, select bank0
 10623     0BF6  00CF               	movwf	___flmul@a+3
 10624     0BF7  1683               	bsf	3,5	;RP0=1, select bank1
 10625     0BF8  1303               	bcf	3,6	;RP1=0, select bank1
 10626     0BF9  0854               	movf	(efgtoa@u+2)^(0+128),w
 10627     0BFA  1283               	bcf	3,5	;RP0=0, select bank0
 10628     0BFB  1303               	bcf	3,6	;RP1=0, select bank0
 10629     0BFC  00CE               	movwf	___flmul@a+2
 10630     0BFD  1683               	bsf	3,5	;RP0=1, select bank1
 10631     0BFE  1303               	bcf	3,6	;RP1=0, select bank1
 10632     0BFF  0853               	movf	(efgtoa@u+1)^(0+128),w
 10633     0C00  1283               	bcf	3,5	;RP0=0, select bank0
 10634     0C01  1303               	bcf	3,6	;RP1=0, select bank0
 10635     0C02  00CD               	movwf	___flmul@a+1
 10636     0C03  1683               	bsf	3,5	;RP0=1, select bank1
 10637     0C04  1303               	bcf	3,6	;RP1=0, select bank1
 10638     0C05  0852               	movf	efgtoa@u^(0+128),w
 10639     0C06  1283               	bcf	3,5	;RP0=0, select bank0
 10640     0C07  1303               	bcf	3,6	;RP1=0, select bank0
 10641     0C08  00CC               	movwf	___flmul@a
 10642     0C09  120A  118A  2050  120A  158A  	fcall	___flmul
 10643     0C0E  1283               	bcf	3,5	;RP0=0, select bank0
 10644     0C0F  1303               	bcf	3,6	;RP1=0, select bank0
 10645     0C10  084B               	movf	?___flmul+3,w
 10646     0C11  1683               	bsf	3,5	;RP0=1, select bank1
 10647     0C12  1303               	bcf	3,6	;RP1=0, select bank1
 10648     0C13  00CA               	movwf	(efgtoa@l+3)^(0+128)
 10649     0C14  1283               	bcf	3,5	;RP0=0, select bank0
 10650     0C15  1303               	bcf	3,6	;RP1=0, select bank0
 10651     0C16  084A               	movf	?___flmul+2,w
 10652     0C17  1683               	bsf	3,5	;RP0=1, select bank1
 10653     0C18  1303               	bcf	3,6	;RP1=0, select bank1
 10654     0C19  00C9               	movwf	(efgtoa@l+2)^(0+128)
 10655     0C1A  1283               	bcf	3,5	;RP0=0, select bank0
 10656     0C1B  1303               	bcf	3,6	;RP1=0, select bank0
 10657     0C1C  0849               	movf	?___flmul+1,w
 10658     0C1D  1683               	bsf	3,5	;RP0=1, select bank1
 10659     0C1E  1303               	bcf	3,6	;RP1=0, select bank1
 10660     0C1F  00C8               	movwf	(efgtoa@l+1)^(0+128)
 10661     0C20  1283               	bcf	3,5	;RP0=0, select bank0
 10662     0C21  1303               	bcf	3,6	;RP1=0, select bank0
 10663     0C22  0848               	movf	?___flmul,w
 10664     0C23  1683               	bsf	3,5	;RP0=1, select bank1
 10665     0C24  1303               	bcf	3,6	;RP1=0, select bank1
 10666     0C25  00C7               	movwf	efgtoa@l^(0+128)
 10667     0C26                     l4195:
 10668                           
 10669                           ;C:\Program Files\Microchip\xc8\v2.46\pic\sources\c99\common\doprnt.c: 746:     if (h < 
      +                          l) {
 10670     0C26  0846               	movf	(efgtoa@h+3)^(0+128),w
 10671     0C27  1283               	bcf	3,5	;RP0=0, select bank0
 10672     0C28  1303               	bcf	3,6	;RP1=0, select bank0
 10673     0C29  00E5               	movwf	___flge@ff1+3
 10674     0C2A  1683               	bsf	3,5	;RP0=1, select bank1
 10675     0C2B  1303               	bcf	3,6	;RP1=0, select bank1
 10676     0C2C  0845               	movf	(efgtoa@h+2)^(0+128),w
 10677     0C2D  1283               	bcf	3,5	;RP0=0, select bank0
 10678     0C2E  1303               	bcf	3,6	;RP1=0, select bank0
 10679     0C2F  00E4               	movwf	___flge@ff1+2
 10680     0C30  1683               	bsf	3,5	;RP0=1, select bank1
 10681     0C31  1303               	bcf	3,6	;RP1=0, select bank1
 10682     0C32  0844               	movf	(efgtoa@h+1)^(0+128),w
 10683     0C33  1283               	bcf	3,5	;RP0=0, select bank0
 10684     0C34  1303               	bcf	3,6	;RP1=0, select bank0
 10685     0C35  00E3               	movwf	___flge@ff1+1
 10686     0C36  1683               	bsf	3,5	;RP0=1, select bank1
 10687     0C37  1303               	bcf	3,6	;RP1=0, select bank1
 10688     0C38  0843               	movf	efgtoa@h^(0+128),w
 10689     0C39  1283               	bcf	3,5	;RP0=0, select bank0
 10690     0C3A  1303               	bcf	3,6	;RP1=0, select bank0
 10691     0C3B  00E2               	movwf	___flge@ff1
 10692     0C3C  1683               	bsf	3,5	;RP0=1, select bank1
 10693     0C3D  1303               	bcf	3,6	;RP1=0, select bank1
 10694     0C3E  084A               	movf	(efgtoa@l+3)^(0+128),w
 10695     0C3F  1283               	bcf	3,5	;RP0=0, select bank0
 10696     0C40  1303               	bcf	3,6	;RP1=0, select bank0
 10697     0C41  00E9               	movwf	___flge@ff2+3
 10698     0C42  1683               	bsf	3,5	;RP0=1, select bank1
 10699     0C43  1303               	bcf	3,6	;RP1=0, select bank1
 10700     0C44  0849               	movf	(efgtoa@l+2)^(0+128),w
 10701     0C45  1283               	bcf	3,5	;RP0=0, select bank0
 10702     0C46  1303               	bcf	3,6	;RP1=0, select bank0
 10703     0C47  00E8               	movwf	___flge@ff2+2
 10704     0C48  1683               	bsf	3,5	;RP0=1, select bank1
 10705     0C49  1303               	bcf	3,6	;RP1=0, select bank1
 10706     0C4A  0848               	movf	(efgtoa@l+1)^(0+128),w
 10707     0C4B  1283               	bcf	3,5	;RP0=0, select bank0
 10708     0C4C  1303               	bcf	3,6	;RP1=0, select bank0
 10709     0C4D  00E7               	movwf	___flge@ff2+1
 10710     0C4E  1683               	bsf	3,5	;RP0=1, select bank1
 10711     0C4F  1303               	bcf	3,6	;RP1=0, select bank1
 10712     0C50  0847               	movf	efgtoa@l^(0+128),w
 10713     0C51  1283               	bcf	3,5	;RP0=0, select bank0
 10714     0C52  1303               	bcf	3,6	;RP1=0, select bank0
 10715     0C53  00E6               	movwf	___flge@ff2
 10716     0C54  160A  158A  26A2  120A  158A  	fcall	___flge
 10717     0C59  1803               	btfsc	3,0
 10718     0C5A  2C5C               	goto	u6901
 10719     0C5B  2C5D               	goto	u6900
 10720     0C5C                     u6901:
 10721     0C5C  2C68               	goto	l4199
 10722     0C5D                     u6900:
 10723     0C5D                     l4197:
 10724                           
 10725                           ;C:\Program Files\Microchip\xc8\v2.46\pic\sources\c99\common\doprnt.c: 747:         l = 
      +                          0.0;
 10726     0C5D  3000               	movlw	0
 10727     0C5E  1683               	bsf	3,5	;RP0=1, select bank1
 10728     0C5F  1303               	bcf	3,6	;RP1=0, select bank1
 10729     0C60  00CA               	movwf	(efgtoa@l+3)^(0+128)
 10730     0C61  3000               	movlw	0
 10731     0C62  00C9               	movwf	(efgtoa@l+2)^(0+128)
 10732     0C63  3000               	movlw	0
 10733     0C64  00C8               	movwf	(efgtoa@l+1)^(0+128)
 10734     0C65  3000               	movlw	0
 10735     0C66  00C7               	movwf	efgtoa@l^(0+128)
 10736                           
 10737                           ;C:\Program Files\Microchip\xc8\v2.46\pic\sources\c99\common\doprnt.c: 748:     } else {
 10738     0C67  2CAF               	goto	l4205
 10739     0C68                     l4199:
 10740                           
 10741                           ;C:\Program Files\Microchip\xc8\v2.46\pic\sources\c99\common\doprnt.c: 750:         if (
      +                          (h == l) && !(d % 2)) {
 10742     0C68  1683               	bsf	3,5	;RP0=1, select bank1
 10743     0C69  1303               	bcf	3,6	;RP1=0, select bank1
 10744     0C6A  0846               	movf	(efgtoa@h+3)^(0+128),w
 10745     0C6B  1283               	bcf	3,5	;RP0=0, select bank0
 10746     0C6C  1303               	bcf	3,6	;RP1=0, select bank0
 10747     0C6D  00A3               	movwf	___fleq@ff1+3
 10748     0C6E  1683               	bsf	3,5	;RP0=1, select bank1
 10749     0C6F  1303               	bcf	3,6	;RP1=0, select bank1
 10750     0C70  0845               	movf	(efgtoa@h+2)^(0+128),w
 10751     0C71  1283               	bcf	3,5	;RP0=0, select bank0
 10752     0C72  1303               	bcf	3,6	;RP1=0, select bank0
 10753     0C73  00A2               	movwf	___fleq@ff1+2
 10754     0C74  1683               	bsf	3,5	;RP0=1, select bank1
 10755     0C75  1303               	bcf	3,6	;RP1=0, select bank1
 10756     0C76  0844               	movf	(efgtoa@h+1)^(0+128),w
 10757     0C77  1283               	bcf	3,5	;RP0=0, select bank0
 10758     0C78  1303               	bcf	3,6	;RP1=0, select bank0
 10759     0C79  00A1               	movwf	___fleq@ff1+1
 10760     0C7A  1683               	bsf	3,5	;RP0=1, select bank1
 10761     0C7B  1303               	bcf	3,6	;RP1=0, select bank1
 10762     0C7C  0843               	movf	efgtoa@h^(0+128),w
 10763     0C7D  1283               	bcf	3,5	;RP0=0, select bank0
 10764     0C7E  1303               	bcf	3,6	;RP1=0, select bank0
 10765     0C7F  00A0               	movwf	___fleq@ff1
 10766     0C80  1683               	bsf	3,5	;RP0=1, select bank1
 10767     0C81  1303               	bcf	3,6	;RP1=0, select bank1
 10768     0C82  084A               	movf	(efgtoa@l+3)^(0+128),w
 10769     0C83  1283               	bcf	3,5	;RP0=0, select bank0
 10770     0C84  1303               	bcf	3,6	;RP1=0, select bank0
 10771     0C85  00A7               	movwf	___fleq@ff2+3
 10772     0C86  1683               	bsf	3,5	;RP0=1, select bank1
 10773     0C87  1303               	bcf	3,6	;RP1=0, select bank1
 10774     0C88  0849               	movf	(efgtoa@l+2)^(0+128),w
 10775     0C89  1283               	bcf	3,5	;RP0=0, select bank0
 10776     0C8A  1303               	bcf	3,6	;RP1=0, select bank0
 10777     0C8B  00A6               	movwf	___fleq@ff2+2
 10778     0C8C  1683               	bsf	3,5	;RP0=1, select bank1
 10779     0C8D  1303               	bcf	3,6	;RP1=0, select bank1
 10780     0C8E  0848               	movf	(efgtoa@l+1)^(0+128),w
 10781     0C8F  1283               	bcf	3,5	;RP0=0, select bank0
 10782     0C90  1303               	bcf	3,6	;RP1=0, select bank0
 10783     0C91  00A5               	movwf	___fleq@ff2+1
 10784     0C92  1683               	bsf	3,5	;RP0=1, select bank1
 10785     0C93  1303               	bcf	3,6	;RP1=0, select bank1
 10786     0C94  0847               	movf	efgtoa@l^(0+128),w
 10787     0C95  1283               	bcf	3,5	;RP0=0, select bank0
 10788     0C96  1303               	bcf	3,6	;RP1=0, select bank0
 10789     0C97  00A4               	movwf	___fleq@ff2
 10790     0C98  160A  158A  23A3  120A  158A  	fcall	___fleq
 10791     0C9D  1C03               	btfss	3,0
 10792     0C9E  2CA0               	goto	u6911
 10793     0C9F  2CA1               	goto	u6910
 10794     0CA0                     u6911:
 10795     0CA0  2CAF               	goto	l4205
 10796     0CA1                     u6910:
 10797     0CA1                     l4201:
 10798     0CA1  1683               	bsf	3,5	;RP0=1, select bank1
 10799     0CA2  1303               	bcf	3,6	;RP1=0, select bank1
 10800     0CA3  1834               	btfsc	efgtoa@d^(0+128),0
 10801     0CA4  2CA6               	goto	u6921
 10802     0CA5  2CA7               	goto	u6920
 10803     0CA6                     u6921:
 10804     0CA6  2CAF               	goto	l4205
 10805     0CA7                     u6920:
 10806     0CA7                     l4203:
 10807                           
 10808                           ;C:\Program Files\Microchip\xc8\v2.46\pic\sources\c99\common\doprnt.c: 751:             
      +                          l = 0.0;
 10809     0CA7  3000               	movlw	0
 10810     0CA8  00CA               	movwf	(efgtoa@l+3)^(0+128)
 10811     0CA9  3000               	movlw	0
 10812     0CAA  00C9               	movwf	(efgtoa@l+2)^(0+128)
 10813     0CAB  3000               	movlw	0
 10814     0CAC  00C8               	movwf	(efgtoa@l+1)^(0+128)
 10815     0CAD  3000               	movlw	0
 10816     0CAE  00C7               	movwf	efgtoa@l^(0+128)
 10817     0CAF                     l4205:
 10818                           
 10819                           ;C:\Program Files\Microchip\xc8\v2.46\pic\sources\c99\common\doprnt.c: 756:     h = g.f 
      +                          + l;
 10820     0CAF  1683               	bsf	3,5	;RP0=1, select bank1
 10821     0CB0  1303               	bcf	3,6	;RP1=0, select bank1
 10822     0CB1  084A               	movf	(efgtoa@l+3)^(0+128),w
 10823     0CB2  1283               	bcf	3,5	;RP0=0, select bank0
 10824     0CB3  1303               	bcf	3,6	;RP1=0, select bank0
 10825     0CB4  00A3               	movwf	___fladd@b+3
 10826     0CB5  1683               	bsf	3,5	;RP0=1, select bank1
 10827     0CB6  1303               	bcf	3,6	;RP1=0, select bank1
 10828     0CB7  0849               	movf	(efgtoa@l+2)^(0+128),w
 10829     0CB8  1283               	bcf	3,5	;RP0=0, select bank0
 10830     0CB9  1303               	bcf	3,6	;RP1=0, select bank0
 10831     0CBA  00A2               	movwf	___fladd@b+2
 10832     0CBB  1683               	bsf	3,5	;RP0=1, select bank1
 10833     0CBC  1303               	bcf	3,6	;RP1=0, select bank1
 10834     0CBD  0848               	movf	(efgtoa@l+1)^(0+128),w
 10835     0CBE  1283               	bcf	3,5	;RP0=0, select bank0
 10836     0CBF  1303               	bcf	3,6	;RP1=0, select bank0
 10837     0CC0  00A1               	movwf	___fladd@b+1
 10838     0CC1  1683               	bsf	3,5	;RP0=1, select bank1
 10839     0CC2  1303               	bcf	3,6	;RP1=0, select bank1
 10840     0CC3  0847               	movf	efgtoa@l^(0+128),w
 10841     0CC4  1283               	bcf	3,5	;RP0=0, select bank0
 10842     0CC5  1303               	bcf	3,6	;RP1=0, select bank0
 10843     0CC6  00A0               	movwf	___fladd@b
 10844     0CC7  1683               	bsf	3,5	;RP0=1, select bank1
 10845     0CC8  1303               	bcf	3,6	;RP1=0, select bank1
 10846     0CC9  084F               	movf	(efgtoa@g+3)^(0+128),w
 10847     0CCA  1283               	bcf	3,5	;RP0=0, select bank0
 10848     0CCB  1303               	bcf	3,6	;RP1=0, select bank0
 10849     0CCC  00A7               	movwf	___fladd@a+3
 10850     0CCD  1683               	bsf	3,5	;RP0=1, select bank1
 10851     0CCE  1303               	bcf	3,6	;RP1=0, select bank1
 10852     0CCF  084E               	movf	(efgtoa@g+2)^(0+128),w
 10853     0CD0  1283               	bcf	3,5	;RP0=0, select bank0
 10854     0CD1  1303               	bcf	3,6	;RP1=0, select bank0
 10855     0CD2  00A6               	movwf	___fladd@a+2
 10856     0CD3  1683               	bsf	3,5	;RP0=1, select bank1
 10857     0CD4  1303               	bcf	3,6	;RP1=0, select bank1
 10858     0CD5  084D               	movf	(efgtoa@g+1)^(0+128),w
 10859     0CD6  1283               	bcf	3,5	;RP0=0, select bank0
 10860     0CD7  1303               	bcf	3,6	;RP1=0, select bank0
 10861     0CD8  00A5               	movwf	___fladd@a+1
 10862     0CD9  1683               	bsf	3,5	;RP0=1, select bank1
 10863     0CDA  1303               	bcf	3,6	;RP1=0, select bank1
 10864     0CDB  084C               	movf	efgtoa@g^(0+128),w
 10865     0CDC  1283               	bcf	3,5	;RP0=0, select bank0
 10866     0CDD  1303               	bcf	3,6	;RP1=0, select bank0
 10867     0CDE  00A4               	movwf	___fladd@a
 10868     0CDF  120A  118A  2395  120A  158A  	fcall	___fladd
 10869     0CE4  1283               	bcf	3,5	;RP0=0, select bank0
 10870     0CE5  1303               	bcf	3,6	;RP1=0, select bank0
 10871     0CE6  0823               	movf	?___fladd+3,w
 10872     0CE7  1683               	bsf	3,5	;RP0=1, select bank1
 10873     0CE8  1303               	bcf	3,6	;RP1=0, select bank1
 10874     0CE9  00C6               	movwf	(efgtoa@h+3)^(0+128)
 10875     0CEA  1283               	bcf	3,5	;RP0=0, select bank0
 10876     0CEB  1303               	bcf	3,6	;RP1=0, select bank0
 10877     0CEC  0822               	movf	?___fladd+2,w
 10878     0CED  1683               	bsf	3,5	;RP0=1, select bank1
 10879     0CEE  1303               	bcf	3,6	;RP1=0, select bank1
 10880     0CEF  00C5               	movwf	(efgtoa@h+2)^(0+128)
 10881     0CF0  1283               	bcf	3,5	;RP0=0, select bank0
 10882     0CF1  1303               	bcf	3,6	;RP1=0, select bank0
 10883     0CF2  0821               	movf	?___fladd+1,w
 10884     0CF3  1683               	bsf	3,5	;RP0=1, select bank1
 10885     0CF4  1303               	bcf	3,6	;RP1=0, select bank1
 10886     0CF5  00C4               	movwf	(efgtoa@h+1)^(0+128)
 10887     0CF6  1283               	bcf	3,5	;RP0=0, select bank0
 10888     0CF7  1303               	bcf	3,6	;RP1=0, select bank0
 10889     0CF8  0820               	movf	?___fladd,w
 10890     0CF9  1683               	bsf	3,5	;RP0=1, select bank1
 10891     0CFA  1303               	bcf	3,6	;RP1=0, select bank1
 10892     0CFB  00C3               	movwf	efgtoa@h^(0+128)
 10893     0CFC                     l4207:
 10894                           
 10895                           ;C:\Program Files\Microchip\xc8\v2.46\pic\sources\c99\common\doprnt.c: 758:  if (h >= (o
      +                          u.f*10.0)) {
 10896     0CFC  0846               	movf	(efgtoa@h+3)^(0+128),w
 10897     0CFD  1283               	bcf	3,5	;RP0=0, select bank0
 10898     0CFE  1303               	bcf	3,6	;RP1=0, select bank0
 10899     0CFF  00E5               	movwf	___flge@ff1+3
 10900     0D00  1683               	bsf	3,5	;RP0=1, select bank1
 10901     0D01  1303               	bcf	3,6	;RP1=0, select bank1
 10902     0D02  0845               	movf	(efgtoa@h+2)^(0+128),w
 10903     0D03  1283               	bcf	3,5	;RP0=0, select bank0
 10904     0D04  1303               	bcf	3,6	;RP1=0, select bank0
 10905     0D05  00E4               	movwf	___flge@ff1+2
 10906     0D06  1683               	bsf	3,5	;RP0=1, select bank1
 10907     0D07  1303               	bcf	3,6	;RP1=0, select bank1
 10908     0D08  0844               	movf	(efgtoa@h+1)^(0+128),w
 10909     0D09  1283               	bcf	3,5	;RP0=0, select bank0
 10910     0D0A  1303               	bcf	3,6	;RP1=0, select bank0
 10911     0D0B  00E3               	movwf	___flge@ff1+1
 10912     0D0C  1683               	bsf	3,5	;RP0=1, select bank1
 10913     0D0D  1303               	bcf	3,6	;RP1=0, select bank1
 10914     0D0E  0843               	movf	efgtoa@h^(0+128),w
 10915     0D0F  1283               	bcf	3,5	;RP0=0, select bank0
 10916     0D10  1303               	bcf	3,6	;RP1=0, select bank0
 10917     0D11  00E2               	movwf	___flge@ff1
 10918     0D12  3041               	movlw	65
 10919     0D13  00CB               	movwf	___flmul@b+3
 10920     0D14  3020               	movlw	32
 10921     0D15  00CA               	movwf	___flmul@b+2
 10922     0D16  3000               	movlw	0
 10923     0D17  00C9               	movwf	___flmul@b+1
 10924     0D18  3000               	movlw	0
 10925     0D19  00C8               	movwf	___flmul@b
 10926     0D1A  1683               	bsf	3,5	;RP0=1, select bank1
 10927     0D1B  1303               	bcf	3,6	;RP1=0, select bank1
 10928     0D1C  0840               	movf	(efgtoa@ou+3)^(0+128),w
 10929     0D1D  1283               	bcf	3,5	;RP0=0, select bank0
 10930     0D1E  1303               	bcf	3,6	;RP1=0, select bank0
 10931     0D1F  00CF               	movwf	___flmul@a+3
 10932     0D20  1683               	bsf	3,5	;RP0=1, select bank1
 10933     0D21  1303               	bcf	3,6	;RP1=0, select bank1
 10934     0D22  083F               	movf	(efgtoa@ou+2)^(0+128),w
 10935     0D23  1283               	bcf	3,5	;RP0=0, select bank0
 10936     0D24  1303               	bcf	3,6	;RP1=0, select bank0
 10937     0D25  00CE               	movwf	___flmul@a+2
 10938     0D26  1683               	bsf	3,5	;RP0=1, select bank1
 10939     0D27  1303               	bcf	3,6	;RP1=0, select bank1
 10940     0D28  083E               	movf	(efgtoa@ou+1)^(0+128),w
 10941     0D29  1283               	bcf	3,5	;RP0=0, select bank0
 10942     0D2A  1303               	bcf	3,6	;RP1=0, select bank0
 10943     0D2B  00CD               	movwf	___flmul@a+1
 10944     0D2C  1683               	bsf	3,5	;RP0=1, select bank1
 10945     0D2D  1303               	bcf	3,6	;RP1=0, select bank1
 10946     0D2E  083D               	movf	efgtoa@ou^(0+128),w
 10947     0D2F  1283               	bcf	3,5	;RP0=0, select bank0
 10948     0D30  1303               	bcf	3,6	;RP1=0, select bank0
 10949     0D31  00CC               	movwf	___flmul@a
 10950     0D32  120A  118A  2050  120A  158A  	fcall	___flmul
 10951     0D37  1283               	bcf	3,5	;RP0=0, select bank0
 10952     0D38  1303               	bcf	3,6	;RP1=0, select bank0
 10953     0D39  084B               	movf	?___flmul+3,w
 10954     0D3A  00E9               	movwf	___flge@ff2+3
 10955     0D3B  084A               	movf	?___flmul+2,w
 10956     0D3C  00E8               	movwf	___flge@ff2+2
 10957     0D3D  0849               	movf	?___flmul+1,w
 10958     0D3E  00E7               	movwf	___flge@ff2+1
 10959     0D3F  0848               	movf	?___flmul,w
 10960     0D40  00E6               	movwf	___flge@ff2
 10961     0D41  160A  158A  26A2  120A  158A  	fcall	___flge
 10962     0D46  1C03               	btfss	3,0
 10963     0D47  2D49               	goto	u6931
 10964     0D48  2D4A               	goto	u6930
 10965     0D49                     u6931:
 10966     0D49  2D9D               	goto	l828
 10967     0D4A                     u6930:
 10968     0D4A                     l4209:
 10969                           
 10970                           ;C:\Program Files\Microchip\xc8\v2.46\pic\sources\c99\common\doprnt.c: 759:   e++;
 10971     0D4A  3001               	movlw	1
 10972     0D4B  1683               	bsf	3,5	;RP0=1, select bank1
 10973     0D4C  1303               	bcf	3,6	;RP1=0, select bank1
 10974     0D4D  07B9               	addwf	efgtoa@e^(0+128),f
 10975     0D4E  1803               	skipnc
 10976     0D4F  0ABA               	incf	(efgtoa@e+1)^(0+128),f
 10977     0D50  3000               	movlw	0
 10978     0D51  07BA               	addwf	(efgtoa@e+1)^(0+128),f
 10979     0D52                     l4211:
 10980                           
 10981                           ;C:\Program Files\Microchip\xc8\v2.46\pic\sources\c99\common\doprnt.c: 760:   ou.f *= 10
      +                          .0;
 10982     0D52  3041               	movlw	65
 10983     0D53  1283               	bcf	3,5	;RP0=0, select bank0
 10984     0D54  1303               	bcf	3,6	;RP1=0, select bank0
 10985     0D55  00CB               	movwf	___flmul@b+3
 10986     0D56  3020               	movlw	32
 10987     0D57  00CA               	movwf	___flmul@b+2
 10988     0D58  3000               	movlw	0
 10989     0D59  00C9               	movwf	___flmul@b+1
 10990     0D5A  3000               	movlw	0
 10991     0D5B  00C8               	movwf	___flmul@b
 10992     0D5C  1683               	bsf	3,5	;RP0=1, select bank1
 10993     0D5D  1303               	bcf	3,6	;RP1=0, select bank1
 10994     0D5E  0840               	movf	(efgtoa@ou+3)^(0+128),w
 10995     0D5F  1283               	bcf	3,5	;RP0=0, select bank0
 10996     0D60  1303               	bcf	3,6	;RP1=0, select bank0
 10997     0D61  00CF               	movwf	___flmul@a+3
 10998     0D62  1683               	bsf	3,5	;RP0=1, select bank1
 10999     0D63  1303               	bcf	3,6	;RP1=0, select bank1
 11000     0D64  083F               	movf	(efgtoa@ou+2)^(0+128),w
 11001     0D65  1283               	bcf	3,5	;RP0=0, select bank0
 11002     0D66  1303               	bcf	3,6	;RP1=0, select bank0
 11003     0D67  00CE               	movwf	___flmul@a+2
 11004     0D68  1683               	bsf	3,5	;RP0=1, select bank1
 11005     0D69  1303               	bcf	3,6	;RP1=0, select bank1
 11006     0D6A  083E               	movf	(efgtoa@ou+1)^(0+128),w
 11007     0D6B  1283               	bcf	3,5	;RP0=0, select bank0
 11008     0D6C  1303               	bcf	3,6	;RP1=0, select bank0
 11009     0D6D  00CD               	movwf	___flmul@a+1
 11010     0D6E  1683               	bsf	3,5	;RP0=1, select bank1
 11011     0D6F  1303               	bcf	3,6	;RP1=0, select bank1
 11012     0D70  083D               	movf	efgtoa@ou^(0+128),w
 11013     0D71  1283               	bcf	3,5	;RP0=0, select bank0
 11014     0D72  1303               	bcf	3,6	;RP1=0, select bank0
 11015     0D73  00CC               	movwf	___flmul@a
 11016     0D74  120A  118A  2050  120A  158A  	fcall	___flmul
 11017     0D79  1283               	bcf	3,5	;RP0=0, select bank0
 11018     0D7A  1303               	bcf	3,6	;RP1=0, select bank0
 11019     0D7B  084B               	movf	?___flmul+3,w
 11020     0D7C  1683               	bsf	3,5	;RP0=1, select bank1
 11021     0D7D  1303               	bcf	3,6	;RP1=0, select bank1
 11022     0D7E  00C0               	movwf	(efgtoa@ou+3)^(0+128)
 11023     0D7F  1283               	bcf	3,5	;RP0=0, select bank0
 11024     0D80  1303               	bcf	3,6	;RP1=0, select bank0
 11025     0D81  084A               	movf	?___flmul+2,w
 11026     0D82  1683               	bsf	3,5	;RP0=1, select bank1
 11027     0D83  1303               	bcf	3,6	;RP1=0, select bank1
 11028     0D84  00BF               	movwf	(efgtoa@ou+2)^(0+128)
 11029     0D85  1283               	bcf	3,5	;RP0=0, select bank0
 11030     0D86  1303               	bcf	3,6	;RP1=0, select bank0
 11031     0D87  0849               	movf	?___flmul+1,w
 11032     0D88  1683               	bsf	3,5	;RP0=1, select bank1
 11033     0D89  1303               	bcf	3,6	;RP1=0, select bank1
 11034     0D8A  00BE               	movwf	(efgtoa@ou+1)^(0+128)
 11035     0D8B  1283               	bcf	3,5	;RP0=0, select bank0
 11036     0D8C  1303               	bcf	3,6	;RP1=0, select bank0
 11037     0D8D  0848               	movf	?___flmul,w
 11038     0D8E  1683               	bsf	3,5	;RP0=1, select bank1
 11039     0D8F  1303               	bcf	3,6	;RP1=0, select bank1
 11040     0D90  00BD               	movwf	efgtoa@ou^(0+128)
 11041     0D91                     l4213:
 11042                           
 11043                           ;C:\Program Files\Microchip\xc8\v2.46\pic\sources\c99\common\doprnt.c: 762:   if (nmode 
      +                          == 'f') {
 11044     0D91  3066               	movlw	102
 11045     0D92  0633               	xorwf	efgtoa@nmode^(0+128),w
 11046     0D93  1D03               	btfss	3,2
 11047     0D94  2D96               	goto	u6941
 11048     0D95  2D97               	goto	u6940
 11049     0D96                     u6941:
 11050     0D96  2D9D               	goto	l828
 11051     0D97                     u6940:
 11052     0D97                     l4215:
 11053                           
 11054                           ;C:\Program Files\Microchip\xc8\v2.46\pic\sources\c99\common\doprnt.c: 764:    m++;
 11055     0D97  3001               	movlw	1
 11056     0D98  07B6               	addwf	efgtoa@m^(0+128),f
 11057     0D99  1803               	skipnc
 11058     0D9A  0AB7               	incf	(efgtoa@m+1)^(0+128),f
 11059     0D9B  3000               	movlw	0
 11060     0D9C  07B7               	addwf	(efgtoa@m+1)^(0+128),f
 11061     0D9D                     l828:	
 11062                           ;C:\Program Files\Microchip\xc8\v2.46\pic\sources\c99\common\doprnt.c: 767:  }
 11063                           
 11064                           
 11065                           ;C:\Program Files\Microchip\xc8\v2.46\pic\sources\c99\common\doprnt.c: 770:     u = ou;
 11066     0D9D  1683               	bsf	3,5	;RP0=1, select bank1
 11067     0D9E  1303               	bcf	3,6	;RP1=0, select bank1
 11068     0D9F  0840               	movf	(efgtoa@ou+3)^(0+128),w
 11069     0DA0  00D5               	movwf	(efgtoa@u+3)^(0+128)
 11070     0DA1  083F               	movf	(efgtoa@ou+2)^(0+128),w
 11071     0DA2  00D4               	movwf	(efgtoa@u+2)^(0+128)
 11072     0DA3  083E               	movf	(efgtoa@ou+1)^(0+128),w
 11073     0DA4  00D3               	movwf	(efgtoa@u+1)^(0+128)
 11074     0DA5  083D               	movf	efgtoa@ou^(0+128),w
 11075     0DA6  00D2               	movwf	efgtoa@u^(0+128)
 11076                           
 11077                           ;C:\Program Files\Microchip\xc8\v2.46\pic\sources\c99\common\doprnt.c: 774:  ne = e;
 11078     0DA7  083A               	movf	(efgtoa@e+1)^(0+128),w
 11079     0DA8  00AA               	movwf	(efgtoa@ne+1)^(0+128)
 11080     0DA9  0839               	movf	efgtoa@e^(0+128),w
 11081     0DAA  00A9               	movwf	efgtoa@ne^(0+128)
 11082     0DAB                     l4217:
 11083                           
 11084                           ;C:\Program Files\Microchip\xc8\v2.46\pic\sources\c99\common\doprnt.c: 776:     pp = 0;
 11085     0DAB  01B1               	clrf	efgtoa@pp^(0+128)
 11086     0DAC                     l4219:
 11087                           
 11088                           ;C:\Program Files\Microchip\xc8\v2.46\pic\sources\c99\common\doprnt.c: 777:     t = 0;
 11089     0DAC  01AD               	clrf	efgtoa@t^(0+128)
 11090     0DAD  01AE               	clrf	(efgtoa@t+1)^(0+128)
 11091     0DAE                     l4221:
 11092                           
 11093                           ;C:\Program Files\Microchip\xc8\v2.46\pic\sources\c99\common\doprnt.c: 778:     i = 0;
 11094     0DAE  01C1               	clrf	efgtoa@i^(0+128)
 11095     0DAF  01C2               	clrf	(efgtoa@i+1)^(0+128)
 11096                           
 11097                           ;C:\Program Files\Microchip\xc8\v2.46\pic\sources\c99\common\doprnt.c: 779:     while ((
      +                          i < m) && (n < (80 - 5))) {
 11098     0DB0  2F73               	goto	l4265
 11099     0DB1                     l4223:
 11100                           
 11101                           ;C:\Program Files\Microchip\xc8\v2.46\pic\sources\c99\common\doprnt.c: 780:         l = 
      +                          floorf(h/u.f);
 11102     0DB1  1683               	bsf	3,5	;RP0=1, select bank1
 11103     0DB2  1303               	bcf	3,6	;RP1=0, select bank1
 11104     0DB3  0855               	movf	(efgtoa@u+3)^(0+128),w
 11105     0DB4  1283               	bcf	3,5	;RP0=0, select bank0
 11106     0DB5  1303               	bcf	3,6	;RP1=0, select bank0
 11107     0DB6  00B1               	movwf	___fldiv@a+3
 11108     0DB7  1683               	bsf	3,5	;RP0=1, select bank1
 11109     0DB8  1303               	bcf	3,6	;RP1=0, select bank1
 11110     0DB9  0854               	movf	(efgtoa@u+2)^(0+128),w
 11111     0DBA  1283               	bcf	3,5	;RP0=0, select bank0
 11112     0DBB  1303               	bcf	3,6	;RP1=0, select bank0
 11113     0DBC  00B0               	movwf	___fldiv@a+2
 11114     0DBD  1683               	bsf	3,5	;RP0=1, select bank1
 11115     0DBE  1303               	bcf	3,6	;RP1=0, select bank1
 11116     0DBF  0853               	movf	(efgtoa@u+1)^(0+128),w
 11117     0DC0  1283               	bcf	3,5	;RP0=0, select bank0
 11118     0DC1  1303               	bcf	3,6	;RP1=0, select bank0
 11119     0DC2  00AF               	movwf	___fldiv@a+1
 11120     0DC3  1683               	bsf	3,5	;RP0=1, select bank1
 11121     0DC4  1303               	bcf	3,6	;RP1=0, select bank1
 11122     0DC5  0852               	movf	efgtoa@u^(0+128),w
 11123     0DC6  1283               	bcf	3,5	;RP0=0, select bank0
 11124     0DC7  1303               	bcf	3,6	;RP1=0, select bank0
 11125     0DC8  00AE               	movwf	___fldiv@a
 11126     0DC9  1683               	bsf	3,5	;RP0=1, select bank1
 11127     0DCA  1303               	bcf	3,6	;RP1=0, select bank1
 11128     0DCB  0846               	movf	(efgtoa@h+3)^(0+128),w
 11129     0DCC  1283               	bcf	3,5	;RP0=0, select bank0
 11130     0DCD  1303               	bcf	3,6	;RP1=0, select bank0
 11131     0DCE  00B5               	movwf	___fldiv@b+3
 11132     0DCF  1683               	bsf	3,5	;RP0=1, select bank1
 11133     0DD0  1303               	bcf	3,6	;RP1=0, select bank1
 11134     0DD1  0845               	movf	(efgtoa@h+2)^(0+128),w
 11135     0DD2  1283               	bcf	3,5	;RP0=0, select bank0
 11136     0DD3  1303               	bcf	3,6	;RP1=0, select bank0
 11137     0DD4  00B4               	movwf	___fldiv@b+2
 11138     0DD5  1683               	bsf	3,5	;RP0=1, select bank1
 11139     0DD6  1303               	bcf	3,6	;RP1=0, select bank1
 11140     0DD7  0844               	movf	(efgtoa@h+1)^(0+128),w
 11141     0DD8  1283               	bcf	3,5	;RP0=0, select bank0
 11142     0DD9  1303               	bcf	3,6	;RP1=0, select bank0
 11143     0DDA  00B3               	movwf	___fldiv@b+1
 11144     0DDB  1683               	bsf	3,5	;RP0=1, select bank1
 11145     0DDC  1303               	bcf	3,6	;RP1=0, select bank1
 11146     0DDD  0843               	movf	efgtoa@h^(0+128),w
 11147     0DDE  1283               	bcf	3,5	;RP0=0, select bank0
 11148     0DDF  1303               	bcf	3,6	;RP1=0, select bank0
 11149     0DE0  00B2               	movwf	___fldiv@b
 11150     0DE1  120A  118A  25ED  120A  158A  	fcall	___fldiv
 11151     0DE6  1283               	bcf	3,5	;RP0=0, select bank0
 11152     0DE7  1303               	bcf	3,6	;RP1=0, select bank0
 11153     0DE8  0831               	movf	?___fldiv+3,w
 11154     0DE9  00CB               	movwf	floorf@x+3
 11155     0DEA  0830               	movf	?___fldiv+2,w
 11156     0DEB  00CA               	movwf	floorf@x+2
 11157     0DEC  082F               	movf	?___fldiv+1,w
 11158     0DED  00C9               	movwf	floorf@x+1
 11159     0DEE  082E               	movf	?___fldiv,w
 11160     0DEF  00C8               	movwf	floorf@x
 11161     0DF0  160A  118A  222E  120A  158A  	fcall	_floorf
 11162     0DF5  1283               	bcf	3,5	;RP0=0, select bank0
 11163     0DF6  1303               	bcf	3,6	;RP1=0, select bank0
 11164     0DF7  084B               	movf	?_floorf+3,w
 11165     0DF8  1683               	bsf	3,5	;RP0=1, select bank1
 11166     0DF9  1303               	bcf	3,6	;RP1=0, select bank1
 11167     0DFA  00CA               	movwf	(efgtoa@l+3)^(0+128)
 11168     0DFB  1283               	bcf	3,5	;RP0=0, select bank0
 11169     0DFC  1303               	bcf	3,6	;RP1=0, select bank0
 11170     0DFD  084A               	movf	?_floorf+2,w
 11171     0DFE  1683               	bsf	3,5	;RP0=1, select bank1
 11172     0DFF  1303               	bcf	3,6	;RP1=0, select bank1
 11173     0E00  00C9               	movwf	(efgtoa@l+2)^(0+128)
 11174     0E01  1283               	bcf	3,5	;RP0=0, select bank0
 11175     0E02  1303               	bcf	3,6	;RP1=0, select bank0
 11176     0E03  0849               	movf	?_floorf+1,w
 11177     0E04  1683               	bsf	3,5	;RP0=1, select bank1
 11178     0E05  1303               	bcf	3,6	;RP1=0, select bank1
 11179     0E06  00C8               	movwf	(efgtoa@l+1)^(0+128)
 11180     0E07  1283               	bcf	3,5	;RP0=0, select bank0
 11181     0E08  1303               	bcf	3,6	;RP1=0, select bank0
 11182     0E09  0848               	movf	?_floorf,w
 11183     0E0A  1683               	bsf	3,5	;RP0=1, select bank1
 11184     0E0B  1303               	bcf	3,6	;RP1=0, select bank1
 11185     0E0C  00C7               	movwf	efgtoa@l^(0+128)
 11186                           
 11187                           ;C:\Program Files\Microchip\xc8\v2.46\pic\sources\c99\common\doprnt.c: 781:         d = 
      +                          (int)l > 9 ? 9 : (int)l;
 11188     0E0D  084A               	movf	(efgtoa@l+3)^(0+128),w
 11189     0E0E  1283               	bcf	3,5	;RP0=0, select bank0
 11190     0E0F  1303               	bcf	3,6	;RP1=0, select bank0
 11191     0E10  00A3               	movwf	___fltol@f1+3
 11192     0E11  1683               	bsf	3,5	;RP0=1, select bank1
 11193     0E12  1303               	bcf	3,6	;RP1=0, select bank1
 11194     0E13  0849               	movf	(efgtoa@l+2)^(0+128),w
 11195     0E14  1283               	bcf	3,5	;RP0=0, select bank0
 11196     0E15  1303               	bcf	3,6	;RP1=0, select bank0
 11197     0E16  00A2               	movwf	___fltol@f1+2
 11198     0E17  1683               	bsf	3,5	;RP0=1, select bank1
 11199     0E18  1303               	bcf	3,6	;RP1=0, select bank1
 11200     0E19  0848               	movf	(efgtoa@l+1)^(0+128),w
 11201     0E1A  1283               	bcf	3,5	;RP0=0, select bank0
 11202     0E1B  1303               	bcf	3,6	;RP1=0, select bank0
 11203     0E1C  00A1               	movwf	___fltol@f1+1
 11204     0E1D  1683               	bsf	3,5	;RP0=1, select bank1
 11205     0E1E  1303               	bcf	3,6	;RP1=0, select bank1
 11206     0E1F  0847               	movf	efgtoa@l^(0+128),w
 11207     0E20  1283               	bcf	3,5	;RP0=0, select bank0
 11208     0E21  1303               	bcf	3,6	;RP1=0, select bank0
 11209     0E22  00A0               	movwf	___fltol@f1
 11210     0E23  160A  158A  2507  120A  158A  	fcall	___fltol
 11211     0E28  1283               	bcf	3,5	;RP0=0, select bank0
 11212     0E29  1303               	bcf	3,6	;RP1=0, select bank0
 11213     0E2A  0821               	movf	?___fltol+1,w
 11214     0E2B  3A80               	xorlw	128
 11215     0E2C  00FF               	movwf	btemp+1
 11216     0E2D  3080               	movlw	128
 11217     0E2E  027F               	subwf	btemp+1,w
 11218     0E2F  1D03               	skipz
 11219     0E30  2E33               	goto	u6955
 11220     0E31  300A               	movlw	10
 11221     0E32  0220               	subwf	?___fltol,w
 11222     0E33                     u6955:
 11223     0E33  1803               	skipnc
 11224     0E34  2E36               	goto	u6951
 11225     0E35  2E37               	goto	u6950
 11226     0E36                     u6951:
 11227     0E36  2E61               	goto	l4227
 11228     0E37                     u6950:
 11229     0E37                     l4225:
 11230     0E37  1683               	bsf	3,5	;RP0=1, select bank1
 11231     0E38  1303               	bcf	3,6	;RP1=0, select bank1
 11232     0E39  084A               	movf	(efgtoa@l+3)^(0+128),w
 11233     0E3A  1283               	bcf	3,5	;RP0=0, select bank0
 11234     0E3B  1303               	bcf	3,6	;RP1=0, select bank0
 11235     0E3C  00A3               	movwf	___fltol@f1+3
 11236     0E3D  1683               	bsf	3,5	;RP0=1, select bank1
 11237     0E3E  1303               	bcf	3,6	;RP1=0, select bank1
 11238     0E3F  0849               	movf	(efgtoa@l+2)^(0+128),w
 11239     0E40  1283               	bcf	3,5	;RP0=0, select bank0
 11240     0E41  1303               	bcf	3,6	;RP1=0, select bank0
 11241     0E42  00A2               	movwf	___fltol@f1+2
 11242     0E43  1683               	bsf	3,5	;RP0=1, select bank1
 11243     0E44  1303               	bcf	3,6	;RP1=0, select bank1
 11244     0E45  0848               	movf	(efgtoa@l+1)^(0+128),w
 11245     0E46  1283               	bcf	3,5	;RP0=0, select bank0
 11246     0E47  1303               	bcf	3,6	;RP1=0, select bank0
 11247     0E48  00A1               	movwf	___fltol@f1+1
 11248     0E49  1683               	bsf	3,5	;RP0=1, select bank1
 11249     0E4A  1303               	bcf	3,6	;RP1=0, select bank1
 11250     0E4B  0847               	movf	efgtoa@l^(0+128),w
 11251     0E4C  1283               	bcf	3,5	;RP0=0, select bank0
 11252     0E4D  1303               	bcf	3,6	;RP1=0, select bank0
 11253     0E4E  00A0               	movwf	___fltol@f1
 11254     0E4F  160A  158A  2507  120A  158A  	fcall	___fltol
 11255     0E54  1283               	bcf	3,5	;RP0=0, select bank0
 11256     0E55  1303               	bcf	3,6	;RP1=0, select bank0
 11257     0E56  0821               	movf	?___fltol+1,w
 11258     0E57  1683               	bsf	3,5	;RP0=1, select bank1
 11259     0E58  1303               	bcf	3,6	;RP1=0, select bank1
 11260     0E59  00B5               	movwf	(efgtoa@d+1)^(0+128)
 11261     0E5A  1283               	bcf	3,5	;RP0=0, select bank0
 11262     0E5B  1303               	bcf	3,6	;RP1=0, select bank0
 11263     0E5C  0820               	movf	?___fltol,w
 11264     0E5D  1683               	bsf	3,5	;RP0=1, select bank1
 11265     0E5E  1303               	bcf	3,6	;RP1=0, select bank1
 11266     0E5F  00B4               	movwf	efgtoa@d^(0+128)
 11267     0E60  2E67               	goto	l4229
 11268     0E61                     l4227:
 11269     0E61  3009               	movlw	9
 11270     0E62  1683               	bsf	3,5	;RP0=1, select bank1
 11271     0E63  1303               	bcf	3,6	;RP1=0, select bank1
 11272     0E64  00B4               	movwf	efgtoa@d^(0+128)
 11273     0E65  3000               	movlw	0
 11274     0E66  00B5               	movwf	(efgtoa@d^(0+128)+1)
 11275     0E67                     l4229:
 11276                           
 11277                           ;C:\Program Files\Microchip\xc8\v2.46\pic\sources\c99\common\doprnt.c: 792:   {;C:\Progr
      +                          am Files\Microchip\xc8\v2.46\pic\sources\c99\common\doprnt.c: 793:             if (!pp &
      +                          & (ne < 0)) {
 11278     0E67  0831               	movf	efgtoa@pp^(0+128),w
 11279     0E68  1D03               	btfss	3,2
 11280     0E69  2E6B               	goto	u6961
 11281     0E6A  2E6C               	goto	u6960
 11282     0E6B                     u6961:
 11283     0E6B  2E9D               	goto	l4249
 11284     0E6C                     u6960:
 11285     0E6C                     l4231:
 11286     0E6C  1FAA               	btfss	(efgtoa@ne+1)^(0+128),7
 11287     0E6D  2E6F               	goto	u6971
 11288     0E6E  2E70               	goto	u6970
 11289     0E6F                     u6971:
 11290     0E6F  2E9D               	goto	l4249
 11291     0E70                     u6970:
 11292     0E70                     l4233:
 11293                           
 11294                           ;C:\Program Files\Microchip\xc8\v2.46\pic\sources\c99\common\doprnt.c: 794:             
      +                              dbuf[n++] = '.';
 11295     0E70  0850               	movf	efgtoa@n^(0+128),w
 11296     0E71  3E10               	addlw	(low (_dbuf| (0+256)))& (0+255)
 11297     0E72  0084               	movwf	4
 11298     0E73  302E               	movlw	46
 11299     0E74  1783               	bsf	3,7	;select IRP bank2
 11300     0E75  0080               	movwf	0
 11301     0E76                     l4235:
 11302     0E76  3001               	movlw	1
 11303     0E77  07D0               	addwf	efgtoa@n^(0+128),f
 11304     0E78  1803               	skipnc
 11305     0E79  0AD1               	incf	(efgtoa@n+1)^(0+128),f
 11306     0E7A  3000               	movlw	0
 11307     0E7B  07D1               	addwf	(efgtoa@n+1)^(0+128),f
 11308     0E7C                     l4237:
 11309                           
 11310                           ;C:\Program Files\Microchip\xc8\v2.46\pic\sources\c99\common\doprnt.c: 795:             
      +                              --w;
 11311     0E7C  30FF               	movlw	255
 11312     0E7D  07BB               	addwf	efgtoa@w^(0+128),f
 11313     0E7E  1803               	skipnc
 11314     0E7F  0ABC               	incf	(efgtoa@w+1)^(0+128),f
 11315     0E80  30FF               	movlw	255
 11316     0E81  07BC               	addwf	(efgtoa@w+1)^(0+128),f
 11317     0E82                     l4239:
 11318                           
 11319                           ;C:\Program Files\Microchip\xc8\v2.46\pic\sources\c99\common\doprnt.c: 796:             
      +                              pp = 1;
 11320     0E82  01B1               	clrf	efgtoa@pp^(0+128)
 11321     0E83  0AB1               	incf	efgtoa@pp^(0+128),f
 11322     0E84  2E9D               	goto	l4249
 11323     0E85                     l4241:
 11324                           
 11325                           ;C:\Program Files\Microchip\xc8\v2.46\pic\sources\c99\common\doprnt.c: 799:             
      +                              dbuf[n++] = '0';
 11326     0E85  0850               	movf	efgtoa@n^(0+128),w
 11327     0E86  3E10               	addlw	(low (_dbuf| (0+256)))& (0+255)
 11328     0E87  0084               	movwf	4
 11329     0E88  3030               	movlw	48
 11330     0E89  1783               	bsf	3,7	;select IRP bank2
 11331     0E8A  0080               	movwf	0
 11332     0E8B                     l4243:
 11333     0E8B  3001               	movlw	1
 11334     0E8C  07D0               	addwf	efgtoa@n^(0+128),f
 11335     0E8D  1803               	skipnc
 11336     0E8E  0AD1               	incf	(efgtoa@n+1)^(0+128),f
 11337     0E8F  3000               	movlw	0
 11338     0E90  07D1               	addwf	(efgtoa@n+1)^(0+128),f
 11339     0E91                     l4245:
 11340                           
 11341                           ;C:\Program Files\Microchip\xc8\v2.46\pic\sources\c99\common\doprnt.c: 800:             
      +                              --w;
 11342     0E91  30FF               	movlw	255
 11343     0E92  07BB               	addwf	efgtoa@w^(0+128),f
 11344     0E93  1803               	skipnc
 11345     0E94  0ABC               	incf	(efgtoa@w+1)^(0+128),f
 11346     0E95  30FF               	movlw	255
 11347     0E96  07BC               	addwf	(efgtoa@w+1)^(0+128),f
 11348     0E97                     l4247:
 11349                           
 11350                           ;C:\Program Files\Microchip\xc8\v2.46\pic\sources\c99\common\doprnt.c: 801:             
      +                              --t;
 11351     0E97  30FF               	movlw	255
 11352     0E98  07AD               	addwf	efgtoa@t^(0+128),f
 11353     0E99  1803               	skipnc
 11354     0E9A  0AAE               	incf	(efgtoa@t+1)^(0+128),f
 11355     0E9B  30FF               	movlw	255
 11356     0E9C  07AE               	addwf	(efgtoa@t+1)^(0+128),f
 11357     0E9D                     l4249:
 11358                           
 11359                           ;C:\Program Files\Microchip\xc8\v2.46\pic\sources\c99\common\doprnt.c: 798:             
      +                          while (t) {
 11360     0E9D  082D               	movf	efgtoa@t^(0+128),w
 11361     0E9E  042E               	iorwf	(efgtoa@t+1)^(0+128),w
 11362     0E9F  1D03               	btfss	3,2
 11363     0EA0  2EA2               	goto	u6981
 11364     0EA1  2EA3               	goto	u6980
 11365     0EA2                     u6981:
 11366     0EA2  2E85               	goto	l4241
 11367     0EA3                     u6980:
 11368     0EA3                     l4251:
 11369                           
 11370                           ;C:\Program Files\Microchip\xc8\v2.46\pic\sources\c99\common\doprnt.c: 803:             
      +                          dbuf[n++] = (char)((int)'0' + d);
 11371     0EA3  0850               	movf	efgtoa@n^(0+128),w
 11372     0EA4  3E10               	addlw	(low (_dbuf| (0+256)))& (0+255)
 11373     0EA5  0084               	movwf	4
 11374     0EA6  0834               	movf	efgtoa@d^(0+128),w
 11375     0EA7  3E30               	addlw	48
 11376     0EA8  1783               	bsf	3,7	;select IRP bank2
 11377     0EA9  0080               	movwf	0
 11378     0EAA                     l4253:
 11379     0EAA  3001               	movlw	1
 11380     0EAB  07D0               	addwf	efgtoa@n^(0+128),f
 11381     0EAC  1803               	skipnc
 11382     0EAD  0AD1               	incf	(efgtoa@n+1)^(0+128),f
 11383     0EAE  3000               	movlw	0
 11384     0EAF  07D1               	addwf	(efgtoa@n+1)^(0+128),f
 11385     0EB0                     l4255:
 11386                           
 11387                           ;C:\Program Files\Microchip\xc8\v2.46\pic\sources\c99\common\doprnt.c: 804:             
      +                          --w;
 11388     0EB0  30FF               	movlw	255
 11389     0EB1  07BB               	addwf	efgtoa@w^(0+128),f
 11390     0EB2  1803               	skipnc
 11391     0EB3  0ABC               	incf	(efgtoa@w+1)^(0+128),f
 11392     0EB4  30FF               	movlw	255
 11393     0EB5  07BC               	addwf	(efgtoa@w+1)^(0+128),f
 11394     0EB6                     l4257:
 11395                           
 11396                           ;C:\Program Files\Microchip\xc8\v2.46\pic\sources\c99\common\doprnt.c: 805:         };C:
      +                          \Program Files\Microchip\xc8\v2.46\pic\sources\c99\common\doprnt.c: 806:         h -= l*
      +                          u.f;
 11397     0EB6  0855               	movf	(efgtoa@u+3)^(0+128),w
 11398     0EB7  1283               	bcf	3,5	;RP0=0, select bank0
 11399     0EB8  1303               	bcf	3,6	;RP1=0, select bank0
 11400     0EB9  00CF               	movwf	___flmul@a+3
 11401     0EBA  1683               	bsf	3,5	;RP0=1, select bank1
 11402     0EBB  1303               	bcf	3,6	;RP1=0, select bank1
 11403     0EBC  0854               	movf	(efgtoa@u+2)^(0+128),w
 11404     0EBD  1283               	bcf	3,5	;RP0=0, select bank0
 11405     0EBE  1303               	bcf	3,6	;RP1=0, select bank0
 11406     0EBF  00CE               	movwf	___flmul@a+2
 11407     0EC0  1683               	bsf	3,5	;RP0=1, select bank1
 11408     0EC1  1303               	bcf	3,6	;RP1=0, select bank1
 11409     0EC2  0853               	movf	(efgtoa@u+1)^(0+128),w
 11410     0EC3  1283               	bcf	3,5	;RP0=0, select bank0
 11411     0EC4  1303               	bcf	3,6	;RP1=0, select bank0
 11412     0EC5  00CD               	movwf	___flmul@a+1
 11413     0EC6  1683               	bsf	3,5	;RP0=1, select bank1
 11414     0EC7  1303               	bcf	3,6	;RP1=0, select bank1
 11415     0EC8  0852               	movf	efgtoa@u^(0+128),w
 11416     0EC9  1283               	bcf	3,5	;RP0=0, select bank0
 11417     0ECA  1303               	bcf	3,6	;RP1=0, select bank0
 11418     0ECB  00CC               	movwf	___flmul@a
 11419     0ECC  1683               	bsf	3,5	;RP0=1, select bank1
 11420     0ECD  1303               	bcf	3,6	;RP1=0, select bank1
 11421     0ECE  084A               	movf	(efgtoa@l+3)^(0+128),w
 11422     0ECF  1283               	bcf	3,5	;RP0=0, select bank0
 11423     0ED0  1303               	bcf	3,6	;RP1=0, select bank0
 11424     0ED1  00CB               	movwf	___flmul@b+3
 11425     0ED2  1683               	bsf	3,5	;RP0=1, select bank1
 11426     0ED3  1303               	bcf	3,6	;RP1=0, select bank1
 11427     0ED4  0849               	movf	(efgtoa@l+2)^(0+128),w
 11428     0ED5  1283               	bcf	3,5	;RP0=0, select bank0
 11429     0ED6  1303               	bcf	3,6	;RP1=0, select bank0
 11430     0ED7  00CA               	movwf	___flmul@b+2
 11431     0ED8  1683               	bsf	3,5	;RP0=1, select bank1
 11432     0ED9  1303               	bcf	3,6	;RP1=0, select bank1
 11433     0EDA  0848               	movf	(efgtoa@l+1)^(0+128),w
 11434     0EDB  1283               	bcf	3,5	;RP0=0, select bank0
 11435     0EDC  1303               	bcf	3,6	;RP1=0, select bank0
 11436     0EDD  00C9               	movwf	___flmul@b+1
 11437     0EDE  1683               	bsf	3,5	;RP0=1, select bank1
 11438     0EDF  1303               	bcf	3,6	;RP1=0, select bank1
 11439     0EE0  0847               	movf	efgtoa@l^(0+128),w
 11440     0EE1  1283               	bcf	3,5	;RP0=0, select bank0
 11441     0EE2  1303               	bcf	3,6	;RP1=0, select bank0
 11442     0EE3  00C8               	movwf	___flmul@b
 11443     0EE4  120A  118A  2050  120A  158A  	fcall	___flmul
 11444     0EE9  1283               	bcf	3,5	;RP0=0, select bank0
 11445     0EEA  1303               	bcf	3,6	;RP1=0, select bank0
 11446     0EEB  084B               	movf	?___flmul+3,w
 11447     0EEC  00E5               	movwf	___flsub@a+3
 11448     0EED  084A               	movf	?___flmul+2,w
 11449     0EEE  00E4               	movwf	___flsub@a+2
 11450     0EEF  0849               	movf	?___flmul+1,w
 11451     0EF0  00E3               	movwf	___flsub@a+1
 11452     0EF1  0848               	movf	?___flmul,w
 11453     0EF2  00E2               	movwf	___flsub@a
 11454     0EF3  1683               	bsf	3,5	;RP0=1, select bank1
 11455     0EF4  1303               	bcf	3,6	;RP1=0, select bank1
 11456     0EF5  0846               	movf	(efgtoa@h+3)^(0+128),w
 11457     0EF6  1283               	bcf	3,5	;RP0=0, select bank0
 11458     0EF7  1303               	bcf	3,6	;RP1=0, select bank0
 11459     0EF8  00E9               	movwf	___flsub@b+3
 11460     0EF9  1683               	bsf	3,5	;RP0=1, select bank1
 11461     0EFA  1303               	bcf	3,6	;RP1=0, select bank1
 11462     0EFB  0845               	movf	(efgtoa@h+2)^(0+128),w
 11463     0EFC  1283               	bcf	3,5	;RP0=0, select bank0
 11464     0EFD  1303               	bcf	3,6	;RP1=0, select bank0
 11465     0EFE  00E8               	movwf	___flsub@b+2
 11466     0EFF  1683               	bsf	3,5	;RP0=1, select bank1
 11467     0F00  1303               	bcf	3,6	;RP1=0, select bank1
 11468     0F01  0844               	movf	(efgtoa@h+1)^(0+128),w
 11469     0F02  1283               	bcf	3,5	;RP0=0, select bank0
 11470     0F03  1303               	bcf	3,6	;RP1=0, select bank0
 11471     0F04  00E7               	movwf	___flsub@b+1
 11472     0F05  1683               	bsf	3,5	;RP0=1, select bank1
 11473     0F06  1303               	bcf	3,6	;RP1=0, select bank1
 11474     0F07  0843               	movf	efgtoa@h^(0+128),w
 11475     0F08  1283               	bcf	3,5	;RP0=0, select bank0
 11476     0F09  1303               	bcf	3,6	;RP1=0, select bank0
 11477     0F0A  00E6               	movwf	___flsub@b
 11478     0F0B  160A  158A  225D  120A  158A  	fcall	___flsub
 11479     0F10  1283               	bcf	3,5	;RP0=0, select bank0
 11480     0F11  1303               	bcf	3,6	;RP1=0, select bank0
 11481     0F12  0865               	movf	?___flsub+3,w
 11482     0F13  1683               	bsf	3,5	;RP0=1, select bank1
 11483     0F14  1303               	bcf	3,6	;RP1=0, select bank1
 11484     0F15  00C6               	movwf	(efgtoa@h+3)^(0+128)
 11485     0F16  1283               	bcf	3,5	;RP0=0, select bank0
 11486     0F17  1303               	bcf	3,6	;RP1=0, select bank0
 11487     0F18  0864               	movf	?___flsub+2,w
 11488     0F19  1683               	bsf	3,5	;RP0=1, select bank1
 11489     0F1A  1303               	bcf	3,6	;RP1=0, select bank1
 11490     0F1B  00C5               	movwf	(efgtoa@h+2)^(0+128)
 11491     0F1C  1283               	bcf	3,5	;RP0=0, select bank0
 11492     0F1D  1303               	bcf	3,6	;RP1=0, select bank0
 11493     0F1E  0863               	movf	?___flsub+1,w
 11494     0F1F  1683               	bsf	3,5	;RP0=1, select bank1
 11495     0F20  1303               	bcf	3,6	;RP1=0, select bank1
 11496     0F21  00C4               	movwf	(efgtoa@h+1)^(0+128)
 11497     0F22  1283               	bcf	3,5	;RP0=0, select bank0
 11498     0F23  1303               	bcf	3,6	;RP1=0, select bank0
 11499     0F24  0862               	movf	?___flsub,w
 11500     0F25  1683               	bsf	3,5	;RP0=1, select bank1
 11501     0F26  1303               	bcf	3,6	;RP1=0, select bank1
 11502     0F27  00C3               	movwf	efgtoa@h^(0+128)
 11503     0F28                     l4259:
 11504                           
 11505                           ;C:\Program Files\Microchip\xc8\v2.46\pic\sources\c99\common\doprnt.c: 807:         u.f 
      +                          = u.f/10.0;
 11506     0F28  3041               	movlw	65
 11507     0F29  1283               	bcf	3,5	;RP0=0, select bank0
 11508     0F2A  1303               	bcf	3,6	;RP1=0, select bank0
 11509     0F2B  00B1               	movwf	___fldiv@a+3
 11510     0F2C  3020               	movlw	32
 11511     0F2D  00B0               	movwf	___fldiv@a+2
 11512     0F2E  3000               	movlw	0
 11513     0F2F  00AF               	movwf	___fldiv@a+1
 11514     0F30  3000               	movlw	0
 11515     0F31  00AE               	movwf	___fldiv@a
 11516     0F32  1683               	bsf	3,5	;RP0=1, select bank1
 11517     0F33  1303               	bcf	3,6	;RP1=0, select bank1
 11518     0F34  0855               	movf	(efgtoa@u+3)^(0+128),w
 11519     0F35  1283               	bcf	3,5	;RP0=0, select bank0
 11520     0F36  1303               	bcf	3,6	;RP1=0, select bank0
 11521     0F37  00B5               	movwf	___fldiv@b+3
 11522     0F38  1683               	bsf	3,5	;RP0=1, select bank1
 11523     0F39  1303               	bcf	3,6	;RP1=0, select bank1
 11524     0F3A  0854               	movf	(efgtoa@u+2)^(0+128),w
 11525     0F3B  1283               	bcf	3,5	;RP0=0, select bank0
 11526     0F3C  1303               	bcf	3,6	;RP1=0, select bank0
 11527     0F3D  00B4               	movwf	___fldiv@b+2
 11528     0F3E  1683               	bsf	3,5	;RP0=1, select bank1
 11529     0F3F  1303               	bcf	3,6	;RP1=0, select bank1
 11530     0F40  0853               	movf	(efgtoa@u+1)^(0+128),w
 11531     0F41  1283               	bcf	3,5	;RP0=0, select bank0
 11532     0F42  1303               	bcf	3,6	;RP1=0, select bank0
 11533     0F43  00B3               	movwf	___fldiv@b+1
 11534     0F44  1683               	bsf	3,5	;RP0=1, select bank1
 11535     0F45  1303               	bcf	3,6	;RP1=0, select bank1
 11536     0F46  0852               	movf	efgtoa@u^(0+128),w
 11537     0F47  1283               	bcf	3,5	;RP0=0, select bank0
 11538     0F48  1303               	bcf	3,6	;RP1=0, select bank0
 11539     0F49  00B2               	movwf	___fldiv@b
 11540     0F4A  120A  118A  25ED  120A  158A  	fcall	___fldiv
 11541     0F4F  1283               	bcf	3,5	;RP0=0, select bank0
 11542     0F50  1303               	bcf	3,6	;RP1=0, select bank0
 11543     0F51  0831               	movf	?___fldiv+3,w
 11544     0F52  1683               	bsf	3,5	;RP0=1, select bank1
 11545     0F53  1303               	bcf	3,6	;RP1=0, select bank1
 11546     0F54  00D5               	movwf	(efgtoa@u+3)^(0+128)
 11547     0F55  1283               	bcf	3,5	;RP0=0, select bank0
 11548     0F56  1303               	bcf	3,6	;RP1=0, select bank0
 11549     0F57  0830               	movf	?___fldiv+2,w
 11550     0F58  1683               	bsf	3,5	;RP0=1, select bank1
 11551     0F59  1303               	bcf	3,6	;RP1=0, select bank1
 11552     0F5A  00D4               	movwf	(efgtoa@u+2)^(0+128)
 11553     0F5B  1283               	bcf	3,5	;RP0=0, select bank0
 11554     0F5C  1303               	bcf	3,6	;RP1=0, select bank0
 11555     0F5D  082F               	movf	?___fldiv+1,w
 11556     0F5E  1683               	bsf	3,5	;RP0=1, select bank1
 11557     0F5F  1303               	bcf	3,6	;RP1=0, select bank1
 11558     0F60  00D3               	movwf	(efgtoa@u+1)^(0+128)
 11559     0F61  1283               	bcf	3,5	;RP0=0, select bank0
 11560     0F62  1303               	bcf	3,6	;RP1=0, select bank0
 11561     0F63  082E               	movf	?___fldiv,w
 11562     0F64  1683               	bsf	3,5	;RP0=1, select bank1
 11563     0F65  1303               	bcf	3,6	;RP1=0, select bank1
 11564     0F66  00D2               	movwf	efgtoa@u^(0+128)
 11565     0F67                     l4261:
 11566                           
 11567                           ;C:\Program Files\Microchip\xc8\v2.46\pic\sources\c99\common\doprnt.c: 808:         --ne
      +                          ;
 11568     0F67  30FF               	movlw	255
 11569     0F68  07A9               	addwf	efgtoa@ne^(0+128),f
 11570     0F69  1803               	skipnc
 11571     0F6A  0AAA               	incf	(efgtoa@ne+1)^(0+128),f
 11572     0F6B  30FF               	movlw	255
 11573     0F6C  07AA               	addwf	(efgtoa@ne+1)^(0+128),f
 11574     0F6D                     l4263:
 11575                           
 11576                           ;C:\Program Files\Microchip\xc8\v2.46\pic\sources\c99\common\doprnt.c: 809:         ++i;
 11577     0F6D  3001               	movlw	1
 11578     0F6E  07C1               	addwf	efgtoa@i^(0+128),f
 11579     0F6F  1803               	skipnc
 11580     0F70  0AC2               	incf	(efgtoa@i+1)^(0+128),f
 11581     0F71  3000               	movlw	0
 11582     0F72  07C2               	addwf	(efgtoa@i+1)^(0+128),f
 11583     0F73                     l4265:
 11584                           
 11585                           ;C:\Program Files\Microchip\xc8\v2.46\pic\sources\c99\common\doprnt.c: 779:     while ((
      +                          i < m) && (n < (80 - 5))) {
 11586     0F73  0842               	movf	(efgtoa@i+1)^(0+128),w
 11587     0F74  3A80               	xorlw	128
 11588     0F75  00A5               	movwf	??_efgtoa^(0+128)
 11589     0F76  0837               	movf	(efgtoa@m+1)^(0+128),w
 11590     0F77  3A80               	xorlw	128
 11591     0F78  0225               	subwf	??_efgtoa^(0+128),w
 11592     0F79  1D03               	skipz
 11593     0F7A  2F7D               	goto	u6995
 11594     0F7B  0836               	movf	efgtoa@m^(0+128),w
 11595     0F7C  0241               	subwf	efgtoa@i^(0+128),w
 11596     0F7D                     u6995:
 11597     0F7D  1803               	skipnc
 11598     0F7E  2F80               	goto	u6991
 11599     0F7F  2F81               	goto	u6990
 11600     0F80                     u6991:
 11601     0F80  2F90               	goto	l4269
 11602     0F81                     u6990:
 11603     0F81                     l4267:
 11604     0F81  1683               	bsf	3,5	;RP0=1, select bank1
 11605     0F82  1303               	bcf	3,6	;RP1=0, select bank1
 11606     0F83  0851               	movf	(efgtoa@n+1)^(0+128),w
 11607     0F84  3A80               	xorlw	128
 11608     0F85  00FF               	movwf	btemp+1
 11609     0F86  3080               	movlw	128
 11610     0F87  027F               	subwf	btemp+1,w
 11611     0F88  1D03               	skipz
 11612     0F89  2F8C               	goto	u7005
 11613     0F8A  304B               	movlw	75
 11614     0F8B  0250               	subwf	efgtoa@n^(0+128),w
 11615     0F8C                     u7005:
 11616     0F8C  1C03               	skipc
 11617     0F8D  2F8F               	goto	u7001
 11618     0F8E  2F90               	goto	u7000
 11619     0F8F                     u7001:
 11620     0F8F  2DB1               	goto	l4223
 11621     0F90                     u7000:
 11622     0F90                     l4269:
 11623                           
 11624                           ;C:\Program Files\Microchip\xc8\v2.46\pic\sources\c99\common\doprnt.c: 816:  i = sizeof(
      +                          dbuf) - 1;
 11625     0F90  304F               	movlw	79
 11626     0F91  1683               	bsf	3,5	;RP0=1, select bank1
 11627     0F92  1303               	bcf	3,6	;RP1=0, select bank1
 11628     0F93  00C1               	movwf	efgtoa@i^(0+128)
 11629     0F94  3000               	movlw	0
 11630     0F95  00C2               	movwf	(efgtoa@i^(0+128)+1)
 11631     0F96                     l4271:
 11632                           
 11633                           ;C:\Program Files\Microchip\xc8\v2.46\pic\sources\c99\common\doprnt.c: 817:     dbuf[i] 
      +                          = '\0';
 11634     0F96  0841               	movf	efgtoa@i^(0+128),w
 11635     0F97  3E10               	addlw	(low (_dbuf| (0+256)))& (0+255)
 11636     0F98  0084               	movwf	4
 11637     0F99  1783               	bsf	3,7	;select IRP bank2
 11638     0F9A  0180               	clrf	0
 11639     0F9B                     l4273:
 11640                           
 11641                           ;C:\Program Files\Microchip\xc8\v2.46\pic\sources\c99\common\doprnt.c: 848:  memcpy(&dbu
      +                          f[i-n], &dbuf[0], (size_t)n);
 11642     0F9B  3010               	movlw	(low (_dbuf| (0+256)))& (0+255)
 11643     0F9C  1283               	bcf	3,5	;RP0=0, select bank0
 11644     0F9D  1303               	bcf	3,6	;RP1=0, select bank0
 11645     0F9E  00A0               	movwf	memcpy@s1
 11646     0F9F  1683               	bsf	3,5	;RP0=1, select bank1
 11647     0FA0  1303               	bcf	3,6	;RP1=0, select bank1
 11648     0FA1  0851               	movf	(efgtoa@n+1)^(0+128),w
 11649     0FA2  1283               	bcf	3,5	;RP0=0, select bank0
 11650     0FA3  1303               	bcf	3,6	;RP1=0, select bank0
 11651     0FA4  00A2               	movwf	memcpy@n+1
 11652     0FA5  1683               	bsf	3,5	;RP0=1, select bank1
 11653     0FA6  1303               	bcf	3,6	;RP1=0, select bank1
 11654     0FA7  0850               	movf	efgtoa@n^(0+128),w
 11655     0FA8  1283               	bcf	3,5	;RP0=0, select bank0
 11656     0FA9  1303               	bcf	3,6	;RP1=0, select bank0
 11657     0FAA  00A1               	movwf	memcpy@n
 11658     0FAB  3010               	movlw	(low (_dbuf| (0+256)))& (0+255)
 11659     0FAC  1683               	bsf	3,5	;RP0=1, select bank1
 11660     0FAD  1303               	bcf	3,6	;RP1=0, select bank1
 11661     0FAE  00A5               	movwf	??_efgtoa^(0+128)
 11662     0FAF  0850               	movf	efgtoa@n^(0+128),w
 11663     0FB0  02A5               	subwf	??_efgtoa^(0+128),f
 11664     0FB1  0841               	movf	efgtoa@i^(0+128),w
 11665     0FB2  0725               	addwf	??_efgtoa^(0+128),w
 11666     0FB3  160A  158A  22A8  120A  158A  	fcall	_memcpy
 11667     0FB8                     l4275:
 11668                           
 11669                           ;C:\Program Files\Microchip\xc8\v2.46\pic\sources\c99\common\doprnt.c: 849:  n = i-n;
 11670     0FB8  1683               	bsf	3,5	;RP0=1, select bank1
 11671     0FB9  1303               	bcf	3,6	;RP1=0, select bank1
 11672     0FBA  0850               	movf	efgtoa@n^(0+128),w
 11673     0FBB  0241               	subwf	efgtoa@i^(0+128),w
 11674     0FBC  00D0               	movwf	efgtoa@n^(0+128)
 11675     0FBD  0851               	movf	(efgtoa@n+1)^(0+128),w
 11676     0FBE  1C03               	skipc
 11677     0FBF  0A51               	incf	(efgtoa@n+1)^(0+128),w
 11678     0FC0  0242               	subwf	(efgtoa@i+1)^(0+128),w
 11679     0FC1  00D1               	movwf	(efgtoa@n+1)^(0+128)
 11680     0FC2                     l4277:
 11681                           
 11682                           ;C:\Program Files\Microchip\xc8\v2.46\pic\sources\c99\common\doprnt.c: 850:  i = sign ==
      +                           0 ? 0 : 1;
 11683     0FC2  084B               	movf	efgtoa@sign^(0+128),w
 11684     0FC3  1D03               	btfss	3,2
 11685     0FC4  2FC6               	goto	u7011
 11686     0FC5  2FC8               	goto	u7010
 11687     0FC6                     u7011:
 11688     0FC6  3001               	movlw	1
 11689     0FC7  2FC9               	goto	u7020
 11690     0FC8                     u7010:
 11691     0FC8  3000               	movlw	0
 11692     0FC9                     u7020:
 11693     0FC9  00A5               	movwf	??_efgtoa^(0+128)
 11694     0FCA  01A6               	clrf	(??_efgtoa^(0+128)+1)
 11695     0FCB  0825               	movf	??_efgtoa^(0+128),w
 11696     0FCC  00C1               	movwf	efgtoa@i^(0+128)
 11697     0FCD  0826               	movf	(??_efgtoa+1)^(0+128),w
 11698     0FCE  00C2               	movwf	(efgtoa@i+1)^(0+128)
 11699     0FCF                     l4279:
 11700                           
 11701                           ;C:\Program Files\Microchip\xc8\v2.46\pic\sources\c99\common\doprnt.c: 861:  if (sign) {
 11702     0FCF  084B               	movf	efgtoa@sign^(0+128),w
 11703     0FD0  1903               	btfsc	3,2
 11704     0FD1  2FD3               	goto	u7031
 11705     0FD2  2FD4               	goto	u7030
 11706     0FD3                     u7031:
 11707     0FD3  2FE0               	goto	l4283
 11708     0FD4                     u7030:
 11709     0FD4                     l4281:
 11710                           
 11711                           ;C:\Program Files\Microchip\xc8\v2.46\pic\sources\c99\common\doprnt.c: 862:   dbuf[--n] 
      +                          = sign;
 11712     0FD4  30FF               	movlw	255
 11713     0FD5  07D0               	addwf	efgtoa@n^(0+128),f
 11714     0FD6  1803               	skipnc
 11715     0FD7  0AD1               	incf	(efgtoa@n+1)^(0+128),f
 11716     0FD8  30FF               	movlw	255
 11717     0FD9  07D1               	addwf	(efgtoa@n+1)^(0+128),f
 11718     0FDA  0850               	movf	efgtoa@n^(0+128),w
 11719     0FDB  3E10               	addlw	(low (_dbuf| (0+256)))& (0+255)
 11720     0FDC  0084               	movwf	4
 11721     0FDD  084B               	movf	efgtoa@sign^(0+128),w
 11722     0FDE  1783               	bsf	3,7	;select IRP bank2
 11723     0FDF  0080               	movwf	0
 11724     0FE0                     l4283:
 11725                           
 11726                           ;C:\Program Files\Microchip\xc8\v2.46\pic\sources\c99\common\doprnt.c: 864:  w -= i;
 11727     0FE0  0841               	movf	efgtoa@i^(0+128),w
 11728     0FE1  02BB               	subwf	efgtoa@w^(0+128),f
 11729     0FE2  0842               	movf	(efgtoa@i+1)^(0+128),w
 11730     0FE3  1C03               	skipc
 11731     0FE4  03BC               	decf	(efgtoa@w+1)^(0+128),f
 11732     0FE5  02BC               	subwf	(efgtoa@w+1)^(0+128),f
 11733     0FE6                     l4285:
 11734                           
 11735                           ;C:\Program Files\Microchip\xc8\v2.46\pic\sources\c99\common\doprnt.c: 867:     return (
      +                          void) pad(fp, &dbuf[n], w);
 11736     0FE6  0850               	movf	efgtoa@n^(0+128),w
 11737     0FE7  3E10               	addlw	(low (_dbuf| (0+256)))& (0+255)
 11738     0FE8  1283               	bcf	3,5	;RP0=0, select bank0
 11739     0FE9  1303               	bcf	3,6	;RP1=0, select bank0
 11740     0FEA  00AF               	movwf	pad@buf
 11741     0FEB  1683               	bsf	3,5	;RP0=1, select bank1
 11742     0FEC  1303               	bcf	3,6	;RP1=0, select bank1
 11743     0FED  083C               	movf	(efgtoa@w+1)^(0+128),w
 11744     0FEE  1283               	bcf	3,5	;RP0=0, select bank0
 11745     0FEF  1303               	bcf	3,6	;RP1=0, select bank0
 11746     0FF0  00B1               	movwf	pad@p+1
 11747     0FF1  1683               	bsf	3,5	;RP0=1, select bank1
 11748     0FF2  1303               	bcf	3,6	;RP1=0, select bank1
 11749     0FF3  083B               	movf	efgtoa@w^(0+128),w
 11750     0FF4  1283               	bcf	3,5	;RP0=0, select bank0
 11751     0FF5  1303               	bcf	3,6	;RP1=0, select bank0
 11752     0FF6  00B0               	movwf	pad@p
 11753     0FF7  1683               	bsf	3,5	;RP0=1, select bank1
 11754     0FF8  1303               	bcf	3,6	;RP1=0, select bank1
 11755     0FF9  0838               	movf	efgtoa@fp^(0+128),w
 11756     0FFA  160A  158A  2323  120A  158A  	fcall	_pad
 11757     0FFF                     l802:
 11758     0FFF  0008               	return
 11759     1000                     __end_of_efgtoa:

Data Sizes:
    Strings     46
    Constant    0
    Data        5
    BSS         110
    Persistent  0
    Stack       0

Auto Spaces:
    Space          Size  Autos    Used
    COMMON           14      5      10
    BANK0            80     80      80
    BANK1            80     73      78
    BANK3            96     39      64
    BANK2            96      0      80

Pointer List with Targets:

    display$PORT	PTR volatile unsigned char  size(2) Largest target is 1
		 -> PORTD(SFR0[1]), 

    efgtoa@fp	PTR struct _IO_FILE size(1) Largest target is 11
		 -> sprintf@f(BANK3[11]), 

    f$.$buffer	PTR unsigned char  size(1) Largest target is 0

    f$.$source	PTR const unsigned char  size(1) Largest target is 0

    F1360$PORT	PTR volatile unsigned char  size(2) Largest target is 1
		 -> PORTD(SFR0[1]), 

    fputc@fp	PTR struct _IO_FILE size(1) Largest target is 11
		 -> sprintf@f(BANK3[11]), 

    fputc@fp$.$buffer	PTR unsigned char  size(1) Largest target is 0

    fputc@fp$.$source	PTR const unsigned char  size(1) Largest target is 0

    fputs@fp	PTR struct _IO_FILE size(1) Largest target is 11
		 -> sprintf@f(BANK3[11]), 

    fputs@s	PTR const unsigned char  size(1) Largest target is 80
		 -> dbuf(BANK2[80]), 

    lcd$PORT	PTR volatile unsigned char  size(2) Largest target is 1
		 -> PORTD(SFR0[1]), 

    LCD_putrs@a	PTR const unsigned char  size(2) Largest target is 16
		 -> main@buffer(BANK3[16]), STR_2(CODE[13]), STR_3(CODE[12]), 

    memcpy@d	PTR unsigned char  size(1) Largest target is 80
		 -> dbuf(BANK2[80]), 

    memcpy@d1	PTR void  size(1) Largest target is 80
		 -> dbuf(BANK2[80]), 

    memcpy@s	PTR const unsigned char  size(1) Largest target is 80
		 -> dbuf(BANK2[80]), 

    memcpy@s1	PTR const void  size(1) Largest target is 80
		 -> dbuf(BANK2[80]), 

    pad@buf	PTR unsigned char  size(1) Largest target is 80
		 -> dbuf(BANK2[80]), 

    pad@fp	PTR struct _IO_FILE size(1) Largest target is 11
		 -> sprintf@f(BANK3[11]), 

    read_prec_or_width@ap	PTR PTR void [1] size(1) Largest target is 1
		 -> sprintf@ap(BANK3[1]), 

    read_prec_or_width@fmt	PTR PTR const unsigned char  size(1) Largest target is 1
		 -> vfprintf@cfmt(BANK1[1]), 

    S22$PORT	PTR volatile unsigned char  size(2) Largest target is 1
		 -> PORTD(SFR0[1]), 

    S796$buffer	PTR unsigned char  size(1) Largest target is 0

    S796$source	PTR const unsigned char  size(1) Largest target is 0

    sp__memcpy	PTR void  size(1) Largest target is 80
		 -> dbuf(BANK2[80]), 

    sp__strcpy	PTR unsigned char  size(1) Largest target is 80
		 -> dbuf(BANK2[80]), 

    sprintf@ap	PTR void [1] size(1) Largest target is 2
		 -> ?_sprintf(BANK1[2]), 

    sprintf@fmt	PTR const unsigned char  size(1) Largest target is 13
		 -> STR_1(CODE[13]), 

    sprintf@s	PTR unsigned char  size(1) Largest target is 16
		 -> main@buffer(BANK3[16]), 

    strcpy@d	PTR unsigned char  size(1) Largest target is 80
		 -> dbuf(BANK2[80]), 

    strcpy@dest	PTR unsigned char  size(1) Largest target is 80
		 -> dbuf(BANK2[80]), 

    strcpy@src	PTR const unsigned char  size(1) Largest target is 4
		 -> STR_4(CODE[4]), STR_7(CODE[4]), 

    vfpfcnvrt@ap	PTR PTR void  size(1) Largest target is 1
		 -> sprintf@ap(BANK3[1]), 

    vfpfcnvrt@cp	PTR unsigned char  size(1) Largest target is 13
		 -> STR_1(CODE[13]), 

    vfpfcnvrt@fmt	PTR PTR unsigned char  size(1) Largest target is 1
		 -> vfprintf@cfmt(BANK1[1]), 

    vfpfcnvrt@fp	PTR struct _IO_FILE size(1) Largest target is 11
		 -> sprintf@f(BANK3[11]), 

    vfprintf@ap	PTR PTR void  size(1) Largest target is 1
		 -> sprintf@ap(BANK3[1]), 

    vfprintf@cfmt	PTR unsigned char  size(1) Largest target is 13
		 -> STR_1(CODE[13]), 

    vfprintf@fmt	PTR const unsigned char  size(1) Largest target is 13
		 -> STR_1(CODE[13]), 

    vfprintf@fp	PTR struct _IO_FILE size(1) Largest target is 11
		 -> sprintf@f(BANK3[11]), 


Critical Paths under _main in COMMON

    None.

Critical Paths under _ISR in COMMON

    None.

Critical Paths under _main in BANK0

    _vfprintf->_vfpfcnvrt
    _read_prec_or_width->___wmul
    _efgtoa->___flge
    _pad->_fputs
    _fputs->_fputc
    _floorf->___fldiv
    ___flsub->___flmul
    ___flmul->___fldiv
    ___flge->___flmul
    ___fldiv->___xxtofl
    _LCD_putrs->_LCD_putc
    _LCD_putc->_LCD_Out
    _LCD_Init->_LCD_Write
    _LCD_Write->_LCD_Out

Critical Paths under _ISR in BANK0

    None.

Critical Paths under _main in BANK1

    _main->_sprintf
    _sprintf->_vfprintf
    _vfprintf->_vfpfcnvrt
    _vfpfcnvrt->_efgtoa

Critical Paths under _ISR in BANK1

    None.

Critical Paths under _main in BANK3

    _main->_sprintf

Critical Paths under _ISR in BANK3

    None.

Critical Paths under _main in BANK2

    None.

Critical Paths under _ISR in BANK2

    None.

Call Graph Tables:

 ---------------------------------------------------------------------------------
 (Depth) Function   	        Calls       Base Space   Used Autos Params    Refs
 ---------------------------------------------------------------------------------
 (0) _main                                                26    26      0   39474
                                             13 BANK3     26    26      0
                           _LCD_Init
                          _LCD_Write
                          _LCD_putrs
                            ___fldiv
                             ___fleq
                             ___flge
                            ___flmul
                           ___xxtofl
                           _init_ADC
                     _init_interrupt
                         _init_timer
                           _read_ADC
                            _sprintf
 ---------------------------------------------------------------------------------
 (1) _sprintf                                             21    16      5   28834
                                             67 BANK1      6     1      5
                                              0 BANK3     13    13      0
                           _vfprintf
 ---------------------------------------------------------------------------------
 (2) _vfprintf                                             4     2      2   28390
                                             63 BANK1      4     2      2
                          _vfpfcnvrt
 ---------------------------------------------------------------------------------
 (3) _vfpfcnvrt                                           12    10      2   27947
                                             78 BANK0      2     2      0
                                             54 BANK1      9     7      2
                             _efgtoa
                              _fputc
                 _read_prec_or_width
 ---------------------------------------------------------------------------------
 (4) _read_prec_or_width                                   6     4      2     702
                                              6 BANK0      6     4      2
                             ___wmul
 ---------------------------------------------------------------------------------
 (5) ___wmul                                               6     2      4     316
                                              0 BANK0      6     2      4
 ---------------------------------------------------------------------------------
 (4) _efgtoa                                              55    50      5   25165
                                              0 BANK1     54    49      5
                            ___fladd
                            ___fldiv
                             ___fleq
                             ___flge
                            ___flmul
                            ___flneg
                            ___flsub
                            ___fltol
                      ___fpclassifyf
                             _floorf
                               _labs
                             _memcpy
                                _pad
                             _strcpy
 ---------------------------------------------------------------------------------
 (6) _strcpy                                               3     2      1     355
                                              0 BANK0      3     2      1
 ---------------------------------------------------------------------------------
 (5) _pad                                                  7     4      3    3183
                                             15 BANK0      7     4      3
                              _fputc
                              _fputs
 ---------------------------------------------------------------------------------
 (6) _fputs                                                7     6      1    1303
                                              8 BANK0      7     6      1
                              _fputc
 ---------------------------------------------------------------------------------
 (4) _fputc                                                8     5      3    1037
                                              0 BANK0      8     5      3
                              _putch
 ---------------------------------------------------------------------------------
 (5) _putch                                                1     1      0       0
 ---------------------------------------------------------------------------------
 (5) _memcpy                                               7     4      3     424
                                              0 BANK0      7     4      3
 ---------------------------------------------------------------------------------
 (5) _labs                                                 4     0      4     363
                                              0 BANK0      4     0      4
 ---------------------------------------------------------------------------------
 (5) _floorf                                              20    16      4     490
                                             40 BANK0     20    16      4
                            ___fldiv (ARG)
 ---------------------------------------------------------------------------------
 (5) ___fpclassifyf                                       16    12      4     375
                                              0 BANK0     16    12      4
 ---------------------------------------------------------------------------------
 (5) ___fltol                                             10     6      4     607
                                              0 BANK0     10     6      4
 ---------------------------------------------------------------------------------
 (5) ___flsub                                              8     0      8    3727
                                             66 BANK0      8     0      8
                            ___fladd
                            ___flmul (ARG)
 ---------------------------------------------------------------------------------
 (6) ___fladd                                             20    12      8    3302
                                              0 BANK0     20    12      8
 ---------------------------------------------------------------------------------
 (5) ___flneg                                              4     0      4     155
                                              0 BANK0      4     0      4
 ---------------------------------------------------------------------------------
 (5) ___flmul                                             26    18      8    4613
                                             40 BANK0     26    18      8
                          __Umul8_16
                            ___fldiv (ARG)
                           ___xxtofl (ARG)
 ---------------------------------------------------------------------------------
 (6) __Umul8_16                                            9     7      2     980
                                              0 BANK0      9     7      2
 ---------------------------------------------------------------------------------
 (5) ___flge                                              12     4      8    1246
                                             66 BANK0     12     4      8
                            ___flmul (ARG)
 ---------------------------------------------------------------------------------
 (5) ___fleq                                              12     4      8     670
                                              0 BANK0     12     4      8
 ---------------------------------------------------------------------------------
 (5) ___fldiv                                             26    18      8    2185
                                             14 BANK0     26    18      8
                           ___xxtofl (ARG)
 ---------------------------------------------------------------------------------
 (1) _read_ADC                                             2     0      2       0
                                              0 BANK0      2     0      2
 ---------------------------------------------------------------------------------
 (1) _init_timer                                           0     0      0       0
 ---------------------------------------------------------------------------------
 (1) _init_interrupt                                       0     0      0       0
 ---------------------------------------------------------------------------------
 (1) _init_ADC                                             0     0      0       0
 ---------------------------------------------------------------------------------
 (1) ___xxtofl                                            14    10      4     656
                                              0 BANK0     14    10      4
 ---------------------------------------------------------------------------------
 (1) _LCD_putrs                                            7     5      2     586
                                              6 BANK0      7     5      2
                           _LCD_putc
 ---------------------------------------------------------------------------------
 (2) _LCD_putc                                             3     3      0     186
                                              3 BANK0      3     3      0
                            _LCD_Out
 ---------------------------------------------------------------------------------
 (1) _LCD_Init                                             8     3      5     350
                                              6 BANK0      8     3      5
                          _LCD_Write
 ---------------------------------------------------------------------------------
 (1) _LCD_Write                                            3     3      0     155
                                              3 BANK0      3     3      0
                            _LCD_Out
 ---------------------------------------------------------------------------------
 (3) _LCD_Out                                              3     3      0     124
                                              0 BANK0      3     3      0
 ---------------------------------------------------------------------------------
 Estimated maximum stack depth 6
 ---------------------------------------------------------------------------------
 (Depth) Function   	        Calls       Base Space   Used Autos Params    Refs
 ---------------------------------------------------------------------------------
 (9) _ISR                                                  5     5      0       0
                                              0 COMMON     5     5      0
 ---------------------------------------------------------------------------------
 Estimated maximum stack depth 9
 ---------------------------------------------------------------------------------

 Call Graph Graphs:

 _main (ROOT)
   _LCD_Init
     _LCD_Write
       _LCD_Out
   _LCD_Write
   _LCD_putrs
     _LCD_putc
       _LCD_Out
   ___fldiv
     ___xxtofl (ARG)
   ___fleq
   ___flge
     ___flmul (ARG)
       __Umul8_16
       ___fldiv (ARG)
       ___xxtofl (ARG)
   ___flmul
   ___xxtofl
   _init_ADC
   _init_interrupt
   _init_timer
   _read_ADC
   _sprintf
     _vfprintf
       _vfpfcnvrt
         _efgtoa
           ___fladd
           ___fldiv
           ___fleq
           ___flge
           ___flmul
           ___flneg
           ___flsub
             ___fladd
             ___flmul (ARG)
           ___fltol
           ___fpclassifyf
           _floorf
             ___fldiv (ARG)
           _labs
           _memcpy
           _pad
             _fputc
               _putch
             _fputs
               _fputc
           _strcpy
         _fputc
         _read_prec_or_width
           ___wmul

 _ISR (ROOT)

 Address spaces:
Name               Size   Autos  Total    Cost      Usage
BANK3               60     27      40       9       66.7%
BITBANK3            60      0       0       8        0.0%
SFR3                 0      0       0       4        0.0%
BITSFR3              0      0       0       4        0.0%
BANK2               60      0      50      11       83.3%
BITBANK2            60      0       0      10        0.0%
SFR2                 0      0       0       5        0.0%
BITSFR2              0      0       0       5        0.0%
BANK1               50     49      4E       7       97.5%
BITBANK1            50      0       0       6        0.0%
SFR1                 0      0       0       2        0.0%
BITSFR1              0      0       0       2        0.0%
BANK0               50     50      50       5      100.0%
BITBANK0            50      0       0       4        0.0%
SFR0                 0      0       0       1        0.0%
BITSFR0              0      0       0       1        0.0%
COMMON               E      5       A       1       71.4%
BITCOMMON            E      0       0       0        0.0%
CODE                 0      0       0       0        0.0%
DATA                 0      0     138      12        0.0%
ABS                  0      0     138       3        0.0%
NULL                 0      0       0       0        0.0%
STACK                0      0       0       2        0.0%
EEDATA             100      0       0       0        0.0%


Microchip Technology PIC Macro Assembler V2.46 build 20240104201356 
Symbol Table                                                                                   Sun Jun 09 16:59:59 2024

              ___fldiv@aexp 0047                ___fldiv@bexp 0046                           pc 0002  
              ___fldiv@sign 003F            ??_init_interrupt 0020                          l35 115D  
                        l51 122D                          l38 1CA8                          l63 1221  
                        l67 1EA1                          l79 1BA2                          fsr 0004  
       ___wmul@multiplicand 0022         __Umul8_16@word_mpld 0026                         l140 1A07  
                       l134 1008                         l143 19D7                         l137 19FB  
                       l146 19EA                         l501 1D7E                         l166 16AB  
                       l602 0473                         l611 05EC                         l700 0304  
                       l604 044C                         l189 1796                         l623 0560  
                       l472 1BF2                         l713 1AE6                         l641 05EC  
                       l297 1A8F                         l466 1BC1                         l802 0FFF  
                       l467 1BDD                         l483 1F45                         l475 1EC0  
                       l715 1AF8                         l619 053C                         l491 1D7E  
                       l299 1AA7                         l740 1FFF                         l644 1A80  
                       l900 1334                         l629 0582                         l670 0735  
                       l654 0643                         l478 1F2C                         l910 1A1E  
                       l751 1FC9                         l487 19F7                         l752 1FD5  
                       l656 07BB                         l760 0822                         l738 1F6A  
                       l498 1D69                         l818 0A62                         l851 1D06  
                       l676 07A7                         l916 1ACF                         l828 0D9D  
                       l694 0394                         l598 03F0                         l791 1B5C  
                       l871 1465                         l928 1C4C                         l936 1B22  
                       l945 1A3B                         l939 07FF                         l787 1B2C  
                       l895 127B                         l799 14EB                         l879 1A5C  
                       l896 133C                         l889 1095                         _RC3 003B  
                       _RC4 003C                         _ISR 1D7F             LCD_Init@display 0026  
                       _lcd 0070                         _pad 1B23                         fsr0 0004  
                       indf 0000                ___flmul@aexp 0056                ___flmul@bexp 005B  
              ___flmul@sign 0055                ___flmul@temp 0060                ___flmul@prod 005C  
                      ?_ISR 0075             __end_of_LCD_Out 115E                ___fltol@exp1 0029  
                      l4001 034C                        l4011 037E                        l4003 0357  
                      l4013 0382                        l4005 0366                        l4101 14E7  
                      l4015 0383                        l4007 0370                        l4031 1B44  
                      l4023 1B26                        l4111 1534                        l4103 14ED  
                      l2601 0600                        l2521 1EB8                        l4009 0372  
                      l4017 0388                        l4041 1046                        l4033 1B52  
                      l4025 1B2A                        l4201 0CA1                        l4121 1585  
                      l4113 153C                        l4105 1510                        l2611 0618  
                      l2603 0605                        l2531 1F08                        l2523 1ED4  
                      l4019 038C                        l4051 106F                        l4043 105F  
                      l4035 1009                        l4027 1B2F                        l4211 0D52  
                      l4203 0CA7                        l4123 1595                        l4131 0823  
                      l4107 1517                        l2701 073A                        l2621 062B  
                      l2613 061D                        l2605 060D                        l2533 1F42  
                      l2525 1EDC                        l4045 1064                        l4037 1029  
                      l4029 1B3C                        l4061 1A24                        l4221 0DAE  
                      l4213 0D91                        l4205 0CAF                        l4141 0867  
                      l4133 082D                        l4125 15A2                        l4109 1527  
                      l4117 1557                        l4301 1D02                        l4311 10C7  
                      l2703 073F                        l2711 0770                        l2631 064B  
                      l2623 0630                        l2615 0621                        l2607 060E  
                      l2535 1F44                        l2527 1EE0                        l2519 1EA2  
                      l4055 1091                        l4039 1040                        l4063 1A08  
                      l4071 1AAB                        l4231 0E6C                        l4223 0DB1  
                      l4215 0D97                        l4207 0CFC                        l4151 0984  
                      l4143 08A6                        l4135 082F                        l4127 15AA  
                      l4119 157E                        l4321 1114                        l4313 10CB  
                      l4305 1099                        l4401 1C84                        l2721 07A6  
                      l2713 077D                        l2705 074D                        l2641 0669  
                      l2633 0657                        l2625 0638                        l2617 0625  
                      l2609 0610                        l2529 1F04                        l3601 03C0  
                      l4049 1069                        l4065 1A0E                        l4073 1AB0  
                      l4241 0E85                        l4233 0E70                        l4225 0E37  
                      l4217 0DAB                        l4209 0D4A                        l4153 09C3  
                      l4145 08F2                        l4161 0A4F                        l4081 1469  
                      l4323 1129                        l4315 10E3                        l4307 109D  
                      l4403 1C8E                        l4411 1E3F                        l2723 07AB  
                      l2715 078B                        l2707 0751                        l2651 0694  
                      l2635 065B                        l2627 0639                        l2619 0626  
                      l3611 03D2                        l3603 03C3                        l4067 1A0F  
                      l4075 1AB5                        l4059 1A22                        l4251 0EA3  
                      l4243 0E8B                        l4235 0E76                        l4227 0E61  
                      l4219 0DAC                        l4171 0A72                        l4163 0A55  
                      l4155 09C9                        l4147 092B                        l4139 0857  
                      l4091 14D0                        l4083 146A                        l4331 134F  
                      l4325 112D                        l4317 10FB                        l4309 10B2  
                      l4413 1E46                        l4405 1E03                        l4501 19D0  
                      l2725 07AF                        l2717 079A                        l2709 076A  
                      l2661 06B9                        l2653 069C                        l2645 0672  
                      l2629 063B                        l3701 04BB                        l3621 03E6  
                      l3613 03D3                        l3605 03C9                        l4077 1AB9  
                      l4261 0F67                        l4253 0EAA                        l4245 0E91  
                      l4237 0E7C                        l4229 0E67                        l4173 0A76  
                      l4181 0A8C                        l4165 0A59                        l4149 0979  
                      l4093 14D4                        l4085 1472                        l4341 1374  
                      l4333 1355                        l4421 1A3F                        l4327 1145  
                      l4319 10FF                        l4431 115E                        l4415 1E60  
                      l4407 1E17                        l4503 19E0                        l2727 07B1  
                      l2719 079E                        l2671 06E4                        l2663 06BA  
                      l2655 069E                        l2647 0684                        l2639 0664  
                      l2591 05ED                        l3711 051A                        l3703 04C0  
                      l3631 0400                        l3615 03D8                        l3623 03E8  
                      l3607 03CA                        l4079 1AC1                        l4271 0F96  
                      l4263 0F6D                        l4255 0EB0                        l4247 0E97  
                      l4239 0E82                        l4191 0BD9                        l4183 0A8E  
                      l4175 0A7E                        l4167 0A5E                        l4159 0A16  
                      l4095 14D8                        l4087 1499                        l4351 13A2  
                      l4343 138C                        l4335 135C                        l4423 1A42  
                      l4511 0807                        l4441 118C                        l4433 1170  
                      l4417 1E67                        l4409 1E26                        l4521 1F49  
                      l4505 19E5                        l2729 07B5                        l2681 0701  
                      l2657 06A3                        l2665 06C3                        l2673 06E8  
                      l2649 068C                        l2593 05F2                        l3713 051F  
                      l3705 04D6                        l3641 040A                        l3633 0402  
                      l3625 03F6                        l3617 03DD                        l3609 03CE  
                      l3801 1B15                        l4281 0FD4                        l4273 0F9B  
                      l4257 0EB6                        l4249 0E9D                        l4265 0F73  
                      l4193 0BE7                        l4185 0A96                        l4177 0A80  
                      l4169 0A6C                        l4097 14DD                        l4089 149D  
                      l4361 13D2                        l4345 1391                        l4337 1360  
                      l4329 1340                        l4425 1A4C                        l4513 0809  
                      l4601 16A0                        l4451 11B2                        l4443 1196  
                      l4435 117A                        l4419 1E87                        l4523 1F4E  
                      l4507 19E9                        l2691 0719                        l2683 0705  
                      l2675 06EE                        l2667 06D5                        l2659 06B5  
                      l2595 05F6                        l3731 0567                        l3723 0552  
                      l3707 0514                        l3715 052E                        l3651 0414  
                      l3643 040C                        l3635 0404                        l3627 03FA  
                      l3619 03E5                        l2931 126D                        l3571 1BFF  
                      l4283 0FE0                        l4275 0FB8                        l4267 0F81  
                      l4259 0F28                        l4195 0C26                        l4187 0A9F  
                      l4179 0A86                        l4099 14E2                        l3811 1A9D  
                      l3803 1A81                        l4291 1CAE                        l4347 139A  
                      l4355 13A4                        l4339 136E                        l4427 1A5A  
                      l4515 080B                        l4611 1767                        l4603 16AF  
                      l4461 11E0                        l4445 119A                        l4453 11B5  
                      l4437 117E                        l4541 1F92                        l4533 1F7B  
                      l4525 1F52                        l2693 071A                        l2685 0706  
                      l2677 06F6                        l2669 06D6                        l2597 05FA  
                      l3821 1BD5                        l3901 007F                        l3741 0575  
                      l3733 0569                        l3725 055B                        l3717 0544  
                      l3709 0518                        l3661 041D                        l3653 0416  
                      l3645 040E                        l3637 0406                        l3629 03FE  
                      l3581 0395                        l2941 12B0                        l2933 127A  
                      l3573 1C06                        l4285 0FE6                        l4277 0FC2  
                      l4269 0F90                        l4197 0C5D                        l4189 0BD3  
                      l3813 1AA3                        l3805 1A85                        l4293 1CBD  
                      l4381 142C                        l4365 13E8                        l4349 139F  
                      l4357 13AF                        l4517 0817                        l4509 0803  
                      l4621 178A                        l4613 176E                        l4605 1709  
                      ?_pad 002F                        l4471 11FE                        l4463 11E6  
                      l4455 11BF                        l4447 11A4                        l4439 1188  
                      l4551 1FBF                        l4543 1F96                        l4535 1F7E  
                      l4527 1F62                        l2695 071E                        l2687 070F  
                      l2679 06F8                        l2599 05FB                        l3823 1BEF  
                      l3911 0092                        l3903 0083                        l3831 19F5  
                      l3751 058C                        l3743 0579                        l3735 056E  
                      l3727 055F                        l3719 0549                        l3671 045D  
                      l3663 0434                        l3655 0418                        l3647 0410  
                      l3639 0408                        l3591 03A8                        l3583 039A  
                      l2951 1313                        l2943 12C9                        l2935 1281  
                      l2927 122E                        l3575 1C15                        l3567 1BF3  
                      l4279 0FCF                        l4199 0C68                        l3807 1A89  
                      l4295 1CD3                        l4375 140D                        l4367 13F0  
                      l4359 13BC                        l4623 1790                        l4615 1774  
                      l4607 1734                        l4481 1209                        l4473 1204  
                      l4465 11EC                        l4457 11C5                        l4449 11A8  
                      l4561 1FF2                        l4553 1FC3                        l4545 1FA4  
                      l4537 1F82                        l4529 1F72                        l2697 0732  
                      l2689 0715                        l3825 1BF1                        l3817 1BA3  
                      l3921 00AE                        l3913 009A                        l3905 0087  
                      l3833 19F7                        l3761 05C5                        l3753 059A  
                      l3745 057F                        l3729 0564                        l3737 0570  
                      l3681 047C                        l3673 045E                        l3665 0450  
                      l3657 041A                        l3649 0412                        l3593 03AD  
                      l3585 039E                        l2953 132C                        l2945 12E0  
                      l2937 129B                        l2929 124E                        l3577 1C33  
                      l3569 1BFA                        l3809 1A96                        l4297 1CEA  
                      l4289 1CAC                        l4385 143E                        l4369 13F6  
                      l4377 1418                        l4641 17D6                        l4633 17C3  
                      l4609 173E                        l4617 177E                        l4395 1C50  
                      l4475 1208                        l4467 11F2                        l4459 11D5  
                      l4491 1B86                        l4563 1FF6                        l4555 1FCD  
                      l4547 1FAD                        l4539 1F8B                        l3819 1BB9  
                      l3931 00ED                        l3915 009C                        l3907 0088  
                      l3771 05DC                        l3763 05CA                        l3755 059E  
                      l3691 04A4                        l3739 0574                        l3675 0467  
                      l3667 0457                        l3659 041C                        l3595 03B5  
                      l3587 03A2                        l3851 1D39                        l3843 1D1B  
                      l2947 12F1                        l4299 1CF1                        l4379 1426  
                      l4643 17E2                        l4619 1784                        l4397 1C65  
                      l4469 11F8                        l4485 1B5D                        l4565 1FF7  
                      l4557 1FD7                        l4549 1FB4                        l4493 1000  
                      l3781 1AD3                        l3941 0174                        l3933 0109  
                      l3925 00B7                        l3917 00A4                        l3909 008D  
                      l3829 19EB                        l3773 05DE                        l3765 05D2  
                      l3757 05BC                        l3749 0587                        l3693 04AB  
                      l3685 0485                        l3669 0459                        l3677 046B  
                      l3597 03B6                        l3589 03A3                        l3861 1D4E  
                      l3853 1D3D                        l3845 1D2E                        l3837 1D07  
                      l2949 130A                        l4389 1448                        l4645 17ED  
                      l4581 15C9                        l4399 1C6B                        l4487 1B62  
                      l4559 1FED                        l4495 19F8                        l3791 1AF4  
                      l3783 1AD5                        l3951 01E1                        l3943 0182  
                      l3935 0133                        l3927 00C5                        l3919 00A9  
                      l3775 05E2                        l3767 05D7                        l3759 05C0  
                      l3695 04AD                        l3687 049C                        l3679 0477  
                      l3599 03B8                        l3871 1D6E                        l3863 1D57  
                      l3847 1D2F                        l3839 1D12                        l4639 17CF  
                      l4591 1601                        l4583 15DC                        l4489 1B7E  
                      l4497 19FF                        l3785 1ADC                        l3961 0288  
                      l3953 01FE                        l3945 019F                        l3937 014F  
                      l3929 00D2                        l3881 0050                        l3777 05E7  
                      l3769 05D8                        l3697 04B1                        l3689 04A0  
                      l3873 1D73                        l3849 1D37                        l4593 1612  
                      l4585 15F2                        l4577 15C3                        l3787 1AE0  
                      l3971 02D4                        l3963 02B0                        l3955 0229  
                      l3947 01AD                        l3939 016B                        l3891 0063  
                      l3883 0055                        l3779 05EB                        l3699 04B2  
                      l3875 1A5D                        l3859 1D45                        l3795 1AFC  
                      l4595 1617                        l4587 15F7                        l4579 15C6  
                      l3789 1AEF                        l3981 02E9                        l3973 02D5  
                      l3965 02B9                        l3957 0237                        l3949 01CA  
                      l3893 0068                        l3885 0059                        l3877 1A61  
                      l3869 1D5E                        l3797 1AFF                        l4597 161B  
                      l4589 15FC                        l3991 030E                        l3983 02ED  
                      l3975 02DE                        l3967 02C7                        l3959 0262  
                      l3895 0070                        l3887 005D                        l3799 1B0D  
                      l4599 1675                        l3993 031C                        l3985 0301  
                      l3969 02D0                        l3977 02E4                        l3897 0072  
                      l3889 005E                        l3995 0320                        l3979 02E8  
                      l3899 007A                        l3997 0339                        l3989 0309  
                      l3999 033F                        STR_1 07CC                        STR_2 07D9  
                      STR_3 07E6                        STR_4 07F2                        STR_7 07F6  
                      u3401 1F17                        u3410 1F42                        u3402 1F18  
                      u3411 1F41                        u3403 1F1D                        u3404 1F1E  
                      u3405 1F23                        u3406 1F24                        u3350 1EB8  
                      u4310 125C                        u3415 1F3E                        u3351 1EB7  
                      u3600 0669                        u3360 1ED4                        u4400 130A  
                      u4320 127A                        u6000 1B22                        u3601 0668  
                      u3361 1ED3                        u4401 1309                        u4321 1279  
                      u6001 1B21                        u3610 06A3                        u3530 05FA  
                      u3370 1EE0                        u4410 1321                        u4330 1281  
                      u6010 1A89                        u3611 06A2                        u3531 05F9  
                      u3371 1EDF                        u4331 1280                        u4315 1257  
                      u6011 1A88                        u3700 0705                        u3540 0600  
                      u6100 1D29                        u4420 132C                        u4340 1291  
                      u3701 0704                        u3541 05FF                        u3381 1EEF  
                      u4421 132B                        u4325 1276                        u3550 0605  
                      u3390 1F08                        u3382 1EF0                        u6110 1D3D  
                      u4350 12AF                        u3551 0604                        u3391 1F07  
                      u3383 1EF5                        u6111 1D3C                        u4415 131C  
                      u4351 12AE                        u3800 079A                        u3720 0719  
                      u3640 06B9                        u3560 0625                        u3384 1EF6  
                      u6200 0063                        u6120 1D44                        u4360 12BE  
                      u7000 0F90                        u6040 1AA3                        u3801 0799  
                      u3721 0718                        u3641 06B8                        u3625 06A5  
                      u3561 0624                        u3385 1EFB                        u6201 0062  
                      u6121 1D43                        u6105 1D24                        u4345 128C  
                      u7001 0F8F                        u6041 1AA2                        u6025 1A90  
                      u3810 07AF                        u3730 071E                        u3570 062B  
                      u6050 1BB9                        u3386 1EFC                        u6210 0068  
                      u4370 12C9                        u7010 0FC8                        u3811 07AE  
                      u3731 071D                        u3715 0708                        u3635 06AE  
                      u3571 062A                        u6051 1BB8                        u6211 0067  
                      u4371 12C8                        u7011 0FC6                        u6035 1A97  
                      u3740 0732                        u3660 06D5                        u3580 0630  
                      u6060 1BD5                        u6220 0087                        u6140 1D56  
                      u5500 1C33                        u7020 0FC9                        u3805 0796  
                      u3741 0731                        u3661 06D4                        u3581 062F  
                      u6061 1BD4                        u6301 015D                        u6221 0086  
                      u6141 1D55                        u4381 12D2                        u4365 12B9  
                      u5501 1C32                        u7005 0F8C                        u3750 0739  
                      u3670 06EE                        u3590 064B                        u6070 1BEF  
                      u6302 0164                        u6230 008D                        u5510 03A2  
                      u6150 1D5D                        u4390 12FF                        u4382 12D9  
                      u7030 0FD4                        u3751 0738                        u3671 06ED  
                      u3655 06BC                        u3591 064A                        u6071 1BEE  
                      u6303 016B                        u6231 008C                        u5511 03A1  
                      u6151 1D5C                        u6135 1D46                        u4383 12E0  
                      u7031 0FD3                        u7120 10FF                        u7104 10D6  
                      u3760 073F                        u3680 06F6                        u6400 0296  
                      u6240 0092                        u6080 19F5                        u5600 0434  
                      u5520 03A8                        u7040 1CBD                        u7200 13BB  
                      u7121 10FE                        u7105 10D4                        u3761 073E  
                      u3681 06F5                        u3665 06D1                        u6321 0191  
                      u6241 0091                        u6081 19F4                        u5601 0433  
                      u5521 03A7                        u5505 1C2F                        u7041 1CBC  
                      u7201 13BA                        u7114 10EE                        u3770 0751  
                      u6322 0198                        u6250 00A9                        u5610 043F  
                      u5530 03AD                        u6170 1D6E                        u6090 1D12  
                      u7050 1D02                        u7210 1426                        u7115 10EC  
                      u3771 0750                        u6075 1BEB                        u6411 02A2  
                      u6331 01BC                        u6323 019F                        u6315 016D  
                      u6251 00A8                        u5611 043D                        u5531 03AC  
                      u6171 1D6D                        u6091 1D11                        u4395 12FA  
                      u7051 1D01                        u7211 1425                        u7060 109D  
                      u3780 0760                        u6500 030E                        u6412 02A9  
                      u6332 01C3                        u6260 00AE                        u5700 04A0  
                      u5620 0440                        u5540 03C9                        u6180 1D73  
                      u7061 109C                        u6501 030D                        u6413 02B0  
                      u6405 0291                        u6333 01CA                        u6261 00AD  
                      u5701 049F                        u5605 0430                        u5541 03C8  
                      u6181 1D72                        u6165 1D60                        u7150 112D  
                      u7134 1107                        u3790 077D                        u6510 0320  
                      u6190 005D                        u5710 04A4                        u5630 0450  
                      u5550 03D2                        u5470 1BFA                        u7310 1A5A  
                      u7151 112C                        u7135 1105                        u3791 077C  
                      u3695 06FA                        u6511 031F                        u6351 01F0  
                      u6271 00FB                        u6191 005C                        u5711 04A3  
                      u5631 044F                        u5551 03D1                        u5471 1BF9  
                      u7311 1A59                        u7144 111C                        u7224 1C58  
                      u7320 117A                        u7304 1E94                        u7400 1BA2  
                      u6520 032F                        u6440 02D4                        u6352 01F7  
                      u6272 0102                        u5720 04B1                        u5640 045D  
                      u5560 03D8                        u6600 1054                        u5480 1BFF  
                      u7145 111A                        u7225 1C56                        u7321 1179  
                      u7305 1E92                        u7401 1BA1                        u3785 075B  
                      u6441 02D3                        u6425 02B2                        u6361 021B  
                      u6353 01FE                        u6345 01CC                        u6281 0117  
                      u6273 0109                        u5721 04B0                        u5641 045C  
                      u5561 03D7                        u5481 1BFE                        u7090 10CB  
                      u7074 10A5                        u7234 1C78                        u7330 1188  
                      u7410 19FF                        u6530 034C                        u6362 0222  
                      u6282 011E                        u5810 055F                        u5570 03DD  
                      u6610 105F                        u5490 1C15                        u7091 10CA  
                      u7075 10A3                        u7235 1C76                        u7331 1187  
                      u7411 19FE                        u3795 0779                        u6531 034B  
                      u6435 02C9                        u6371 0246                        u6363 0229  
                      u6291 0141                        u6283 0125                        u5811 055E  
                      u5571 03DC                        u6611 105E                        u5491 1C14  
                      u7164 1138                        u7084 10BA                        u7244 1C9B  
                      u7340 1196                        u7500 1FC3                        u7420 1F4E  
                      u6540 0366                        u6460 02E8                        u6380 026E  
                      u6372 024D                        u6292 0148                        u5900 05AD  
                      u5820 0564                        u5740 04D6                        u5660 0473  
                      u5580 03F6                        u6620 106F                        u6700 14DD  
                      u7180 134F                        u7165 1136                        u7085 10B8  
                      u7245 1C99                        u7341 1195                        u7325 1176  
                      u7501 1FC2                        u7421 1F4D                        u6541 0365  
                      u6525 032A                        u6461 02E7                        u6373 0254  
                      u6293 014F                        u5821 0563                        u5805 0554  
                      u5741 04D5                        u5661 0472                        u5581 03F5  
                      u6621 106E                        u6605 104F                        u6701 14DC  
                      u7181 134E                        u7174 1150                        u7350 11A4  
                      u7254 1E0B                        u7510 1FC9                        u7430 1F52  
                      u6550 0382                        u6470 02ED                        u5910 05BC  
                      u5830 056E                        u5670 0477                        u5590 03FA  
                      u6630 107D                        u6710 14E2                        u7190 136E  
                      u7175 114E                        u7351 11A3                        u7335 1184  
                      u7255 1E09                        u7511 1FC8                        u7431 1F51  
                      u6551 0381                        u6535 0348                        u6471 02EC  
                      u6455 02D7                        u6391 027A                        u5911 05BB  
                      u5831 056D                        u5751 04ED                        u5743 04D2  
                      u5735 04B4                        u5671 0476                        u5655 0460  
                      u5591 03F9                        u6711 14E1                        u7191 136D  
                      u7360 11B2                        u7520 1FCD                        u7440 1F72  
                      u6480 0301                        u6392 0281                        u5920 05C5  
                      u5840 0574                        u5760 0501                        u5752 04EE  
                      u5680 047C                        u6640 1089                        u6560 1B2A  
                      u6720 1510                        u7600 1767                        u7361 11B1  
                      u7345 1192                        u7265 1E1A                        u7521 1FCC  
                      u7441 1F71                        u6545 0362                        u6481 0300  
                      u6393 0288                        u6385 0269                        u5921 05C4  
                      u5905 05A8                        u5841 0573                        u5761 0502  
                      u5753 04F3                        u5681 047B                        u6641 1087  
                      u6561 1B29                        u6801 093C                        u6721 150F  
                      u7601 1766                        u7274 1E33                        u7530 1FE2  
                      u6490 0308                        u5930 05CA                        u5850 0579  
                      u5770 051F                        u5762 0507                        u5754 04F4  
                      u6650 108A                        u6570 1B52                        u6810 0979  
                      u6802 093D                        u6730 1517                        u7610 176E  
                      u7355 11A0                        u7275 1E31                        u6491 0307  
                      u5931 05C9                        u5851 0578                        u5771 051E  
                      u5763 0508                        u5755 04F9                        u5691 048E  
                      u6635 1078                        u6571 1B51                        u6811 0978  
                      u6803 0942                        u6731 1516                        u7611 176D  
                      u7284 1E53                        u7380 1B6C                        u7540 1FF2  
                      u7460 1F91                        u5940 05D7                        u5860 057F  
                      u5780 0544                        u5756 04FA                        u5692 0495  
                      u6580 1037                        u6660 1A3B                        u6900 0C5D  
                      u6804 0943                        u6740 157E                        u7620 1774  
                      u7365 11AE                        u7285 1E51                        u7541 1FF1  
                      u7461 1F90                        u5941 05D6                        u5861 057E  
                      u5781 0543                        u5693 049C                        u6661 1A3A  
                      u6901 0C5C                        u6821 09D8                        u6813 0975  
                      u6805 0948                        u6741 157B                        u7621 1773  
                      u7294 1E74                        u7390 1B90                        u7550 1FF6  
                      u5950 05DC                        u5870 0586                        u5790 0549  
                      u6590 1046                        u6670 1A0E                        u6910 0CA1  
                      u6830 0A15                        u6822 09D9                        u6806 0949  
                      u6750 1585                        u7630 17D6                        u7375 120C  
                      u7295 1E72                        u7551 1FF5                        u7535 1FDD  
                      u7455 1F83                        u5951 05DB                        u5871 0585  
                      u5791 0548                        u6591 1045                        u6671 1A0D  
                      u6575 1B4E                        u6911 0CA0                        u6831 0A14  
                      u6823 09DE                        u6751 1584                        u7631 17D5  
                      u7480 1FB3                        u5960 05EB                        u5880 058C  
                      u6680 1ACF                        u6920 0CA7                        u6840 0A4F  
                      u6824 09DF                        u6760 0856                        u7481 1FB2  
                      u5961 05EA                        u5881 058B                        u6585 1032  
                      u6681 1ACE                        u6921 0CA6                        u6841 0A4E  
                      u6833 0A11                        u6825 09E4                        u6761 0855  
                      u5970 1AE0                        u5890 059E                        u6930 0D4A  
                      u6850 0A59                        u6826 09E5                        u6690 1499  
                      u7570 1617                        u7707 1C8A                        u7475 1FA5  
                      u5971 1ADF                        u5891 059D                        u6931 0D49  
                      u6851 0A58                        u6771 08B5                        u6691 1498  
                      u7571 1616                        u6940 0D97                        u6860 0A72  
                      u6780 08F2                        u6772 08B6                        u7580 16A0  
                      u6941 0D96                        u6861 0A71                        u6781 08F1  
                      u6773 08BB                        u7581 169F                        u5990 1AF4  
                      u6950 0E37                        u6870 0A76                        u6790 092B  
                      u6774 08BC                        u7590 1734                        u7495 1FB8  
                      u5991 1AF3                        u6951 0E36                        u6871 0A75  
                      u6791 092A                        u6783 08EE                        u6775 08C1  
                      u7647 17F5                        u7591 1733                        u6960 0E6C  
                      u6880 0A86                        u6776 08C2                        u7657 1E43  
                      u5985 1AE7                        u6961 0E6B                        u6881 0A85  
                      u6970 0E70                        u6890 0BE7                        u7667 1E84  
                      u6971 0E6F                        u6955 0E33                        u6891 0BE6  
                      u6980 0EA3                        u7677 11BB                        u6981 0EA2  
                      u6990 0F81                        u7687 11CB                        u6991 0F80  
                      u6895 0BE3                        u7697 11DB                        u6995 0F7D  
                      _dbuf 0110                        _labs 1A08                        _main 15C3  
                      _mode 01CA                        _prec 00EB                        pad@i 0033  
                      pad@p 0030                        btemp 007E               ___fpclassifyf 1009  
                      start 000C             ___fldiv@new_exp 0040                 LCD_Init@cmd 002D  
                     ??_ISR 0075                       ??_pad 0032            __end_of_LCD_Init 122E  
          __end_of_LCD_putc 1EA2               ___fltol@sign1 0028                       ?_labs 0020  
           __end_of___fladd 05ED                       ?_main 0075                 _turbo_timer 01C3  
           __end_of___fldiv 07BC             __end_of___flneg 19F8             __end_of___flmul 0395  
           __end_of___flsub 1A81             __end_of___fltol 1D7F                       i1l155 1DF9  
                     i1l158 1DF9                vfpfcnvrt@fmt 00D6                       _TMR1H 000F  
                     _TMR1L 000E                       _PORTA 0005                       _PORTB 0006  
                     _PORTC 0007                       _PORTD 0008                       _PORTE 0009  
                     _TRISA 0085                       _TRISB 0086                       _TRISC 0087  
                     _TRISD 0088                       _TRISE 0089                       _flags 00ED  
       read_prec_or_width@c 0028         read_prec_or_width@n 0029                       _fputc 1BF3  
                     _fputs 1AF9                       labs@a 0020                       pad@fp 0035  
                     _width 00E9                       _putch 07FF                       pclath 000A  
                     status 0003                       wtemp0 007E             __end_of_sprintf 0823  
            ?___fpclassifyf 0020               main@adc_value 01B5             __initialization 000F  
              _acel_percent 01BF                __end_of_labs 1A1F                __end_of_main 1800  
                    ??_labs 0024                      ??_main 019D                   ??_LCD_Out 0020  
              _turbo_active 01C9           __end_of_LCD_Write 1CA9  __end_of_read_prec_or_width 1D07  
         __end_of_LCD_putrs 1BA3                      _ADCON0 001F                      _ADCON1 009F  
                    ?_fputc 0020                      ?_fputs 0028                      _ADRESH 001E  
                    _ADRESL 009E                      ?_putch 0075                      i1l3471 1D94  
                    i1l3463 1D7F                      i1l3481 1DBF                      i1l3473 1D95  
                    i1l3465 1D83                      i1l3491 1DEC                      i1l3483 1DC2  
                    i1l3475 1D99                      i1l3467 1D8D                      i1l3493 1DF4  
                    i1l3485 1DCA                      i1l3477 1DA0                      i1l3469 1D8E  
                    i1l3495 1DF5                      i1l3479 1DAE                      i1l3487 1DCF  
                    i1l3489 1DD5                      u532_20 1D83                      u532_21 1D82  
                    u533_20 1D8B                      u533_21 1D89                      u534_20 1D8C  
                    u535_20 1D94                      u535_21 1D93                      u536_20 1DA0  
                    u536_21 1D9F                      u537_20 1DBF                      u537_21 1DBE  
                    u537_23 1DBB                      u538_20 1DD5                      u538_21 1DD4  
                    u539_20 1DF4                      u539_21 1DF3                      u771_27 1DE5  
          __end_of___xxtofl 2000                vfprintf@cfmt 00E2                      ___flge 1EA2  
                    ___fleq 1BA3                   ??___fladd 0028                      ___wmul 1A81  
                 ??___fldiv 0036                   ??___flneg 0024                   ??___flmul 0050  
                 ??___flsub 006A                   ??___fltol 0024            __end_of_init_ADC 1009  
                    _efgtoa 1466            __end_of_read_ADC 1A08                      _floorf 122E  
                    _memcpy 1AA8        read_prec_or_width@ap 0026                      pad@buf 002F  
                    _strcpy 1A1F                      fputc@c 0020                      fputs@c 002C  
                    fputs@i 002D                      fputs@s 002B             ___fpclassifyf@e 002A  
           ___fpclassifyf@u 002C             ___fpclassifyf@x 0020                      saved_w 007E  
                    putch@c 0075            __end_of_vfprintf 1A5D                   ??_sprintf 00E8  
                ___flge@ff1 0062                  ___flge@ff2 0066             ??___fpclassifyf 0024  
              ___xxtofl@arg 002A                ___xxtofl@exp 0029                ___xxtofl@val 0020  
                ___fleq@ff1 0020                  ___fleq@ff2 0024     __end_of__initialization 004C  
                 ?_LCD_Init 0026                  ___flneg@f1 0020                   ?_LCD_putc 0075  
                ___fltol@f1 0020              __pcstackCOMMON 0075                __pidataBANK3 07FA  
             __end_of_fputc 1C4D               __end_of_fputs 1B23               __end_of_putch 0800  
                 LCD_putc@c 0025              _OPTION_REGbits 0081                     ??_fputc 0023  
                   ??_fputs 0029                     ??_putch 0020                  __pbssBANK1 00E9  
                __pbssBANK2 0110                  __pbssBANK3 01B7                  ??_LCD_Init 002B  
                ??_LCD_putc 0023           __end_of__Umul8_16 1AF9                  _efgtoa$921 00AF  
                __pmaintext 15C3                     ?___flge 0062                     ?___fleq 0020  
                   ?___wmul 0020                  __pintentry 0004                     ?_efgtoa 00A0  
                   ?_floorf 0048                     ?_memcpy 0020                     ?_strcpy 0020  
                   _LCD_Out 1096                   ?___xxtofl 0020                  __stringtab 07BC  
                 ?_init_ADC 0075                   ?_read_ADC 0020                     ___fladd 0395  
                   ___fldiv 05ED                     ___flneg 19EB                     ___flmul 0050  
                   ___flsub 1A5D                     ___fltol 1D07                   ?_vfprintf 00DF  
                _init_timer 19E0                     __ptext1 0800                     __ptext2 1A3C  
                   __ptext3 133D                     __ptext4 1CA9                     __ptext5 1A81  
                   __ptext6 1466                     __ptext7 1A1F                     __ptext8 1B23  
                   __ptext9 1AF9                   _T1CONbits 0010       read_prec_or_width@fmt 002B  
                ??___xxtofl 0024                     efgtoa@c 00A4                     efgtoa@d 00B4  
                   efgtoa@e 00B9                     efgtoa@f 00A0                     efgtoa@g 00CC  
                   efgtoa@h 00C3                     efgtoa@i 00C1                     efgtoa@l 00C7  
                   efgtoa@m 00B6                     efgtoa@n 00D0                     efgtoa@p 00AB  
                   efgtoa@t 00AD                     efgtoa@u 00D2                     efgtoa@w 00BB  
                   main@lcd 01B0                     _sprintf 0800                     clrloop0 19D9  
                 _LCD_Write 1C4D        end_of_initialization 004C                     floorf@e 0056  
                   floorf@m 0052                     floorf@u 0058                     floorf@x 0048  
                ??_init_ADC 0020                  ??_read_ADC 0022                     memcpy@d 0025  
                   memcpy@n 0021                   _LCD_putrs 1B5D                     memcpy@s 0026  
                   fputc@fp 0022                     fputs@fp 0028          _read_prec_or_width 1CA9  
         __end_of_vfpfcnvrt 1466                  efgtoa@mode 00B2                  efgtoa@sign 00CB  
       ?_read_prec_or_width 0026                     psplit$0 150035            vfpfcnvrt@convarg 00D8  
                ??_vfprintf 0070                     strcpy@d 0021                 ___fladd@grs 0033  
             ___xxtofl@sign 0028        ??_read_prec_or_width 0028                 ___fldiv@grs 0042  
               ___fldiv@rem 003B                  ?_LCD_Write 0075                  ?_LCD_putrs 0026  
               ___flmul@grs 0057                  main@buffer 01A0              __end_of___flge 1F46  
            __end_of___fleq 1BF3                 vfpfcnvrt@ap 00D7                 vfpfcnvrt@cp 00DE  
               vfpfcnvrt@fp 00DD              __end_of___wmul 1AA8                 ?_init_timer 0075  
            __end_of_efgtoa 1000                  LCD_Write@c 0025              __end_of_floorf 133D  
            __end_of_memcpy 1AD0                  floorf@F521 01B7              __end_of_strcpy 1A3C  
       start_initialization 000F                 __end_of_ISR 1E00                 __end_of_pad 1B5D  
         pnum$text6_split_1 0035                  LCD_putrs@a 0026                  LCD_putrs@i 002B  
     __end_of___fpclassifyf 1096                 vfprintf@fmt 00DF                    ??___flge 006A  
                  ??___fleq 0028                    ??___wmul 0024                    ??_efgtoa 00A5  
                 __Umul8_16 1AD0                 __pdataBANK3 01CB                    ??_floorf 004C  
                  ??_memcpy 0023                    ??_strcpy 0021                   ___fladd@a 0024  
                 ___fladd@b 0020                   ___fldiv@a 002E                   ___fldiv@b 0032  
                  ?_LCD_Out 0075                   ___flmul@a 004C                   ___flmul@b 0048  
               __pbssCOMMON 0070                   ___flsub@a 0062                   ___flsub@b 0066  
                 ___latbits 0002               __pcstackBANK0 0020               __pcstackBANK1 00A0  
             __pcstackBANK3 0190              _init_interrupt 19D0                    LCD_Out@c 0022  
               ??_LCD_Write 0023                 ??_LCD_putrs 0028                    ?___fladd 0020  
                  ?___fldiv 002E                    ?___flneg 0020                    ?___flmul 0048  
                  ?___flsub 0062                    ?___fltol 0020                  ?__Umul8_16 0020  
                 __pstrings 07BC      __end_of_init_interrupt 19D8                    ?_sprintf 00E3  
         interrupt_function 0004                    _LCD_Init 115E              ___wmul@product 0024  
                 clear_ram0 19D8                    _LCD_putc 1E00                    _PIE1bits 008C  
                  _PIR1bits 000C                   main@F1360 01CB                   _vfpfcnvrt 133D  
                _ADCON0bits 001F                 __stringbase 07CB           ___wmul@multiplier 0020  
           ?_init_interrupt 0075                  vfpfcnvrt@c 00DC                   memcpy@tmp 0023  
                vfprintf@ap 00E0                  vfprintf@fp 00E1                 ??__Umul8_16 0022  
                ?_vfpfcnvrt 00D6                ??_init_timer 0020          __end_of__stringtab 07CC  
        ___fpclassifyf@F465 01BB                  sprintf@fmt 00E3                    ___xxtofl 1F46  
                  __ptext10 1BF3                    __ptext11 07FF                    __ptext20 0050  
                  __ptext12 1AA8                    __ptext21 1AD0                    __ptext13 1A08  
                  __ptext30 1B5D                    __ptext22 1EA2                    __ptext14 122E  
                  __ptext31 1E00                    __ptext23 1BA3                    __ptext15 1009  
                  __ptext32 115E                    __ptext24 05ED                    __ptext16 1D07  
                  __ptext33 1C4D                    __ptext25 19F8                    __ptext17 1A5D  
                  __ptext34 1096                    __ptext26 19E0                    __ptext18 0395  
                  __ptext35 1D7F                    __ptext27 19D0                    __ptext19 19EB  
                  __ptext28 1000                    __ptext29 1F46                  strcpy@dest 0022  
                  _init_ADC 1000                    _read_ADC 19F8                   pnum$text6 0015  
        __end_of_init_timer 19EB                    efgtoa@fp 00B8                    efgtoa@ne 00A9  
                  efgtoa@pp 00B1                    efgtoa@ou 00BD                    _vfprintf 1A3C  
             _timer_counter 01C7                  _INTCONbits 000B                    memcpy@d1 0024  
                  memcpy@s1 0020                    intlevel1 0000                   sprintf@ap 0191  
                 strcpy@src 0020                   stringcode 07C6                 efgtoa@nmode 00B3  
               ??_vfpfcnvrt 006E      __Umul8_16@multiplicand 0020                    sprintf@f 0192  
                  sprintf@s 0190                    stringdir 07C6                    stringtab 07BC  
             ___fladd@signs 0030                ___fladd@aexp 0031                ___fladd@bexp 0032  
      __Umul8_16@multiplier 0028           __Umul8_16@product 0024  
